(dp1
S'question_no'
p2
(dp3
S'type'
p4
S'integer'
p5
sS'sortable'
p6
I4
sS'sql'
p7
S'INTEGER'
p8
ssS'title'
p9
(dp10
g4
S'string'
p11
sg6
I2
sg7
S'CHAR(512)'
p12
ssS'answer'
p13
(dp14
g4
g11
sg6
I6
sg7
S'CHAR(512)'
p15
ssS'question'
p16
(dp17
g4
g11
sg6
I5
sg7
S'CHAR(512)'
p18
ssS'id'
p19
(dp20
g4
S'id'
p21
sg6
I1
sg7
S'INTEGER PRIMARY KEY AUTOINCREMENT'
p22
ssS'event'
p23
(dp24
g4
g5
sg6
I3
sg7
S'INTEGER'
p25
ss.