(dp1
S'start'
p2
(dp3
S'type'
p4
S'datetime'
p5
sS'sortable'
p6
I3
sS'sql'
p7
S'TIMESTAMP'
p8
ssS'end'
p9
(dp10
g4
g5
sg6
I4
sg7
S'TIMESTAMP'
p11
ssS'name'
p12
(dp13
g4
S'string'
p14
sg6
I2
sg7
S'CHAR(512) UNIQUE'
p15
ssS'flow_of_questions'
p16
(dp17
g4
S'integer'
p18
sg6
I5
sg7
S'INTEGER'
p19
ssS'judge'
p20
(dp21
g4
g14
sg6
I6
sg7
S'CHAR(512)'
p22
ssS'organizer'
p23
(dp24
g4
g14
sg6
I7
sg7
S'CHAR(512)'
p25
ssS'id'
p26
(dp27
g4
S'id'
p28
sg6
I1
sg7
S'INTEGER PRIMARY KEY AUTOINCREMENT'
p29
ss.