(dp1
S'event_id'
p2
(dp3
S'type'
p4
S'integer'
p5
sS'sortable'
p6
I2
sS'sql'
p7
S'INTEGER'
p8
ssS'tab_id'
p9
(dp10
g4
g5
sg6
I3
sg7
S'INTEGER'
p11
ssS'title'
p12
(dp13
g4
S'string'
p14
sg6
I4
sg7
S'CHAR(512)'
p15
ssS'id'
p16
(dp17
g4
S'id'
p18
sg6
I1
sg7
S'INTEGER PRIMARY KEY AUTOINCREMENT'
p19
ssS'raw_content'
p20
(dp21
g4
S'text'
p22
sg6
I5
sg7
S'TEXT'
p23
ss.