(dp1
S'question_no'
p2
(dp3
S'type'
p4
S'integer'
p5
sS'sortable'
p6
I4
sS'sql'
p7
S'INTEGER'
p8
ssS'title'
p9
(dp10
g4
S'string'
p11
sg6
I2
sg7
S'CHAR(512)'
p12
ssS'answer'
p13
(dp14
g4
S'text'
p15
sg6
I6
sg7
S'TEXT'
p16
ssS'question'
p17
(dp18
g4
g15
sg6
I5
sg7
S'TEXT'
p19
ssS'id'
p20
(dp21
g4
S'id'
p22
sg6
I1
sg7
S'INTEGER PRIMARY KEY AUTOINCREMENT'
p23
ssS'event'
p24
(dp25
g4
g5
sg6
I3
sg7
S'INTEGER'
p26
ss.