(dp1
S'output'
p2
S"<type 'exceptions.IOError'> [Errno 2] No such file or directory: '/tmp/Felicity/submission_3_1_1L3B0M.cpp'"
p3
sS'layer'
p4
S'/var/www/web2py/applications/Threads_Beta/controllers/default.py'
p5
sS'code'
p6
S'# -*- coding: utf-8 -*-\n# this file is released under public domain and you can use without limitations\n\n#########################################################################\n## This is a samples controller\n## - index is the default action of any application\n## - user is required for authentication and authorization\n## - download is for downloading files uploaded in the db (does streaming)\n## - call exposes all registered services (none by default)\n#########################################################################\nimport cStringIO\nimport pycurl\nimport shutil\nimport string\nimport random\nimport os\nimport urllib\nimport json\ndef index():\n    """\n    example action using the internationalization operator T and flash\n    rendered by views/default/index.html or views/generic.html\n    """\n    response.flash = "Welcome to Felicity!"\n    events = db(db.events.id>0).select()\n    title = T(\'Threads at Felicity-2013\')\n    about = T(\'Threads is the annual online programming and quizzing event at Felicity. This sees great amount of participation from over  67 countries\')\n    return dict(events = events,about = about,title=title)\ndef event_home():\n    tab_id = int(request.get_vars[\'tab_id\'])\n    event_id = int(request.get_vars[\'event_id\'])\n    row = db((db.event_tab.id>0 )& (db.event_tab.event_id==event_id) & (db.event_tab.tab_id==tab_id)).select()\n\n    about = "Felicity is IIIT-Hyderabad\'s annual technno-cultural Festival."\n    title = "Error!"\n\n    if(row):\n        about = row[0].raw_content\n        title = row[0].title\n    tabs = db((db.event_tab.id>0) & (db.event_tab.event_id==event_id)).select()\n    return dict(about = about,title=title,tabs = tabs,event_id = event_id)\n\n\n@auth.requires_login()\ndef questions():\n    event_id = int(request.get_vars[\'event_id\'])\n    question_no = int(request.get_vars[\'question_no\'])\n    if \'message\' in request.get_vars.keys():\n        response.flash = request.get_vars[\'message\']\n\n    event_details= db(db.events.id==event_id).select()[0]\n    #If User is NOT registered for the given event , register him/her with default score = 0\n    user_id = auth.user.id \n    event_user_rows = db((db.event_user.event_id==event_id)&(db.event_user.user_id == user_id)).select()\n    if len(event_user_rows) <= 0:\n        response.flash = "Woa a new competitor!"\n        db.event_user.insert(event_id=event_id,user_id = user_id,score=0,status=\'Participating\',penalty=0,current_question=1)  \n    elif( int(event_details.flow_of_questions) == 1 ):\n        question_no= event_user_rows[0].current_question\n\n\n    #Tabs to be displayed on the RHS block\n    tabs = db((db.event_tab.id>0) & (db.event_tab.event_id==event_id)).select()\n    \n\n\n    #Comments Form\n    db.comments.user_id.default = user_id\n    db.comments.event_id.default = event_id\n    db.comments.question_no.default = question_no\n    form = SQLFORM(db.comments)\n    if form.process().accepted:\n        response.flash = "Comment will become public after moderation"\n\n    if(question_no > 0):\n        all_comments = db((db.comments.event_id==event_id)&(db.comments.question_no==question_no)).select()\n    else:\n        all_comments = []\n\n    \n    a = int(event_details.flow_of_questions)\n    response.flash = a\n    if(question_no == 0 and a == 2):\n        list_of_questions = db((db.question.id>0)&(db.question.event== event_id)).select()\n        question_title = "List of questions"\n        return dict(user_details = auth.user,question_title = question_title, list_of_questions=list_of_questions,tabs = tabs, event_id = event_id,form=form,comments=all_comments)\n    \n    else:\n        question_details = db((db.question.event ==event_id) & (db.question.question_no == question_no)).select()[0]\n        if(question_details):\n            question_title = question_details.title\n    \n            return dict(user_details = auth.user,question_title= question_title,question_statement = question_details.question, answer = question_details.answer,tabs=tabs,event_id=event_id,user_id = user_id,question_no = question_no,form=form,comments=all_comments)\n\n\n@auth.requires_login()\ndef judge():\n    question_no = int(request.get_vars[\'question_no\'])\n    event_id = int(request.get_vars[\'event_id\'])\n\n    user_id = auth.user.id\n    user_event = db((db.event_user.user_id == user_id)&(db.event_user.event_id==event_id)).select()[0]\n    question_no = int(user_event[\'current_question\'])\n    #Dictionary that will hold all the data to be passed to the black-box judge\n    post_vars = {}\n    file_size = 0\n    for key in request.vars.keys():\n        post_vars[key] = request.vars[key]\n    #If thtere is a file upload. NOTE that any question may have a MAXIMUM of one file upload per question.\n    if \'file\' in request.vars.keys():\n        # THis will take the file, write it on to the file and transfer it to the judge\'s local system.\n        # uses POST for input and SCP for transfering. Make sure that the judge\'s authorized_keys has the Apache\'s key in it. Basically a passwordless login should be enabled for user \'apache\'\n        filename = request.vars.file.filename\n        file_descriptor = request.vars.file.file\n        file_descriptor.seek(0,2)\n        file_size = file_descriptor.tell()\n        file_descriptor.seek(0,0)   \n        temp_dir = "/tmp/Felicity/"\n\n        # Temp filename = submission_<EVENT-ID>_<USER-ID>_<Unique-string>.<ext>\n        temp_storage_file = "submission_"+str(question_no)+"_"+str(event_id)+"_"+str(auth.user.id)+str(\'\'.join(random.choice(string.ascii_uppercase + string.digits) for x in range(5)))+os.path.splitext(filename)[1]\n        temp_storage_filename = temp_dir + temp_storage_file\n        shutil.copyfileobj(file_descriptor,open(temp_storage_filename,\'wb\'))\n         \n        row = db(db.events.id==event_id).select()[0]\n        #Transfer the string using SCP.\n        organizer = row[\'organizer\']\n        judge_ip = row[\'judge\'].split(\':\')[0]\n        os.system(\'scp "%s" "%s"@"%s":~/judge/uploads/.\'%(temp_storage_filename,organizer,judge_ip))\n        post_vars[\'file\'] = temp_storage_file\n        \n        \n\n\n\n    #Convert the variables to be passed into a form passable thru GET\n    data_post = urllib.urlencode(post_vars)\n\n    #Establish a connection, and communicate with the blackbox judge using cURL\n    #Based on what is sent to the black-box judge, it will reply with the following :\n    #    1. Event-ID\n    #    2. Score increment\n    #    3. Penalty increment\n    #    4. Current question in case of an event with sequential questions.\n    #    5. Status to be displayed : ususally "correct", "wrong" or the like\n    buf = cStringIO.StringIO()\n    c = pycurl.Curl()\n    curl_request = "http://localhost:10001"\n    c.setopt(pycurl.URL, curl_request)\n    c.setopt(pycurl.POST,1)\n    c.setopt(pycurl.POSTFIELDS, data_post)\n    c.setopt(pycurl.WRITEFUNCTION, buf.write)\n    c.perform()\n    ret_val = buf.getvalue()\n    buf.close()\n    #End of communication\n\n   \n    \n    response_dict = json.loads(ret_val) #converts the response string into a dictionary understandable by Python\n\n\n    \n    #Update the user with the response obtained above. \n    db((db.event_user.event_id == response_dict[\'event_id\'])&(db.event_user.user_id == user_id)).update(score = int(user_event[\'score\'])+response_dict[\'score\'], status = response_dict[\'status\'],penalty=int(response_dict[\'penalty\'])+int(user_event[\'penalty\']),current_question = int(response_dict[\'current_question\']))\n    response.flash = (response_dict[\'status\'])\n\n    #Re-direct Back to the Questions page. Either : list of questions for nonseq. type and current question for seq. type event.\n    redirect(\'questions?question_no=0&event_id=\'+str(event_id)+"&message="+response_dict[\'status\']) \n    return dict(text=ret_val)\n\n\n\ndef scoreboard():\n    event_id = request.get_vars[\'event_id\']\n    scorers = db(db.event_user.event_id == event_id).select(orderby=db.event_user.score)\n    tabs = db((db.event_tab.id>0) & (db.event_tab.event_id==event_id)).select()\n    return dict(scoreboard = scorers, tabs = tabs, event_id= event_id)\n\n\n\ndef user():\n    """\n    exposes:\n    http://..../[app]/default/user/login\n    http://..../[app]/default/user/logout\n    http://..../[app]/default/user/register\n    http://..../[app]/default/user/profile\n    http://..../[app]/default/user/retrieve_password\n    http://..../[app]/default/user/change_password\n    use @auth.requires_login()\n        @auth.requires_membership(\'group name\')\n        @auth.requires_permission(\'read\',\'table name\',record_id)\n    to decorate functions that need access control\n    """\n    return dict(form=auth())\n\n\ndef download():\n    """\n    allows downloading of uploaded files\n    http://..../[app]/default/download/[filename]\n    """\n    return response.download(request,db)\n\n\ndef call():\n    """\n    exposes services. for example:\n    http://..../[app]/default/call/jsonrpc\n    decorate with @services.jsonrpc the functions to expose\n    supports xml, json, xmlrpc, jsonrpc, amfrpc, rss, csv\n    """\n    return service()\n\n\n@auth.requires_signature()\ndef data():\n    """\n    http://..../[app]/default/data/tables\n    http://..../[app]/default/data/create/[table]\n    http://..../[app]/default/data/read/[table]/[id]\n    http://..../[app]/default/data/update/[table]/[id]\n    http://..../[app]/default/data/delete/[table]/[id]\n    http://..../[app]/default/data/select/[table]\n    http://..../[app]/default/data/search/[table]\n    but URLs must be signed, i.e. linked with\n      A(\'table\',_href=URL(\'data/tables\',user_signature=True))\n    or with the signed load operator\n      LOAD(\'default\',\'data.load\',args=\'tables\',ajax=True,user_signature=True)\n    """\n    return dict(form=crud())\n\n\nresponse._vars=response._caller(judge)\n'
p7
sS'snapshot'
p8
(dp9
S'exception'
p10
(dp11
S'__getslice__'
p12
S"<method-wrapper '__getslice__' of exceptions.IOError object>"
p13
sS'__str__'
p14
S"<method-wrapper '__str__' of exceptions.IOError object>"
p15
sS'__reduce__'
p16
S'<built-in method __reduce__ of exceptions.IOError object>'
p17
sS'__dict__'
p18
S'{}'
p19
sS'__sizeof__'
p20
S'<built-in method __sizeof__ of exceptions.IOError object>'
p21
sS'__init__'
p22
S"<method-wrapper '__init__' of exceptions.IOError object>"
p23
sS'__setattr__'
p24
S"<method-wrapper '__setattr__' of exceptions.IOError object>"
p25
sS'__reduce_ex__'
p26
S'<built-in method __reduce_ex__ of exceptions.IOError object>'
p27
sS'__new__'
p28
S'<built-in method __new__ of type object>'
p29
sS'errno'
p30
S'2'
sS'__format__'
p31
S'<built-in method __format__ of exceptions.IOError object>'
p32
sS'__class__'
p33
S"<type 'exceptions.IOError'>"
p34
sS'filename'
p35
S"'/tmp/Felicity/submission_3_1_1L3B0M.cpp'"
p36
sS'__doc__'
p37
S"'I/O operation failed.'"
p38
sS'__getitem__'
p39
S"<method-wrapper '__getitem__' of exceptions.IOError object>"
p40
sS'__setstate__'
p41
S'<built-in method __setstate__ of exceptions.IOError object>'
p42
sS'__getattribute__'
p43
S"<method-wrapper '__getattribute__' of exceptions.IOError object>"
p44
sS'args'
p45
S"(2, 'No such file or directory')"
p46
sS'__subclasshook__'
p47
S'<built-in method __subclasshook__ of type object>'
p48
sS'__unicode__'
p49
S'<built-in method __unicode__ of exceptions.IOError object>'
p50
sS'strerror'
p51
S"'No such file or directory'"
p52
sS'__delattr__'
p53
S"<method-wrapper '__delattr__' of exceptions.IOError object>"
p54
sS'__repr__'
p55
S"<method-wrapper '__repr__' of exceptions.IOError object>"
p56
sS'__hash__'
p57
S"<method-wrapper '__hash__' of exceptions.IOError object>"
p58
ssS'evalue'
p59
S"[Errno 2] No such file or directory: '/tmp/Felicity/submission_3_1_1L3B0M.cpp'"
p60
sS'request'
p61
ccopy_reg
_reconstructor
p62
(cgluon.html
BEAUTIFY
p63
c__builtin__
object
p64
NtRp65
(dp66
S'attributes'
p67
(dp68
sS'components'
p69
(lp70
g62
(cgluon.html
TABLE
p71
g64
NtRp72
(dp73
g67
(dp74
S'level'
p75
I5
ssS'parent'
p76
Nsg69
(lp77
g62
(cgluon.html
TR
p78
g64
NtRp79
(dp80
g67
(dp81
sg76
g72
sg69
(lp82
g62
(cgluon.html
TD
p83
g64
NtRp84
(dp85
g67
(dp86
S'_style'
p87
S'font-weight:bold;vertical-align:top'
p88
ssg76
g79
sg69
(lp89
S'ajax'
p90
asbag62
(g83
g64
NtRp91
(dp92
g67
(dp93
S'_valign'
p94
S'top'
p95
ssg76
g79
sg69
(lp96
S':'
asbag62
(g83
g64
NtRp97
(dp98
g67
(dp99
sg76
g79
sg69
(lp100
g62
(g63
g64
NtRp101
(dp102
g67
(dp103
g75
I5
ssg76
g97
sg69
(lp104
S'False'
p105
asbasbasbag62
(g78
g64
NtRp106
(dp107
g67
(dp108
sg76
g72
sg69
(lp109
g62
(g83
g64
NtRp110
(dp111
g67
(dp112
g87
g88
ssg76
g106
sg69
(lp113
S'application'
p114
asbag62
(g83
g64
NtRp115
(dp116
g67
(dp117
g94
g95
ssg76
g106
sg69
(lp118
S':'
asbag62
(g83
g64
NtRp119
(dp120
g67
(dp121
sg76
g106
sg69
(lp122
g62
(g63
g64
NtRp123
(dp124
g67
(dp125
g75
I5
ssg76
g119
sg69
(lp126
S'Threads_Beta'
p127
asbasbasbag62
(g78
g64
NtRp128
(dp129
g67
(dp130
sg76
g72
sg69
(lp131
g62
(g83
g64
NtRp132
(dp133
g67
(dp134
g87
g88
ssg76
g128
sg69
(lp135
g45
asbag62
(g83
g64
NtRp136
(dp137
g67
(dp138
g94
g95
ssg76
g128
sg69
(lp139
S':'
asbag62
(g83
g64
NtRp140
(dp141
g67
(dp142
sg76
g128
sg69
(lp143
g62
(g63
g64
NtRp144
(dp145
g67
(dp146
g75
I5
ssg76
g140
sg69
(lp147
g62
(g71
g64
NtRp148
(dp149
g67
(dp150
g75
I4
ssg76
Nsg69
(lp151
sbasbasbasbag62
(g78
g64
NtRp152
(dp153
g67
(dp154
sg76
g72
sg69
(lp155
g62
(g83
g64
NtRp156
(dp157
g67
(dp158
g87
g88
ssg76
g152
sg69
(lp159
S'body'
p160
asbag62
(g83
g64
NtRp161
(dp162
g67
(dp163
g94
g95
ssg76
g152
sg69
(lp164
S':'
asbag62
(g83
g64
NtRp165
(dp166
g67
(dp167
sg76
g152
sg69
(lp168
g62
(g63
g64
NtRp169
(dp170
g67
(dp171
g75
I5
ssg76
g165
sg69
(lp172
S"<open file '<fdopen>', mode 'w+b' at 0x7fba30b7eae0>"
p173
asbasbasbag62
(g78
g64
NtRp174
(dp175
g67
(dp176
sg76
g72
sg69
(lp177
g62
(g83
g64
NtRp178
(dp179
g67
(dp180
g87
g88
ssg76
g174
sg69
(lp181
S'client'
p182
asbag62
(g83
g64
NtRp183
(dp184
g67
(dp185
g94
g95
ssg76
g174
sg69
(lp186
S':'
asbag62
(g83
g64
NtRp187
(dp188
g67
(dp189
sg76
g174
sg69
(lp190
g62
(g63
g64
NtRp191
(dp192
g67
(dp193
g75
I5
ssg76
g187
sg69
(lp194
S'10.1.34.61'
p195
asbasbasbag62
(g78
g64
NtRp196
(dp197
g67
(dp198
sg76
g72
sg69
(lp199
g62
(g83
g64
NtRp200
(dp201
g67
(dp202
g87
g88
ssg76
g196
sg69
(lp203
S'controller'
p204
asbag62
(g83
g64
NtRp205
(dp206
g67
(dp207
g94
g95
ssg76
g196
sg69
(lp208
S':'
asbag62
(g83
g64
NtRp209
(dp210
g67
(dp211
sg76
g196
sg69
(lp212
g62
(g63
g64
NtRp213
(dp214
g67
(dp215
g75
I5
ssg76
g209
sg69
(lp216
S'default'
p217
asbasbasbag62
(g78
g64
NtRp218
(dp219
g67
(dp220
sg76
g72
sg69
(lp221
g62
(g83
g64
NtRp222
(dp223
g67
(dp224
g87
g88
ssg76
g218
sg69
(lp225
S'cookies'
p226
asbag62
(g83
g64
NtRp227
(dp228
g67
(dp229
g94
g95
ssg76
g218
sg69
(lp230
S':'
asbag62
(g83
g64
NtRp231
(dp232
g67
(dp233
sg76
g218
sg69
(lp234
g62
(g63
g64
NtRp235
(dp236
g67
(dp237
g75
I5
ssg76
g231
sg69
(lp238
g62
(g71
g64
NtRp239
(dp240
g67
(dp241
g75
I4
ssg76
Nsg69
(lp242
g62
(g78
g64
NtRp243
(dp244
g67
(dp245
sg76
g239
sg69
(lp246
g62
(g83
g64
NtRp247
(dp248
g67
(dp249
g87
g88
ssg76
g243
sg69
(lp250
S'session_id_threads_beta'
p251
asbag62
(g83
g64
NtRp252
(dp253
g67
(dp254
g94
g95
ssg76
g243
sg69
(lp255
S':'
asbag62
(g83
g64
NtRp256
(dp257
g67
(dp258
sg76
g243
sg69
(lp259
g62
(g63
g64
NtRp260
(dp261
g67
(dp262
g75
I4
ssg76
g256
sg69
(lp263
g62
(g71
g64
NtRp264
(dp265
g67
(dp266
g75
I3
ssg76
Nsg69
(lp267
g62
(g78
g64
NtRp268
(dp269
g67
(dp270
sg76
g264
sg69
(lp271
g62
(g83
g64
NtRp272
(dp273
g67
(dp274
g87
g88
ssg76
g268
sg69
(lp275
S'comment'
p276
asbag62
(g83
g64
NtRp277
(dp278
g67
(dp279
g94
g95
ssg76
g268
sg69
(lp280
S':'
asbag62
(g83
g64
NtRp281
(dp282
g67
(dp283
sg76
g268
sg69
(lp284
g62
(g63
g64
NtRp285
(dp286
g67
(dp287
g75
I3
ssg76
g281
sg69
(lp288
S''
asbasbasbag62
(g78
g64
NtRp289
(dp290
g67
(dp291
sg76
g264
sg69
(lp292
g62
(g83
g64
NtRp293
(dp294
g67
(dp295
g87
g88
ssg76
g289
sg69
(lp296
S'domain'
p297
asbag62
(g83
g64
NtRp298
(dp299
g67
(dp300
g94
g95
ssg76
g289
sg69
(lp301
S':'
asbag62
(g83
g64
NtRp302
(dp303
g67
(dp304
sg76
g289
sg69
(lp305
g62
(g63
g64
NtRp306
(dp307
g67
(dp308
g75
I3
ssg76
g302
sg69
(lp309
S''
asbasbasbag62
(g78
g64
NtRp310
(dp311
g67
(dp312
sg76
g264
sg69
(lp313
g62
(g83
g64
NtRp314
(dp315
g67
(dp316
g87
g88
ssg76
g310
sg69
(lp317
S'expires'
p318
asbag62
(g83
g64
NtRp319
(dp320
g67
(dp321
g94
g95
ssg76
g310
sg69
(lp322
S':'
asbag62
(g83
g64
NtRp323
(dp324
g67
(dp325
sg76
g310
sg69
(lp326
g62
(g63
g64
NtRp327
(dp328
g67
(dp329
g75
I3
ssg76
g323
sg69
(lp330
S''
asbasbasbag62
(g78
g64
NtRp331
(dp332
g67
(dp333
sg76
g264
sg69
(lp334
g62
(g83
g64
NtRp335
(dp336
g67
(dp337
g87
g88
ssg76
g331
sg69
(lp338
S'httponly'
p339
asbag62
(g83
g64
NtRp340
(dp341
g67
(dp342
g94
g95
ssg76
g331
sg69
(lp343
S':'
asbag62
(g83
g64
NtRp344
(dp345
g67
(dp346
sg76
g331
sg69
(lp347
g62
(g63
g64
NtRp348
(dp349
g67
(dp350
g75
I3
ssg76
g344
sg69
(lp351
S''
asbasbasbag62
(g78
g64
NtRp352
(dp353
g67
(dp354
sg76
g264
sg69
(lp355
g62
(g83
g64
NtRp356
(dp357
g67
(dp358
g87
g88
ssg76
g352
sg69
(lp359
S'max-age'
p360
asbag62
(g83
g64
NtRp361
(dp362
g67
(dp363
g94
g95
ssg76
g352
sg69
(lp364
S':'
asbag62
(g83
g64
NtRp365
(dp366
g67
(dp367
sg76
g352
sg69
(lp368
g62
(g63
g64
NtRp369
(dp370
g67
(dp371
g75
I3
ssg76
g365
sg69
(lp372
S''
asbasbasbag62
(g78
g64
NtRp373
(dp374
g67
(dp375
sg76
g264
sg69
(lp376
g62
(g83
g64
NtRp377
(dp378
g67
(dp379
g87
g88
ssg76
g373
sg69
(lp380
S'path'
p381
asbag62
(g83
g64
NtRp382
(dp383
g67
(dp384
g94
g95
ssg76
g373
sg69
(lp385
S':'
asbag62
(g83
g64
NtRp386
(dp387
g67
(dp388
sg76
g373
sg69
(lp389
g62
(g63
g64
NtRp390
(dp391
g67
(dp392
g75
I3
ssg76
g386
sg69
(lp393
S''
asbasbasbag62
(g78
g64
NtRp394
(dp395
g67
(dp396
sg76
g264
sg69
(lp397
g62
(g83
g64
NtRp398
(dp399
g67
(dp400
g87
g88
ssg76
g394
sg69
(lp401
S'secure'
p402
asbag62
(g83
g64
NtRp403
(dp404
g67
(dp405
g94
g95
ssg76
g394
sg69
(lp406
S':'
asbag62
(g83
g64
NtRp407
(dp408
g67
(dp409
sg76
g394
sg69
(lp410
g62
(g63
g64
NtRp411
(dp412
g67
(dp413
g75
I3
ssg76
g407
sg69
(lp414
S''
asbasbasbag62
(g78
g64
NtRp415
(dp416
g67
(dp417
sg76
g264
sg69
(lp418
g62
(g83
g64
NtRp419
(dp420
g67
(dp421
g87
g88
ssg76
g415
sg69
(lp422
S'version'
p423
asbag62
(g83
g64
NtRp424
(dp425
g67
(dp426
g94
g95
ssg76
g415
sg69
(lp427
S':'
asbag62
(g83
g64
NtRp428
(dp429
g67
(dp430
sg76
g415
sg69
(lp431
g62
(g63
g64
NtRp432
(dp433
g67
(dp434
g75
I3
ssg76
g428
sg69
(lp435
S''
asbasbasbasbasbasbasbasbasbasbasbag62
(g78
g64
NtRp436
(dp437
g67
(dp438
sg76
g72
sg69
(lp439
g62
(g83
g64
NtRp440
(dp441
g67
(dp442
g87
g88
ssg76
g436
sg69
(lp443
S'env'
p444
asbag62
(g83
g64
NtRp445
(dp446
g67
(dp447
g94
g95
ssg76
g436
sg69
(lp448
S':'
asbag62
(g83
g64
NtRp449
(dp450
g67
(dp451
sg76
g436
sg69
(lp452
g62
(g63
g64
NtRp453
(dp454
g67
(dp455
g75
I5
ssg76
g449
sg69
(lp456
g62
(g71
g64
NtRp457
(dp458
g67
(dp459
g75
I4
ssg76
Nsg69
(lp460
g62
(g78
g64
NtRp461
(dp462
g67
(dp463
sg76
g457
sg69
(lp464
g62
(g83
g64
NtRp465
(dp466
g67
(dp467
g87
g88
ssg76
g461
sg69
(lp468
S'app_folders'
p469
asbag62
(g83
g64
NtRp470
(dp471
g67
(dp472
g94
g95
ssg76
g461
sg69
(lp473
S':'
asbag62
(g83
g64
NtRp474
(dp475
g67
(dp476
sg76
g461
sg69
(lp477
g62
(g63
g64
NtRp478
(dp479
g67
(dp480
g75
I4
ssg76
g474
sg69
(lp481
S"set(['/var/www/web2py/applications/Threads_Beta/', '/var/www/web2py/applications/welcome/', '/var/www/web2py/applications/ChatBot_V4/', '/var/www/web2py/applications/admin/'])"
p482
asbasbasbag62
(g78
g64
NtRp483
(dp484
g67
(dp485
sg76
g457
sg69
(lp486
g62
(g83
g64
NtRp487
(dp488
g67
(dp489
g87
g88
ssg76
g483
sg69
(lp490
S'applications_parent'
p491
asbag62
(g83
g64
NtRp492
(dp493
g67
(dp494
g94
g95
ssg76
g483
sg69
(lp495
S':'
asbag62
(g83
g64
NtRp496
(dp497
g67
(dp498
sg76
g483
sg69
(lp499
g62
(g63
g64
NtRp500
(dp501
g67
(dp502
g75
I4
ssg76
g496
sg69
(lp503
S'/var/www/web2py'
p504
asbasbasbag62
(g78
g64
NtRp505
(dp506
g67
(dp507
sg76
g457
sg69
(lp508
g62
(g83
g64
NtRp509
(dp510
g67
(dp511
g87
g88
ssg76
g505
sg69
(lp512
S'content_length'
p513
asbag62
(g83
g64
NtRp514
(dp515
g67
(dp516
g94
g95
ssg76
g505
sg69
(lp517
S':'
asbag62
(g83
g64
NtRp518
(dp519
g67
(dp520
sg76
g505
sg69
(lp521
g62
(g63
g64
NtRp522
(dp523
g67
(dp524
g75
I4
ssg76
g518
sg69
(lp525
S'326'
p526
asbasbasbag62
(g78
g64
NtRp527
(dp528
g67
(dp529
sg76
g457
sg69
(lp530
g62
(g83
g64
NtRp531
(dp532
g67
(dp533
g87
g88
ssg76
g527
sg69
(lp534
S'content_type'
p535
asbag62
(g83
g64
NtRp536
(dp537
g67
(dp538
g94
g95
ssg76
g527
sg69
(lp539
S':'
asbag62
(g83
g64
NtRp540
(dp541
g67
(dp542
sg76
g527
sg69
(lp543
g62
(g63
g64
NtRp544
(dp545
g67
(dp546
g75
I4
ssg76
g540
sg69
(lp547
S'multipart/form-data; boundary=---------------------------163119444615421411244068351'
p548
asbasbasbag62
(g78
g64
NtRp549
(dp550
g67
(dp551
sg76
g457
sg69
(lp552
g62
(g83
g64
NtRp553
(dp554
g67
(dp555
g87
g88
ssg76
g549
sg69
(lp556
S'db_sessions'
p557
asbag62
(g83
g64
NtRp558
(dp559
g67
(dp560
g94
g95
ssg76
g549
sg69
(lp561
S':'
asbag62
(g83
g64
NtRp562
(dp563
g67
(dp564
sg76
g549
sg69
(lp565
g62
(g63
g64
NtRp566
(dp567
g67
(dp568
g75
I4
ssg76
g562
sg69
(lp569
S'set([])'
p570
asbasbasbag62
(g78
g64
NtRp571
(dp572
g67
(dp573
sg76
g457
sg69
(lp574
g62
(g83
g64
NtRp575
(dp576
g67
(dp577
g87
g88
ssg76
g571
sg69
(lp578
S'debugging'
p579
asbag62
(g83
g64
NtRp580
(dp581
g67
(dp582
g94
g95
ssg76
g571
sg69
(lp583
S':'
asbag62
(g83
g64
NtRp584
(dp585
g67
(dp586
sg76
g571
sg69
(lp587
g62
(g63
g64
NtRp588
(dp589
g67
(dp590
g75
I4
ssg76
g584
sg69
(lp591
g105
asbasbasbag62
(g78
g64
NtRp592
(dp593
g67
(dp594
sg76
g457
sg69
(lp595
g62
(g83
g64
NtRp596
(dp597
g67
(dp598
g87
g88
ssg76
g592
sg69
(lp599
S'document_root'
p600
asbag62
(g83
g64
NtRp601
(dp602
g67
(dp603
g94
g95
ssg76
g592
sg69
(lp604
S':'
asbag62
(g83
g64
NtRp605
(dp606
g67
(dp607
sg76
g592
sg69
(lp608
g62
(g63
g64
NtRp609
(dp610
g67
(dp611
g75
I4
ssg76
g605
sg69
(lp612
S'/var/www/html'
p613
asbasbasbag62
(g78
g64
NtRp614
(dp615
g67
(dp616
sg76
g457
sg69
(lp617
g62
(g83
g64
NtRp618
(dp619
g67
(dp620
g87
g88
ssg76
g614
sg69
(lp621
S'gateway_interface'
p622
asbag62
(g83
g64
NtRp623
(dp624
g67
(dp625
g94
g95
ssg76
g614
sg69
(lp626
S':'
asbag62
(g83
g64
NtRp627
(dp628
g67
(dp629
sg76
g614
sg69
(lp630
g62
(g63
g64
NtRp631
(dp632
g67
(dp633
g75
I4
ssg76
g627
sg69
(lp634
S'CGI/1.1'
p635
asbasbasbag62
(g78
g64
NtRp636
(dp637
g67
(dp638
sg76
g457
sg69
(lp639
g62
(g83
g64
NtRp640
(dp641
g67
(dp642
g87
g88
ssg76
g636
sg69
(lp643
S'gluon_parent'
p644
asbag62
(g83
g64
NtRp645
(dp646
g67
(dp647
g94
g95
ssg76
g636
sg69
(lp648
S':'
asbag62
(g83
g64
NtRp649
(dp650
g67
(dp651
sg76
g636
sg69
(lp652
g62
(g63
g64
NtRp653
(dp654
g67
(dp655
g75
I4
ssg76
g649
sg69
(lp656
g504
asbasbasbag62
(g78
g64
NtRp657
(dp658
g67
(dp659
sg76
g457
sg69
(lp660
g62
(g83
g64
NtRp661
(dp662
g67
(dp663
g87
g88
ssg76
g657
sg69
(lp664
S'http_accept'
p665
asbag62
(g83
g64
NtRp666
(dp667
g67
(dp668
g94
g95
ssg76
g657
sg69
(lp669
S':'
asbag62
(g83
g64
NtRp670
(dp671
g67
(dp672
sg76
g657
sg69
(lp673
g62
(g63
g64
NtRp674
(dp675
g67
(dp676
g75
I4
ssg76
g670
sg69
(lp677
S'text/html,application/xhtml+xml,application/xml;q=0.9,*/*;q=0.8'
p678
asbasbasbag62
(g78
g64
NtRp679
(dp680
g67
(dp681
sg76
g457
sg69
(lp682
g62
(g83
g64
NtRp683
(dp684
g67
(dp685
g87
g88
ssg76
g679
sg69
(lp686
S'http_accept_encoding'
p687
asbag62
(g83
g64
NtRp688
(dp689
g67
(dp690
g94
g95
ssg76
g679
sg69
(lp691
S':'
asbag62
(g83
g64
NtRp692
(dp693
g67
(dp694
sg76
g679
sg69
(lp695
g62
(g63
g64
NtRp696
(dp697
g67
(dp698
g75
I4
ssg76
g692
sg69
(lp699
S'gzip, deflate'
p700
asbasbasbag62
(g78
g64
NtRp701
(dp702
g67
(dp703
sg76
g457
sg69
(lp704
g62
(g83
g64
NtRp705
(dp706
g67
(dp707
g87
g88
ssg76
g701
sg69
(lp708
S'http_accept_language'
p709
asbag62
(g83
g64
NtRp710
(dp711
g67
(dp712
g94
g95
ssg76
g701
sg69
(lp713
S':'
asbag62
(g83
g64
NtRp714
(dp715
g67
(dp716
sg76
g701
sg69
(lp717
g62
(g63
g64
NtRp718
(dp719
g67
(dp720
g75
I4
ssg76
g714
sg69
(lp721
S'en-us,en;q=0.5'
p722
asbasbasbag62
(g78
g64
NtRp723
(dp724
g67
(dp725
sg76
g457
sg69
(lp726
g62
(g83
g64
NtRp727
(dp728
g67
(dp729
g87
g88
ssg76
g723
sg69
(lp730
S'http_cache_control'
p731
asbag62
(g83
g64
NtRp732
(dp733
g67
(dp734
g94
g95
ssg76
g723
sg69
(lp735
S':'
asbag62
(g83
g64
NtRp736
(dp737
g67
(dp738
sg76
g723
sg69
(lp739
g62
(g63
g64
NtRp740
(dp741
g67
(dp742
g75
I4
ssg76
g736
sg69
(lp743
S'no-cache'
p744
asbasbasbag62
(g78
g64
NtRp745
(dp746
g67
(dp747
sg76
g457
sg69
(lp748
g62
(g83
g64
NtRp749
(dp750
g67
(dp751
g87
g88
ssg76
g745
sg69
(lp752
S'http_connection'
p753
asbag62
(g83
g64
NtRp754
(dp755
g67
(dp756
g94
g95
ssg76
g745
sg69
(lp757
S':'
asbag62
(g83
g64
NtRp758
(dp759
g67
(dp760
sg76
g745
sg69
(lp761
g62
(g63
g64
NtRp762
(dp763
g67
(dp764
g75
I4
ssg76
g758
sg69
(lp765
S'keep-alive'
p766
asbasbasbag62
(g78
g64
NtRp767
(dp768
g67
(dp769
sg76
g457
sg69
(lp770
g62
(g83
g64
NtRp771
(dp772
g67
(dp773
g87
g88
ssg76
g767
sg69
(lp774
S'http_cookie'
p775
asbag62
(g83
g64
NtRp776
(dp777
g67
(dp778
g94
g95
ssg76
g767
sg69
(lp779
S':'
asbag62
(g83
g64
NtRp780
(dp781
g67
(dp782
sg76
g767
sg69
(lp783
g62
(g63
g64
NtRp784
(dp785
g67
(dp786
g75
I4
ssg76
g780
sg69
(lp787
S'session_id_threads_beta=10.1.34.61-3114cc7b-425a-4da5-9d92-36a7f5bc0cd8; __utma=47423280.1696301220.1353671655.1353671655.1353675902.2; __utmc=47423280; __utmz=47423280.1353671655.1.1.utmcsr=(direct)|utmccn=(direct)|utmcmd=(none); __utmb=47423280.7.10.1353675902'
p788
asbasbasbag62
(g78
g64
NtRp789
(dp790
g67
(dp791
sg76
g457
sg69
(lp792
g62
(g83
g64
NtRp793
(dp794
g67
(dp795
g87
g88
ssg76
g789
sg69
(lp796
S'http_host'
p797
asbag62
(g83
g64
NtRp798
(dp799
g67
(dp800
g94
g95
ssg76
g789
sg69
(lp801
S':'
asbag62
(g83
g64
NtRp802
(dp803
g67
(dp804
sg76
g789
sg69
(lp805
g62
(g63
g64
NtRp806
(dp807
g67
(dp808
g75
I4
ssg76
g802
sg69
(lp809
S'felicity.iiit.ac.in'
p810
asbasbasbag62
(g78
g64
NtRp811
(dp812
g67
(dp813
sg76
g457
sg69
(lp814
g62
(g83
g64
NtRp815
(dp816
g67
(dp817
g87
g88
ssg76
g811
sg69
(lp818
S'http_pragma'
p819
asbag62
(g83
g64
NtRp820
(dp821
g67
(dp822
g94
g95
ssg76
g811
sg69
(lp823
S':'
asbag62
(g83
g64
NtRp824
(dp825
g67
(dp826
sg76
g811
sg69
(lp827
g62
(g63
g64
NtRp828
(dp829
g67
(dp830
g75
I4
ssg76
g824
sg69
(lp831
S'no-cache'
p832
asbasbasbag62
(g78
g64
NtRp833
(dp834
g67
(dp835
sg76
g457
sg69
(lp836
g62
(g83
g64
NtRp837
(dp838
g67
(dp839
g87
g88
ssg76
g833
sg69
(lp840
S'http_referer'
p841
asbag62
(g83
g64
NtRp842
(dp843
g67
(dp844
g94
g95
ssg76
g833
sg69
(lp845
S':'
asbag62
(g83
g64
NtRp846
(dp847
g67
(dp848
sg76
g833
sg69
(lp849
g62
(g63
g64
NtRp850
(dp851
g67
(dp852
g75
I4
ssg76
g846
sg69
(lp853
S'http://felicity.iiit.ac.in/web2py/Threads_Beta/default/questions?question_no=0&event_id=1&message=Bad%20Going!'
p854
asbasbasbag62
(g78
g64
NtRp855
(dp856
g67
(dp857
sg76
g457
sg69
(lp858
g62
(g83
g64
NtRp859
(dp860
g67
(dp861
g87
g88
ssg76
g855
sg69
(lp862
S'http_user_agent'
p863
asbag62
(g83
g64
NtRp864
(dp865
g67
(dp866
g94
g95
ssg76
g855
sg69
(lp867
S':'
asbag62
(g83
g64
NtRp868
(dp869
g67
(dp870
sg76
g855
sg69
(lp871
g62
(g63
g64
NtRp872
(dp873
g67
(dp874
g75
I4
ssg76
g868
sg69
(lp875
S'Mozilla/5.0 (X11; Linux x86_64; rv:10.0.10) Gecko/20121027 Firefox/10.0.10'
p876
asbasbasbag62
(g78
g64
NtRp877
(dp878
g67
(dp879
sg76
g457
sg69
(lp880
g62
(g83
g64
NtRp881
(dp882
g67
(dp883
g87
g88
ssg76
g877
sg69
(lp884
S'is_jython'
p885
asbag62
(g83
g64
NtRp886
(dp887
g67
(dp888
g94
g95
ssg76
g877
sg69
(lp889
S':'
asbag62
(g83
g64
NtRp890
(dp891
g67
(dp892
sg76
g877
sg69
(lp893
g62
(g63
g64
NtRp894
(dp895
g67
(dp896
g75
I4
ssg76
g890
sg69
(lp897
g105
asbasbasbag62
(g78
g64
NtRp898
(dp899
g67
(dp900
sg76
g457
sg69
(lp901
g62
(g83
g64
NtRp902
(dp903
g67
(dp904
g87
g88
ssg76
g898
sg69
(lp905
S'is_pypy'
p906
asbag62
(g83
g64
NtRp907
(dp908
g67
(dp909
g94
g95
ssg76
g898
sg69
(lp910
S':'
asbag62
(g83
g64
NtRp911
(dp912
g67
(dp913
sg76
g898
sg69
(lp914
g62
(g63
g64
NtRp915
(dp916
g67
(dp917
g75
I4
ssg76
g911
sg69
(lp918
g105
asbasbasbag62
(g78
g64
NtRp919
(dp920
g67
(dp921
sg76
g457
sg69
(lp922
g62
(g83
g64
NtRp923
(dp924
g67
(dp925
g87
g88
ssg76
g919
sg69
(lp926
S'mod_wsgi_application_group'
p927
asbag62
(g83
g64
NtRp928
(dp929
g67
(dp930
g94
g95
ssg76
g919
sg69
(lp931
S':'
asbag62
(g83
g64
NtRp932
(dp933
g67
(dp934
sg76
g919
sg69
(lp935
g62
(g63
g64
NtRp936
(dp937
g67
(dp938
g75
I4
ssg76
g932
sg69
(lp939
S'felicity.iiit.ac.in|/web2py'
p940
asbasbasbag62
(g78
g64
NtRp941
(dp942
g67
(dp943
sg76
g457
sg69
(lp944
g62
(g83
g64
NtRp945
(dp946
g67
(dp947
g87
g88
ssg76
g941
sg69
(lp948
S'mod_wsgi_callable_object'
p949
asbag62
(g83
g64
NtRp950
(dp951
g67
(dp952
g94
g95
ssg76
g941
sg69
(lp953
S':'
asbag62
(g83
g64
NtRp954
(dp955
g67
(dp956
sg76
g941
sg69
(lp957
g62
(g63
g64
NtRp958
(dp959
g67
(dp960
g75
I4
ssg76
g954
sg69
(lp961
S'application'
p962
asbasbasbag62
(g78
g64
NtRp963
(dp964
g67
(dp965
sg76
g457
sg69
(lp966
g62
(g83
g64
NtRp967
(dp968
g67
(dp969
g87
g88
ssg76
g963
sg69
(lp970
S'mod_wsgi_handler_script'
p971
asbag62
(g83
g64
NtRp972
(dp973
g67
(dp974
g94
g95
ssg76
g963
sg69
(lp975
S':'
asbag62
(g83
g64
NtRp976
(dp977
g67
(dp978
sg76
g963
sg69
(lp979
g62
(g63
g64
NtRp980
(dp981
g67
(dp982
g75
I4
ssg76
g976
sg69
(lp983
S''
asbasbasbag62
(g78
g64
NtRp984
(dp985
g67
(dp986
sg76
g457
sg69
(lp987
g62
(g83
g64
NtRp988
(dp989
g67
(dp990
g87
g88
ssg76
g984
sg69
(lp991
S'mod_wsgi_input_chunked'
p992
asbag62
(g83
g64
NtRp993
(dp994
g67
(dp995
g94
g95
ssg76
g984
sg69
(lp996
S':'
asbag62
(g83
g64
NtRp997
(dp998
g67
(dp999
sg76
g984
sg69
(lp1000
g62
(g63
g64
NtRp1001
(dp1002
g67
(dp1003
g75
I4
ssg76
g997
sg69
(lp1004
S'0'
asbasbasbag62
(g78
g64
NtRp1005
(dp1006
g67
(dp1007
sg76
g457
sg69
(lp1008
g62
(g83
g64
NtRp1009
(dp1010
g67
(dp1011
g87
g88
ssg76
g1005
sg69
(lp1012
S'mod_wsgi_listener_host'
p1013
asbag62
(g83
g64
NtRp1014
(dp1015
g67
(dp1016
g94
g95
ssg76
g1005
sg69
(lp1017
S':'
asbag62
(g83
g64
NtRp1018
(dp1019
g67
(dp1020
sg76
g1005
sg69
(lp1021
g62
(g63
g64
NtRp1022
(dp1023
g67
(dp1024
g75
I4
ssg76
g1018
sg69
(lp1025
S''
asbasbasbag62
(g78
g64
NtRp1026
(dp1027
g67
(dp1028
sg76
g457
sg69
(lp1029
g62
(g83
g64
NtRp1030
(dp1031
g67
(dp1032
g87
g88
ssg76
g1026
sg69
(lp1033
S'mod_wsgi_listener_port'
p1034
asbag62
(g83
g64
NtRp1035
(dp1036
g67
(dp1037
g94
g95
ssg76
g1026
sg69
(lp1038
S':'
asbag62
(g83
g64
NtRp1039
(dp1040
g67
(dp1041
sg76
g1026
sg69
(lp1042
g62
(g63
g64
NtRp1043
(dp1044
g67
(dp1045
g75
I4
ssg76
g1039
sg69
(lp1046
S'80'
p1047
asbasbasbag62
(g78
g64
NtRp1048
(dp1049
g67
(dp1050
sg76
g457
sg69
(lp1051
g62
(g83
g64
NtRp1052
(dp1053
g67
(dp1054
g87
g88
ssg76
g1048
sg69
(lp1055
S'mod_wsgi_process_group'
p1056
asbag62
(g83
g64
NtRp1057
(dp1058
g67
(dp1059
g94
g95
ssg76
g1048
sg69
(lp1060
S':'
asbag62
(g83
g64
NtRp1061
(dp1062
g67
(dp1063
sg76
g1048
sg69
(lp1064
g62
(g63
g64
NtRp1065
(dp1066
g67
(dp1067
g75
I4
ssg76
g1061
sg69
(lp1068
S'web2py'
p1069
asbasbasbag62
(g78
g64
NtRp1070
(dp1071
g67
(dp1072
sg76
g457
sg69
(lp1073
g62
(g83
g64
NtRp1074
(dp1075
g67
(dp1076
g87
g88
ssg76
g1070
sg69
(lp1077
S'mod_wsgi_request_handler'
p1078
asbag62
(g83
g64
NtRp1079
(dp1080
g67
(dp1081
g94
g95
ssg76
g1070
sg69
(lp1082
S':'
asbag62
(g83
g64
NtRp1083
(dp1084
g67
(dp1085
sg76
g1070
sg69
(lp1086
g62
(g63
g64
NtRp1087
(dp1088
g67
(dp1089
g75
I4
ssg76
g1083
sg69
(lp1090
S'wsgi-script'
p1091
asbasbasbag62
(g78
g64
NtRp1092
(dp1093
g67
(dp1094
sg76
g457
sg69
(lp1095
g62
(g83
g64
NtRp1096
(dp1097
g67
(dp1098
g87
g88
ssg76
g1092
sg69
(lp1099
S'mod_wsgi_script_reloading'
p1100
asbag62
(g83
g64
NtRp1101
(dp1102
g67
(dp1103
g94
g95
ssg76
g1092
sg69
(lp1104
S':'
asbag62
(g83
g64
NtRp1105
(dp1106
g67
(dp1107
sg76
g1092
sg69
(lp1108
g62
(g63
g64
NtRp1109
(dp1110
g67
(dp1111
g75
I4
ssg76
g1105
sg69
(lp1112
S'1'
asbasbasbag62
(g78
g64
NtRp1113
(dp1114
g67
(dp1115
sg76
g457
sg69
(lp1116
g62
(g83
g64
NtRp1117
(dp1118
g67
(dp1119
g87
g88
ssg76
g1113
sg69
(lp1120
S'mod_wsgi_version'
p1121
asbag62
(g83
g64
NtRp1122
(dp1123
g67
(dp1124
g94
g95
ssg76
g1113
sg69
(lp1125
S':'
asbag62
(g83
g64
NtRp1126
(dp1127
g67
(dp1128
sg76
g1113
sg69
(lp1129
g62
(g63
g64
NtRp1130
(dp1131
g67
(dp1132
g75
I4
ssg76
g1126
sg69
(lp1133
g62
(g71
g64
NtRp1134
(dp1135
g67
(dp1136
g75
I3
ssg76
Nsg69
(lp1137
g62
(g78
g64
NtRp1138
(dp1139
g67
(dp1140
sg76
g1134
sg69
(lp1141
g62
(g83
g64
NtRp1142
(dp1143
g67
(dp1144
sg76
g1138
sg69
(lp1145
g62
(g63
g64
NtRp1146
(dp1147
g67
(dp1148
g75
I3
ssg76
g1142
sg69
(lp1149
S'3'
asbasbasbag62
(g78
g64
NtRp1150
(dp1151
g67
(dp1152
sg76
g1134
sg69
(lp1153
g62
(g83
g64
NtRp1154
(dp1155
g67
(dp1156
sg76
g1150
sg69
(lp1157
g62
(g63
g64
NtRp1158
(dp1159
g67
(dp1160
g75
I3
ssg76
g1154
sg69
(lp1161
S'2'
asbasbasbasbasbasbasbag62
(g78
g64
NtRp1162
(dp1163
g67
(dp1164
sg76
g457
sg69
(lp1165
g62
(g83
g64
NtRp1166
(dp1167
g67
(dp1168
g87
g88
ssg76
g1162
sg69
(lp1169
S'path_info'
p1170
asbag62
(g83
g64
NtRp1171
(dp1172
g67
(dp1173
g94
g95
ssg76
g1162
sg69
(lp1174
S':'
asbag62
(g83
g64
NtRp1175
(dp1176
g67
(dp1177
sg76
g1162
sg69
(lp1178
g62
(g63
g64
NtRp1179
(dp1180
g67
(dp1181
g75
I4
ssg76
g1175
sg69
(lp1182
S'/Threads_Beta/default/judge'
p1183
asbasbasbag62
(g78
g64
NtRp1184
(dp1185
g67
(dp1186
sg76
g457
sg69
(lp1187
g62
(g83
g64
NtRp1188
(dp1189
g67
(dp1190
g87
g88
ssg76
g1184
sg69
(lp1191
S'path_translated'
p1192
asbag62
(g83
g64
NtRp1193
(dp1194
g67
(dp1195
g94
g95
ssg76
g1184
sg69
(lp1196
S':'
asbag62
(g83
g64
NtRp1197
(dp1198
g67
(dp1199
sg76
g1184
sg69
(lp1200
g62
(g63
g64
NtRp1201
(dp1202
g67
(dp1203
g75
I4
ssg76
g1197
sg69
(lp1204
S'/var/www/html/Threads_Beta/default/judge'
p1205
asbasbasbag62
(g78
g64
NtRp1206
(dp1207
g67
(dp1208
sg76
g457
sg69
(lp1209
g62
(g83
g64
NtRp1210
(dp1211
g67
(dp1212
g87
g88
ssg76
g1206
sg69
(lp1213
S'query_string'
p1214
asbag62
(g83
g64
NtRp1215
(dp1216
g67
(dp1217
g94
g95
ssg76
g1206
sg69
(lp1218
S':'
asbag62
(g83
g64
NtRp1219
(dp1220
g67
(dp1221
sg76
g1206
sg69
(lp1222
g62
(g63
g64
NtRp1223
(dp1224
g67
(dp1225
g75
I4
ssg76
g1219
sg69
(lp1226
S'event_id=1&question_no=3'
p1227
asbasbasbag62
(g78
g64
NtRp1228
(dp1229
g67
(dp1230
sg76
g457
sg69
(lp1231
g62
(g83
g64
NtRp1232
(dp1233
g67
(dp1234
g87
g88
ssg76
g1228
sg69
(lp1235
S'remote_addr'
p1236
asbag62
(g83
g64
NtRp1237
(dp1238
g67
(dp1239
g94
g95
ssg76
g1228
sg69
(lp1240
S':'
asbag62
(g83
g64
NtRp1241
(dp1242
g67
(dp1243
sg76
g1228
sg69
(lp1244
g62
(g63
g64
NtRp1245
(dp1246
g67
(dp1247
g75
I4
ssg76
g1241
sg69
(lp1248
g195
asbasbasbag62
(g78
g64
NtRp1249
(dp1250
g67
(dp1251
sg76
g457
sg69
(lp1252
g62
(g83
g64
NtRp1253
(dp1254
g67
(dp1255
g87
g88
ssg76
g1249
sg69
(lp1256
S'remote_port'
p1257
asbag62
(g83
g64
NtRp1258
(dp1259
g67
(dp1260
g94
g95
ssg76
g1249
sg69
(lp1261
S':'
asbag62
(g83
g64
NtRp1262
(dp1263
g67
(dp1264
sg76
g1249
sg69
(lp1265
g62
(g63
g64
NtRp1266
(dp1267
g67
(dp1268
g75
I4
ssg76
g1262
sg69
(lp1269
S'38612'
p1270
asbasbasbag62
(g78
g64
NtRp1271
(dp1272
g67
(dp1273
sg76
g457
sg69
(lp1274
g62
(g83
g64
NtRp1275
(dp1276
g67
(dp1277
g87
g88
ssg76
g1271
sg69
(lp1278
S'request_method'
p1279
asbag62
(g83
g64
NtRp1280
(dp1281
g67
(dp1282
g94
g95
ssg76
g1271
sg69
(lp1283
S':'
asbag62
(g83
g64
NtRp1284
(dp1285
g67
(dp1286
sg76
g1271
sg69
(lp1287
g62
(g63
g64
NtRp1288
(dp1289
g67
(dp1290
g75
I4
ssg76
g1284
sg69
(lp1291
S'POST'
p1292
asbasbasbag62
(g78
g64
NtRp1293
(dp1294
g67
(dp1295
sg76
g457
sg69
(lp1296
g62
(g83
g64
NtRp1297
(dp1298
g67
(dp1299
g87
g88
ssg76
g1293
sg69
(lp1300
S'request_uri'
p1301
asbag62
(g83
g64
NtRp1302
(dp1303
g67
(dp1304
g94
g95
ssg76
g1293
sg69
(lp1305
S':'
asbag62
(g83
g64
NtRp1306
(dp1307
g67
(dp1308
sg76
g1293
sg69
(lp1309
g62
(g63
g64
NtRp1310
(dp1311
g67
(dp1312
g75
I4
ssg76
g1306
sg69
(lp1313
S'/Threads_Beta/default/judge?event_id=1&question_no=3'
p1314
asbasbasbag62
(g78
g64
NtRp1315
(dp1316
g67
(dp1317
sg76
g457
sg69
(lp1318
g62
(g83
g64
NtRp1319
(dp1320
g67
(dp1321
g87
g88
ssg76
g1315
sg69
(lp1322
S'script_filename'
p1323
asbag62
(g83
g64
NtRp1324
(dp1325
g67
(dp1326
g94
g95
ssg76
g1315
sg69
(lp1327
S':'
asbag62
(g83
g64
NtRp1328
(dp1329
g67
(dp1330
sg76
g1315
sg69
(lp1331
g62
(g63
g64
NtRp1332
(dp1333
g67
(dp1334
g75
I4
ssg76
g1328
sg69
(lp1335
S'/var/www/web2py/wsgihandler.py'
p1336
asbasbasbag62
(g78
g64
NtRp1337
(dp1338
g67
(dp1339
sg76
g457
sg69
(lp1340
g62
(g83
g64
NtRp1341
(dp1342
g67
(dp1343
g87
g88
ssg76
g1337
sg69
(lp1344
S'script_name'
p1345
asbag62
(g83
g64
NtRp1346
(dp1347
g67
(dp1348
g94
g95
ssg76
g1337
sg69
(lp1349
S':'
asbag62
(g83
g64
NtRp1350
(dp1351
g67
(dp1352
sg76
g1337
sg69
(lp1353
g62
(g63
g64
NtRp1354
(dp1355
g67
(dp1356
g75
I4
ssg76
g1350
sg69
(lp1357
S'/web2py'
p1358
asbasbasbag62
(g78
g64
NtRp1359
(dp1360
g67
(dp1361
sg76
g457
sg69
(lp1362
g62
(g83
g64
NtRp1363
(dp1364
g67
(dp1365
g87
g88
ssg76
g1359
sg69
(lp1366
S'server_addr'
p1367
asbag62
(g83
g64
NtRp1368
(dp1369
g67
(dp1370
g94
g95
ssg76
g1359
sg69
(lp1371
S':'
asbag62
(g83
g64
NtRp1372
(dp1373
g67
(dp1374
sg76
g1359
sg69
(lp1375
g62
(g63
g64
NtRp1376
(dp1377
g67
(dp1378
g75
I4
ssg76
g1372
sg69
(lp1379
S'10.4.3.65'
p1380
asbasbasbag62
(g78
g64
NtRp1381
(dp1382
g67
(dp1383
sg76
g457
sg69
(lp1384
g62
(g83
g64
NtRp1385
(dp1386
g67
(dp1387
g87
g88
ssg76
g1381
sg69
(lp1388
S'server_admin'
p1389
asbag62
(g83
g64
NtRp1390
(dp1391
g67
(dp1392
g94
g95
ssg76
g1381
sg69
(lp1393
S':'
asbag62
(g83
g64
NtRp1394
(dp1395
g67
(dp1396
sg76
g1381
sg69
(lp1397
g62
(g63
g64
NtRp1398
(dp1399
g67
(dp1400
g75
I4
ssg76
g1394
sg69
(lp1401
S'madhavan[dot]chetlur[at]students.iiit.ac.in'
p1402
asbasbasbag62
(g78
g64
NtRp1403
(dp1404
g67
(dp1405
sg76
g457
sg69
(lp1406
g62
(g83
g64
NtRp1407
(dp1408
g67
(dp1409
g87
g88
ssg76
g1403
sg69
(lp1410
S'server_name'
p1411
asbag62
(g83
g64
NtRp1412
(dp1413
g67
(dp1414
g94
g95
ssg76
g1403
sg69
(lp1415
S':'
asbag62
(g83
g64
NtRp1416
(dp1417
g67
(dp1418
sg76
g1403
sg69
(lp1419
g62
(g63
g64
NtRp1420
(dp1421
g67
(dp1422
g75
I4
ssg76
g1416
sg69
(lp1423
S'felicity.iiit.ac.in'
p1424
asbasbasbag62
(g78
g64
NtRp1425
(dp1426
g67
(dp1427
sg76
g457
sg69
(lp1428
g62
(g83
g64
NtRp1429
(dp1430
g67
(dp1431
g87
g88
ssg76
g1425
sg69
(lp1432
S'server_port'
p1433
asbag62
(g83
g64
NtRp1434
(dp1435
g67
(dp1436
g94
g95
ssg76
g1425
sg69
(lp1437
S':'
asbag62
(g83
g64
NtRp1438
(dp1439
g67
(dp1440
sg76
g1425
sg69
(lp1441
g62
(g63
g64
NtRp1442
(dp1443
g67
(dp1444
g75
I4
ssg76
g1438
sg69
(lp1445
S'80'
p1446
asbasbasbag62
(g78
g64
NtRp1447
(dp1448
g67
(dp1449
sg76
g457
sg69
(lp1450
g62
(g83
g64
NtRp1451
(dp1452
g67
(dp1453
g87
g88
ssg76
g1447
sg69
(lp1454
S'server_protocol'
p1455
asbag62
(g83
g64
NtRp1456
(dp1457
g67
(dp1458
g94
g95
ssg76
g1447
sg69
(lp1459
S':'
asbag62
(g83
g64
NtRp1460
(dp1461
g67
(dp1462
sg76
g1447
sg69
(lp1463
g62
(g63
g64
NtRp1464
(dp1465
g67
(dp1466
g75
I4
ssg76
g1460
sg69
(lp1467
S'HTTP/1.1'
p1468
asbasbasbag62
(g78
g64
NtRp1469
(dp1470
g67
(dp1471
sg76
g457
sg69
(lp1472
g62
(g83
g64
NtRp1473
(dp1474
g67
(dp1475
g87
g88
ssg76
g1469
sg69
(lp1476
S'server_signature'
p1477
asbag62
(g83
g64
NtRp1478
(dp1479
g67
(dp1480
g94
g95
ssg76
g1469
sg69
(lp1481
S':'
asbag62
(g83
g64
NtRp1482
(dp1483
g67
(dp1484
sg76
g1469
sg69
(lp1485
g62
(g63
g64
NtRp1486
(dp1487
g67
(dp1488
g75
I4
ssg76
g1482
sg69
(lp1489
S''
asbasbasbag62
(g78
g64
NtRp1490
(dp1491
g67
(dp1492
sg76
g457
sg69
(lp1493
g62
(g83
g64
NtRp1494
(dp1495
g67
(dp1496
g87
g88
ssg76
g1490
sg69
(lp1497
S'server_software'
p1498
asbag62
(g83
g64
NtRp1499
(dp1500
g67
(dp1501
g94
g95
ssg76
g1490
sg69
(lp1502
S':'
asbag62
(g83
g64
NtRp1503
(dp1504
g67
(dp1505
sg76
g1490
sg69
(lp1506
g62
(g63
g64
NtRp1507
(dp1508
g67
(dp1509
g75
I4
ssg76
g1503
sg69
(lp1510
S'Apache'
p1511
asbasbasbag62
(g78
g64
NtRp1512
(dp1513
g67
(dp1514
sg76
g457
sg69
(lp1515
g62
(g83
g64
NtRp1516
(dp1517
g67
(dp1518
g87
g88
ssg76
g1512
sg69
(lp1519
S'web2py_original_uri'
p1520
asbag62
(g83
g64
NtRp1521
(dp1522
g67
(dp1523
g94
g95
ssg76
g1512
sg69
(lp1524
S':'
asbag62
(g83
g64
NtRp1525
(dp1526
g67
(dp1527
sg76
g1512
sg69
(lp1528
g62
(g63
g64
NtRp1529
(dp1530
g67
(dp1531
g75
I4
ssg76
g1525
sg69
(lp1532
S'/Threads_Beta/default/judge?event_id=1&question_no=3'
p1533
asbasbasbag62
(g78
g64
NtRp1534
(dp1535
g67
(dp1536
sg76
g457
sg69
(lp1537
g62
(g83
g64
NtRp1538
(dp1539
g67
(dp1540
g87
g88
ssg76
g1534
sg69
(lp1541
S'web2py_path'
p1542
asbag62
(g83
g64
NtRp1543
(dp1544
g67
(dp1545
g94
g95
ssg76
g1534
sg69
(lp1546
S':'
asbag62
(g83
g64
NtRp1547
(dp1548
g67
(dp1549
sg76
g1534
sg69
(lp1550
g62
(g63
g64
NtRp1551
(dp1552
g67
(dp1553
g75
I4
ssg76
g1547
sg69
(lp1554
g504
asbasbasbag62
(g78
g64
NtRp1555
(dp1556
g67
(dp1557
sg76
g457
sg69
(lp1558
g62
(g83
g64
NtRp1559
(dp1560
g67
(dp1561
g87
g88
ssg76
g1555
sg69
(lp1562
S'web2py_version'
p1563
asbag62
(g83
g64
NtRp1564
(dp1565
g67
(dp1566
g94
g95
ssg76
g1555
sg69
(lp1567
S':'
asbag62
(g83
g64
NtRp1568
(dp1569
g67
(dp1570
sg76
g1555
sg69
(lp1571
g62
(g63
g64
NtRp1572
(dp1573
g67
(dp1574
g75
I4
ssg76
g1568
sg69
(lp1575
g62
(g71
g64
NtRp1576
(dp1577
g67
(dp1578
g75
I3
ssg76
Nsg69
(lp1579
g62
(g78
g64
NtRp1580
(dp1581
g67
(dp1582
sg76
g1576
sg69
(lp1583
g62
(g83
g64
NtRp1584
(dp1585
g67
(dp1586
sg76
g1580
sg69
(lp1587
g62
(g63
g64
NtRp1588
(dp1589
g67
(dp1590
g75
I3
ssg76
g1584
sg69
(lp1591
S'1'
asbasbasbag62
(g78
g64
NtRp1592
(dp1593
g67
(dp1594
sg76
g1576
sg69
(lp1595
g62
(g83
g64
NtRp1596
(dp1597
g67
(dp1598
sg76
g1592
sg69
(lp1599
g62
(g63
g64
NtRp1600
(dp1601
g67
(dp1602
g75
I3
ssg76
g1596
sg69
(lp1603
S'99'
p1604
asbasbasbag62
(g78
g64
NtRp1605
(dp1606
g67
(dp1607
sg76
g1576
sg69
(lp1608
g62
(g83
g64
NtRp1609
(dp1610
g67
(dp1611
sg76
g1605
sg69
(lp1612
g62
(g63
g64
NtRp1613
(dp1614
g67
(dp1615
g75
I3
ssg76
g1609
sg69
(lp1616
S'4'
asbasbasbag62
(g78
g64
NtRp1617
(dp1618
g67
(dp1619
sg76
g1576
sg69
(lp1620
g62
(g83
g64
NtRp1621
(dp1622
g67
(dp1623
sg76
g1617
sg69
(lp1624
g62
(g63
g64
NtRp1625
(dp1626
g67
(dp1627
g75
I3
ssg76
g1621
sg69
(lp1628
S'datetime.datetime(2011, 12, 14, 14, 46, 14)'
p1629
asbasbasbag62
(g78
g64
NtRp1630
(dp1631
g67
(dp1632
sg76
g1576
sg69
(lp1633
g62
(g83
g64
NtRp1634
(dp1635
g67
(dp1636
sg76
g1630
sg69
(lp1637
g62
(g63
g64
NtRp1638
(dp1639
g67
(dp1640
g75
I3
ssg76
g1634
sg69
(lp1641
S'stable'
p1642
asbasbasbasbasbasbasbag62
(g78
g64
NtRp1643
(dp1644
g67
(dp1645
sg76
g457
sg69
(lp1646
g62
(g83
g64
NtRp1647
(dp1648
g67
(dp1649
g87
g88
ssg76
g1643
sg69
(lp1650
S'wsgi_errors'
p1651
asbag62
(g83
g64
NtRp1652
(dp1653
g67
(dp1654
g94
g95
ssg76
g1643
sg69
(lp1655
S':'
asbag62
(g83
g64
NtRp1656
(dp1657
g67
(dp1658
sg76
g1643
sg69
(lp1659
g62
(g63
g64
NtRp1660
(dp1661
g67
(dp1662
g75
I4
ssg76
g1656
sg69
(lp1663
S'<mod_wsgi.Log object at 0x7fba3244ab30>'
p1664
asbasbasbag62
(g78
g64
NtRp1665
(dp1666
g67
(dp1667
sg76
g457
sg69
(lp1668
g62
(g83
g64
NtRp1669
(dp1670
g67
(dp1671
g87
g88
ssg76
g1665
sg69
(lp1672
S'wsgi_file_wrapper'
p1673
asbag62
(g83
g64
NtRp1674
(dp1675
g67
(dp1676
g94
g95
ssg76
g1665
sg69
(lp1677
S':'
asbag62
(g83
g64
NtRp1678
(dp1679
g67
(dp1680
sg76
g1665
sg69
(lp1681
g62
(g63
g64
NtRp1682
(dp1683
g67
(dp1684
g75
I4
ssg76
g1678
sg69
(lp1685
S'<built-in method file_wrapper of mod_wsgi.Adapter object at 0x7fba31ca8738>'
p1686
asbasbasbag62
(g78
g64
NtRp1687
(dp1688
g67
(dp1689
sg76
g457
sg69
(lp1690
g62
(g83
g64
NtRp1691
(dp1692
g67
(dp1693
g87
g88
ssg76
g1687
sg69
(lp1694
S'wsgi_input'
p1695
asbag62
(g83
g64
NtRp1696
(dp1697
g67
(dp1698
g94
g95
ssg76
g1687
sg69
(lp1699
S':'
asbag62
(g83
g64
NtRp1700
(dp1701
g67
(dp1702
sg76
g1687
sg69
(lp1703
g62
(g63
g64
NtRp1704
(dp1705
g67
(dp1706
g75
I4
ssg76
g1700
sg69
(lp1707
S'<mod_wsgi.Input object at 0x7fba3244a8b0>'
p1708
asbasbasbag62
(g78
g64
NtRp1709
(dp1710
g67
(dp1711
sg76
g457
sg69
(lp1712
g62
(g83
g64
NtRp1713
(dp1714
g67
(dp1715
g87
g88
ssg76
g1709
sg69
(lp1716
S'wsgi_multiprocess'
p1717
asbag62
(g83
g64
NtRp1718
(dp1719
g67
(dp1720
g94
g95
ssg76
g1709
sg69
(lp1721
S':'
asbag62
(g83
g64
NtRp1722
(dp1723
g67
(dp1724
sg76
g1709
sg69
(lp1725
g62
(g63
g64
NtRp1726
(dp1727
g67
(dp1728
g75
I4
ssg76
g1722
sg69
(lp1729
g105
asbasbasbag62
(g78
g64
NtRp1730
(dp1731
g67
(dp1732
sg76
g457
sg69
(lp1733
g62
(g83
g64
NtRp1734
(dp1735
g67
(dp1736
g87
g88
ssg76
g1730
sg69
(lp1737
S'wsgi_multithread'
p1738
asbag62
(g83
g64
NtRp1739
(dp1740
g67
(dp1741
g94
g95
ssg76
g1730
sg69
(lp1742
S':'
asbag62
(g83
g64
NtRp1743
(dp1744
g67
(dp1745
sg76
g1730
sg69
(lp1746
g62
(g63
g64
NtRp1747
(dp1748
g67
(dp1749
g75
I4
ssg76
g1743
sg69
(lp1750
S'True'
p1751
asbasbasbag62
(g78
g64
NtRp1752
(dp1753
g67
(dp1754
sg76
g457
sg69
(lp1755
g62
(g83
g64
NtRp1756
(dp1757
g67
(dp1758
g87
g88
ssg76
g1752
sg69
(lp1759
S'wsgi_run_once'
p1760
asbag62
(g83
g64
NtRp1761
(dp1762
g67
(dp1763
g94
g95
ssg76
g1752
sg69
(lp1764
S':'
asbag62
(g83
g64
NtRp1765
(dp1766
g67
(dp1767
sg76
g1752
sg69
(lp1768
g62
(g63
g64
NtRp1769
(dp1770
g67
(dp1771
g75
I4
ssg76
g1765
sg69
(lp1772
g105
asbasbasbag62
(g78
g64
NtRp1773
(dp1774
g67
(dp1775
sg76
g457
sg69
(lp1776
g62
(g83
g64
NtRp1777
(dp1778
g67
(dp1779
g87
g88
ssg76
g1773
sg69
(lp1780
S'wsgi_url_scheme'
p1781
asbag62
(g83
g64
NtRp1782
(dp1783
g67
(dp1784
g94
g95
ssg76
g1773
sg69
(lp1785
S':'
asbag62
(g83
g64
NtRp1786
(dp1787
g67
(dp1788
sg76
g1773
sg69
(lp1789
g62
(g63
g64
NtRp1790
(dp1791
g67
(dp1792
g75
I4
ssg76
g1786
sg69
(lp1793
S'http'
p1794
asbasbasbag62
(g78
g64
NtRp1795
(dp1796
g67
(dp1797
sg76
g457
sg69
(lp1798
g62
(g83
g64
NtRp1799
(dp1800
g67
(dp1801
g87
g88
ssg76
g1795
sg69
(lp1802
S'wsgi_version'
p1803
asbag62
(g83
g64
NtRp1804
(dp1805
g67
(dp1806
g94
g95
ssg76
g1795
sg69
(lp1807
S':'
asbag62
(g83
g64
NtRp1808
(dp1809
g67
(dp1810
sg76
g1795
sg69
(lp1811
g62
(g63
g64
NtRp1812
(dp1813
g67
(dp1814
g75
I4
ssg76
g1808
sg69
(lp1815
g62
(g71
g64
NtRp1816
(dp1817
g67
(dp1818
g75
I3
ssg76
Nsg69
(lp1819
g62
(g78
g64
NtRp1820
(dp1821
g67
(dp1822
sg76
g1816
sg69
(lp1823
g62
(g83
g64
NtRp1824
(dp1825
g67
(dp1826
sg76
g1820
sg69
(lp1827
g62
(g63
g64
NtRp1828
(dp1829
g67
(dp1830
g75
I3
ssg76
g1824
sg69
(lp1831
S'1'
asbasbasbag62
(g78
g64
NtRp1832
(dp1833
g67
(dp1834
sg76
g1816
sg69
(lp1835
g62
(g83
g64
NtRp1836
(dp1837
g67
(dp1838
sg76
g1832
sg69
(lp1839
g62
(g63
g64
NtRp1840
(dp1841
g67
(dp1842
g75
I3
ssg76
g1836
sg69
(lp1843
S'1'
asbasbasbasbasbasbasbasbasbasbasbag62
(g78
g64
NtRp1844
(dp1845
g67
(dp1846
sg76
g72
sg69
(lp1847
g62
(g83
g64
NtRp1848
(dp1849
g67
(dp1850
g87
g88
ssg76
g1844
sg69
(lp1851
S'extension'
p1852
asbag62
(g83
g64
NtRp1853
(dp1854
g67
(dp1855
g94
g95
ssg76
g1844
sg69
(lp1856
S':'
asbag62
(g83
g64
NtRp1857
(dp1858
g67
(dp1859
sg76
g1844
sg69
(lp1860
g62
(g63
g64
NtRp1861
(dp1862
g67
(dp1863
g75
I5
ssg76
g1857
sg69
(lp1864
S'html'
p1865
asbasbasbag62
(g78
g64
NtRp1866
(dp1867
g67
(dp1868
sg76
g72
sg69
(lp1869
g62
(g83
g64
NtRp1870
(dp1871
g67
(dp1872
g87
g88
ssg76
g1866
sg69
(lp1873
S'folder'
p1874
asbag62
(g83
g64
NtRp1875
(dp1876
g67
(dp1877
g94
g95
ssg76
g1866
sg69
(lp1878
S':'
asbag62
(g83
g64
NtRp1879
(dp1880
g67
(dp1881
sg76
g1866
sg69
(lp1882
g62
(g63
g64
NtRp1883
(dp1884
g67
(dp1885
g75
I5
ssg76
g1879
sg69
(lp1886
S'/var/www/web2py/applications/Threads_Beta/'
p1887
asbasbasbag62
(g78
g64
NtRp1888
(dp1889
g67
(dp1890
sg76
g72
sg69
(lp1891
g62
(g83
g64
NtRp1892
(dp1893
g67
(dp1894
g87
g88
ssg76
g1888
sg69
(lp1895
S'function'
p1896
asbag62
(g83
g64
NtRp1897
(dp1898
g67
(dp1899
g94
g95
ssg76
g1888
sg69
(lp1900
S':'
asbag62
(g83
g64
NtRp1901
(dp1902
g67
(dp1903
sg76
g1888
sg69
(lp1904
g62
(g63
g64
NtRp1905
(dp1906
g67
(dp1907
g75
I5
ssg76
g1901
sg69
(lp1908
S'judge'
p1909
asbasbasbag62
(g78
g64
NtRp1910
(dp1911
g67
(dp1912
sg76
g72
sg69
(lp1913
g62
(g83
g64
NtRp1914
(dp1915
g67
(dp1916
g87
g88
ssg76
g1910
sg69
(lp1917
S'get_vars'
p1918
asbag62
(g83
g64
NtRp1919
(dp1920
g67
(dp1921
g94
g95
ssg76
g1910
sg69
(lp1922
S':'
asbag62
(g83
g64
NtRp1923
(dp1924
g67
(dp1925
sg76
g1910
sg69
(lp1926
g62
(g63
g64
NtRp1927
(dp1928
g67
(dp1929
g75
I5
ssg76
g1923
sg69
(lp1930
g62
(g71
g64
NtRp1931
(dp1932
g67
(dp1933
g75
I4
ssg76
Nsg69
(lp1934
g62
(g78
g64
NtRp1935
(dp1936
g67
(dp1937
sg76
g1931
sg69
(lp1938
g62
(g83
g64
NtRp1939
(dp1940
g67
(dp1941
g87
g88
ssg76
g1935
sg69
(lp1942
S'event_id'
p1943
asbag62
(g83
g64
NtRp1944
(dp1945
g67
(dp1946
g94
g95
ssg76
g1935
sg69
(lp1947
S':'
asbag62
(g83
g64
NtRp1948
(dp1949
g67
(dp1950
sg76
g1935
sg69
(lp1951
g62
(g63
g64
NtRp1952
(dp1953
g67
(dp1954
g75
I4
ssg76
g1948
sg69
(lp1955
S'1'
asbasbasbag62
(g78
g64
NtRp1956
(dp1957
g67
(dp1958
sg76
g1931
sg69
(lp1959
g62
(g83
g64
NtRp1960
(dp1961
g67
(dp1962
g87
g88
ssg76
g1956
sg69
(lp1963
S'question_no'
p1964
asbag62
(g83
g64
NtRp1965
(dp1966
g67
(dp1967
g94
g95
ssg76
g1956
sg69
(lp1968
S':'
asbag62
(g83
g64
NtRp1969
(dp1970
g67
(dp1971
sg76
g1956
sg69
(lp1972
g62
(g63
g64
NtRp1973
(dp1974
g67
(dp1975
g75
I4
ssg76
g1969
sg69
(lp1976
S'3'
asbasbasbasbasbasbasbag62
(g78
g64
NtRp1977
(dp1978
g67
(dp1979
sg76
g72
sg69
(lp1980
g62
(g83
g64
NtRp1981
(dp1982
g67
(dp1983
g87
g88
ssg76
g1977
sg69
(lp1984
S'global_settings'
p1985
asbag62
(g83
g64
NtRp1986
(dp1987
g67
(dp1988
g94
g95
ssg76
g1977
sg69
(lp1989
S':'
asbag62
(g83
g64
NtRp1990
(dp1991
g67
(dp1992
sg76
g1977
sg69
(lp1993
g62
(g63
g64
NtRp1994
(dp1995
g67
(dp1996
g75
I5
ssg76
g1990
sg69
(lp1997
g62
(g71
g64
NtRp1998
(dp1999
g67
(dp2000
g75
I4
ssg76
Nsg69
(lp2001
g62
(g78
g64
NtRp2002
(dp2003
g67
(dp2004
sg76
g1998
sg69
(lp2005
g62
(g83
g64
NtRp2006
(dp2007
g67
(dp2008
g87
g88
ssg76
g2002
sg69
(lp2009
g469
asbag62
(g83
g64
NtRp2010
(dp2011
g67
(dp2012
g94
g95
ssg76
g2002
sg69
(lp2013
S':'
asbag62
(g83
g64
NtRp2014
(dp2015
g67
(dp2016
sg76
g2002
sg69
(lp2017
g62
(g63
g64
NtRp2018
(dp2019
g67
(dp2020
g75
I4
ssg76
g2014
sg69
(lp2021
S"set(['/var/www/web2py/applications/Threads_Beta/', '/var/www/web2py/applications/welcome/', '/var/www/web2py/applications/ChatBot_V4/', '/var/www/web2py/applications/admin/'])"
p2022
asbasbasbag62
(g78
g64
NtRp2023
(dp2024
g67
(dp2025
sg76
g1998
sg69
(lp2026
g62
(g83
g64
NtRp2027
(dp2028
g67
(dp2029
g87
g88
ssg76
g2023
sg69
(lp2030
g491
asbag62
(g83
g64
NtRp2031
(dp2032
g67
(dp2033
g94
g95
ssg76
g2023
sg69
(lp2034
S':'
asbag62
(g83
g64
NtRp2035
(dp2036
g67
(dp2037
sg76
g2023
sg69
(lp2038
g62
(g63
g64
NtRp2039
(dp2040
g67
(dp2041
g75
I4
ssg76
g2035
sg69
(lp2042
g504
asbasbasbag62
(g78
g64
NtRp2043
(dp2044
g67
(dp2045
sg76
g1998
sg69
(lp2046
g62
(g83
g64
NtRp2047
(dp2048
g67
(dp2049
g87
g88
ssg76
g2043
sg69
(lp2050
g557
asbag62
(g83
g64
NtRp2051
(dp2052
g67
(dp2053
g94
g95
ssg76
g2043
sg69
(lp2054
S':'
asbag62
(g83
g64
NtRp2055
(dp2056
g67
(dp2057
sg76
g2043
sg69
(lp2058
g62
(g63
g64
NtRp2059
(dp2060
g67
(dp2061
g75
I4
ssg76
g2055
sg69
(lp2062
S'set([])'
p2063
asbasbasbag62
(g78
g64
NtRp2064
(dp2065
g67
(dp2066
sg76
g1998
sg69
(lp2067
g62
(g83
g64
NtRp2068
(dp2069
g67
(dp2070
g87
g88
ssg76
g2064
sg69
(lp2071
g579
asbag62
(g83
g64
NtRp2072
(dp2073
g67
(dp2074
g94
g95
ssg76
g2064
sg69
(lp2075
S':'
asbag62
(g83
g64
NtRp2076
(dp2077
g67
(dp2078
sg76
g2064
sg69
(lp2079
g62
(g63
g64
NtRp2080
(dp2081
g67
(dp2082
g75
I4
ssg76
g2076
sg69
(lp2083
g105
asbasbasbag62
(g78
g64
NtRp2084
(dp2085
g67
(dp2086
sg76
g1998
sg69
(lp2087
g62
(g83
g64
NtRp2088
(dp2089
g67
(dp2090
g87
g88
ssg76
g2084
sg69
(lp2091
g644
asbag62
(g83
g64
NtRp2092
(dp2093
g67
(dp2094
g94
g95
ssg76
g2084
sg69
(lp2095
S':'
asbag62
(g83
g64
NtRp2096
(dp2097
g67
(dp2098
sg76
g2084
sg69
(lp2099
g62
(g63
g64
NtRp2100
(dp2101
g67
(dp2102
g75
I4
ssg76
g2096
sg69
(lp2103
g504
asbasbasbag62
(g78
g64
NtRp2104
(dp2105
g67
(dp2106
sg76
g1998
sg69
(lp2107
g62
(g83
g64
NtRp2108
(dp2109
g67
(dp2110
g87
g88
ssg76
g2104
sg69
(lp2111
g885
asbag62
(g83
g64
NtRp2112
(dp2113
g67
(dp2114
g94
g95
ssg76
g2104
sg69
(lp2115
S':'
asbag62
(g83
g64
NtRp2116
(dp2117
g67
(dp2118
sg76
g2104
sg69
(lp2119
g62
(g63
g64
NtRp2120
(dp2121
g67
(dp2122
g75
I4
ssg76
g2116
sg69
(lp2123
g105
asbasbasbag62
(g78
g64
NtRp2124
(dp2125
g67
(dp2126
sg76
g1998
sg69
(lp2127
g62
(g83
g64
NtRp2128
(dp2129
g67
(dp2130
g87
g88
ssg76
g2124
sg69
(lp2131
g906
asbag62
(g83
g64
NtRp2132
(dp2133
g67
(dp2134
g94
g95
ssg76
g2124
sg69
(lp2135
S':'
asbag62
(g83
g64
NtRp2136
(dp2137
g67
(dp2138
sg76
g2124
sg69
(lp2139
g62
(g63
g64
NtRp2140
(dp2141
g67
(dp2142
g75
I4
ssg76
g2136
sg69
(lp2143
g105
asbasbasbag62
(g78
g64
NtRp2144
(dp2145
g67
(dp2146
sg76
g1998
sg69
(lp2147
g62
(g83
g64
NtRp2148
(dp2149
g67
(dp2150
g87
g88
ssg76
g2144
sg69
(lp2151
g1563
asbag62
(g83
g64
NtRp2152
(dp2153
g67
(dp2154
g94
g95
ssg76
g2144
sg69
(lp2155
S':'
asbag62
(g83
g64
NtRp2156
(dp2157
g67
(dp2158
sg76
g2144
sg69
(lp2159
g62
(g63
g64
NtRp2160
(dp2161
g67
(dp2162
g75
I4
ssg76
g2156
sg69
(lp2163
g62
(g71
g64
NtRp2164
(dp2165
g67
(dp2166
g75
I3
ssg76
Nsg69
(lp2167
g62
(g78
g64
NtRp2168
(dp2169
g67
(dp2170
sg76
g2164
sg69
(lp2171
g62
(g83
g64
NtRp2172
(dp2173
g67
(dp2174
sg76
g2168
sg69
(lp2175
g62
(g63
g64
NtRp2176
(dp2177
g67
(dp2178
g75
I3
ssg76
g2172
sg69
(lp2179
S'1'
asbasbasbag62
(g78
g64
NtRp2180
(dp2181
g67
(dp2182
sg76
g2164
sg69
(lp2183
g62
(g83
g64
NtRp2184
(dp2185
g67
(dp2186
sg76
g2180
sg69
(lp2187
g62
(g63
g64
NtRp2188
(dp2189
g67
(dp2190
g75
I3
ssg76
g2184
sg69
(lp2191
S'99'
p2192
asbasbasbag62
(g78
g64
NtRp2193
(dp2194
g67
(dp2195
sg76
g2164
sg69
(lp2196
g62
(g83
g64
NtRp2197
(dp2198
g67
(dp2199
sg76
g2193
sg69
(lp2200
g62
(g63
g64
NtRp2201
(dp2202
g67
(dp2203
g75
I3
ssg76
g2197
sg69
(lp2204
S'4'
asbasbasbag62
(g78
g64
NtRp2205
(dp2206
g67
(dp2207
sg76
g2164
sg69
(lp2208
g62
(g83
g64
NtRp2209
(dp2210
g67
(dp2211
sg76
g2205
sg69
(lp2212
g62
(g63
g64
NtRp2213
(dp2214
g67
(dp2215
g75
I3
ssg76
g2209
sg69
(lp2216
S'datetime.datetime(2011, 12, 14, 14, 46, 14)'
p2217
asbasbasbag62
(g78
g64
NtRp2218
(dp2219
g67
(dp2220
sg76
g2164
sg69
(lp2221
g62
(g83
g64
NtRp2222
(dp2223
g67
(dp2224
sg76
g2218
sg69
(lp2225
g62
(g63
g64
NtRp2226
(dp2227
g67
(dp2228
g75
I3
ssg76
g2222
sg69
(lp2229
g1642
asbasbasbasbasbasbasbasbasbasbasbag62
(g78
g64
NtRp2230
(dp2231
g67
(dp2232
sg76
g72
sg69
(lp2233
g62
(g83
g64
NtRp2234
(dp2235
g67
(dp2236
g87
g88
ssg76
g2230
sg69
(lp2237
S'is_https'
p2238
asbag62
(g83
g64
NtRp2239
(dp2240
g67
(dp2241
g94
g95
ssg76
g2230
sg69
(lp2242
S':'
asbag62
(g83
g64
NtRp2243
(dp2244
g67
(dp2245
sg76
g2230
sg69
(lp2246
g62
(g63
g64
NtRp2247
(dp2248
g67
(dp2249
g75
I5
ssg76
g2243
sg69
(lp2250
g105
asbasbasbag62
(g78
g64
NtRp2251
(dp2252
g67
(dp2253
sg76
g72
sg69
(lp2254
g62
(g83
g64
NtRp2255
(dp2256
g67
(dp2257
g87
g88
ssg76
g2251
sg69
(lp2258
S'is_local'
p2259
asbag62
(g83
g64
NtRp2260
(dp2261
g67
(dp2262
g94
g95
ssg76
g2251
sg69
(lp2263
S':'
asbag62
(g83
g64
NtRp2264
(dp2265
g67
(dp2266
sg76
g2251
sg69
(lp2267
g62
(g63
g64
NtRp2268
(dp2269
g67
(dp2270
g75
I5
ssg76
g2264
sg69
(lp2271
g105
asbasbasbag62
(g78
g64
NtRp2272
(dp2273
g67
(dp2274
sg76
g72
sg69
(lp2275
g62
(g83
g64
NtRp2276
(dp2277
g67
(dp2278
g87
g88
ssg76
g2272
sg69
(lp2279
S'is_restful'
p2280
asbag62
(g83
g64
NtRp2281
(dp2282
g67
(dp2283
g94
g95
ssg76
g2272
sg69
(lp2284
S':'
asbag62
(g83
g64
NtRp2285
(dp2286
g67
(dp2287
sg76
g2272
sg69
(lp2288
g62
(g63
g64
NtRp2289
(dp2290
g67
(dp2291
g75
I5
ssg76
g2285
sg69
(lp2292
g105
asbasbasbag62
(g78
g64
NtRp2293
(dp2294
g67
(dp2295
sg76
g72
sg69
(lp2296
g62
(g83
g64
NtRp2297
(dp2298
g67
(dp2299
g87
g88
ssg76
g2293
sg69
(lp2300
S'now'
p2301
asbag62
(g83
g64
NtRp2302
(dp2303
g67
(dp2304
g94
g95
ssg76
g2293
sg69
(lp2305
S':'
asbag62
(g83
g64
NtRp2306
(dp2307
g67
(dp2308
sg76
g2293
sg69
(lp2309
g62
(g63
g64
NtRp2310
(dp2311
g67
(dp2312
g75
I5
ssg76
g2306
sg69
(lp2313
S'datetime.datetime(2012, 11, 23, 19, 2, 32, 37488)'
p2314
asbasbasbag62
(g78
g64
NtRp2315
(dp2316
g67
(dp2317
sg76
g72
sg69
(lp2318
g62
(g83
g64
NtRp2319
(dp2320
g67
(dp2321
g87
g88
ssg76
g2315
sg69
(lp2322
S'post_vars'
p2323
asbag62
(g83
g64
NtRp2324
(dp2325
g67
(dp2326
g94
g95
ssg76
g2315
sg69
(lp2327
S':'
asbag62
(g83
g64
NtRp2328
(dp2329
g67
(dp2330
sg76
g2315
sg69
(lp2331
g62
(g63
g64
NtRp2332
(dp2333
g67
(dp2334
g75
I5
ssg76
g2328
sg69
(lp2335
g62
(g71
g64
NtRp2336
(dp2337
g67
(dp2338
g75
I4
ssg76
Nsg69
(lp2339
g62
(g78
g64
NtRp2340
(dp2341
g67
(dp2342
sg76
g2336
sg69
(lp2343
g62
(g83
g64
NtRp2344
(dp2345
g67
(dp2346
g87
g88
ssg76
g2340
sg69
(lp2347
S'file'
p2348
asbag62
(g83
g64
NtRp2349
(dp2350
g67
(dp2351
g94
g95
ssg76
g2340
sg69
(lp2352
S':'
asbag62
(g83
g64
NtRp2353
(dp2354
g67
(dp2355
sg76
g2340
sg69
(lp2356
g62
(g63
g64
NtRp2357
(dp2358
g67
(dp2359
g75
I4
ssg76
g2353
sg69
(lp2360
S'FieldStorage object'
p2361
asbasbasbasbasbasbasbag62
(g78
g64
NtRp2362
(dp2363
g67
(dp2364
sg76
g72
sg69
(lp2365
g62
(g83
g64
NtRp2366
(dp2367
g67
(dp2368
g87
g88
ssg76
g2362
sg69
(lp2369
S'url'
p2370
asbag62
(g83
g64
NtRp2371
(dp2372
g67
(dp2373
g94
g95
ssg76
g2362
sg69
(lp2374
S':'
asbag62
(g83
g64
NtRp2375
(dp2376
g67
(dp2377
sg76
g2362
sg69
(lp2378
g62
(g63
g64
NtRp2379
(dp2380
g67
(dp2381
g75
I5
ssg76
g2375
sg69
(lp2382
S'/web2py/Threads_Beta/default/judge'
p2383
asbasbasbag62
(g78
g64
NtRp2384
(dp2385
g67
(dp2386
sg76
g72
sg69
(lp2387
g62
(g83
g64
NtRp2388
(dp2389
g67
(dp2390
g87
g88
ssg76
g2384
sg69
(lp2391
S'utcnow'
p2392
asbag62
(g83
g64
NtRp2393
(dp2394
g67
(dp2395
g94
g95
ssg76
g2384
sg69
(lp2396
S':'
asbag62
(g83
g64
NtRp2397
(dp2398
g67
(dp2399
sg76
g2384
sg69
(lp2400
g62
(g63
g64
NtRp2401
(dp2402
g67
(dp2403
g75
I5
ssg76
g2397
sg69
(lp2404
S'datetime.datetime(2012, 11, 23, 13, 32, 32, 37520)'
p2405
asbasbasbag62
(g78
g64
NtRp2406
(dp2407
g67
(dp2408
sg76
g72
sg69
(lp2409
g62
(g83
g64
NtRp2410
(dp2411
g67
(dp2412
g87
g88
ssg76
g2406
sg69
(lp2413
S'uuid'
p2414
asbag62
(g83
g64
NtRp2415
(dp2416
g67
(dp2417
g94
g95
ssg76
g2406
sg69
(lp2418
S':'
asbag62
(g83
g64
NtRp2419
(dp2420
g67
(dp2421
sg76
g2406
sg69
(lp2422
g62
(g63
g64
NtRp2423
(dp2424
g67
(dp2425
g75
I5
ssg76
g2419
sg69
(lp2426
S'Threads_Beta/10.1.34.61.2012-11-23.19-02-32.8bbc273d-a53d-4480-8564-6a2cff0f59f3'
p2427
asbasbasbag62
(g78
g64
NtRp2428
(dp2429
g67
(dp2430
sg76
g72
sg69
(lp2431
g62
(g83
g64
NtRp2432
(dp2433
g67
(dp2434
g87
g88
ssg76
g2428
sg69
(lp2435
S'vars'
p2436
asbag62
(g83
g64
NtRp2437
(dp2438
g67
(dp2439
g94
g95
ssg76
g2428
sg69
(lp2440
S':'
asbag62
(g83
g64
NtRp2441
(dp2442
g67
(dp2443
sg76
g2428
sg69
(lp2444
g62
(g63
g64
NtRp2445
(dp2446
g67
(dp2447
g75
I5
ssg76
g2441
sg69
(lp2448
g62
(g71
g64
NtRp2449
(dp2450
g67
(dp2451
g75
I4
ssg76
Nsg69
(lp2452
g62
(g78
g64
NtRp2453
(dp2454
g67
(dp2455
sg76
g2449
sg69
(lp2456
g62
(g83
g64
NtRp2457
(dp2458
g67
(dp2459
g87
g88
ssg76
g2453
sg69
(lp2460
g1943
asbag62
(g83
g64
NtRp2461
(dp2462
g67
(dp2463
g94
g95
ssg76
g2453
sg69
(lp2464
S':'
asbag62
(g83
g64
NtRp2465
(dp2466
g67
(dp2467
sg76
g2453
sg69
(lp2468
g62
(g63
g64
NtRp2469
(dp2470
g67
(dp2471
g75
I4
ssg76
g2465
sg69
(lp2472
S'1'
asbasbasbag62
(g78
g64
NtRp2473
(dp2474
g67
(dp2475
sg76
g2449
sg69
(lp2476
g62
(g83
g64
NtRp2477
(dp2478
g67
(dp2479
g87
g88
ssg76
g2473
sg69
(lp2480
g2348
asbag62
(g83
g64
NtRp2481
(dp2482
g67
(dp2483
g94
g95
ssg76
g2473
sg69
(lp2484
S':'
asbag62
(g83
g64
NtRp2485
(dp2486
g67
(dp2487
sg76
g2473
sg69
(lp2488
g62
(g63
g64
NtRp2489
(dp2490
g67
(dp2491
g75
I4
ssg76
g2485
sg69
(lp2492
g2361
asbasbasbag62
(g78
g64
NtRp2493
(dp2494
g67
(dp2495
sg76
g2449
sg69
(lp2496
g62
(g83
g64
NtRp2497
(dp2498
g67
(dp2499
g87
g88
ssg76
g2493
sg69
(lp2500
g1964
asbag62
(g83
g64
NtRp2501
(dp2502
g67
(dp2503
g94
g95
ssg76
g2493
sg69
(lp2504
S':'
asbag62
(g83
g64
NtRp2505
(dp2506
g67
(dp2507
sg76
g2493
sg69
(lp2508
g62
(g63
g64
NtRp2509
(dp2510
g67
(dp2511
g75
I4
ssg76
g2505
sg69
(lp2512
S'3'
asbasbasbasbasbasbasbag62
(g78
g64
NtRp2513
(dp2514
g67
(dp2515
sg76
g72
sg69
(lp2516
g62
(g83
g64
NtRp2517
(dp2518
g67
(dp2519
g87
g88
ssg76
g2513
sg69
(lp2520
S'wsgi'
p2521
asbag62
(g83
g64
NtRp2522
(dp2523
g67
(dp2524
g94
g95
ssg76
g2513
sg69
(lp2525
S':'
asbag62
(g83
g64
NtRp2526
(dp2527
g67
(dp2528
sg76
g2513
sg69
(lp2529
g62
(g63
g64
NtRp2530
(dp2531
g67
(dp2532
g75
I5
ssg76
g2526
sg69
(lp2533
g62
(g71
g64
NtRp2534
(dp2535
g67
(dp2536
g75
I4
ssg76
Nsg69
(lp2537
g62
(g78
g64
NtRp2538
(dp2539
g67
(dp2540
sg76
g2534
sg69
(lp2541
g62
(g83
g64
NtRp2542
(dp2543
g67
(dp2544
g87
g88
ssg76
g2538
sg69
(lp2545
S'environ'
p2546
asbag62
(g83
g64
NtRp2547
(dp2548
g67
(dp2549
g94
g95
ssg76
g2538
sg69
(lp2550
S':'
asbag62
(g83
g64
NtRp2551
(dp2552
g67
(dp2553
sg76
g2538
sg69
(lp2554
g62
(g63
g64
NtRp2555
(dp2556
g67
(dp2557
g75
I4
ssg76
g2551
sg69
(lp2558
g62
(g71
g64
NtRp2559
(dp2560
g67
(dp2561
g75
I3
ssg76
Nsg69
(lp2562
g62
(g78
g64
NtRp2563
(dp2564
g67
(dp2565
sg76
g2559
sg69
(lp2566
g62
(g83
g64
NtRp2567
(dp2568
g67
(dp2569
g87
g88
ssg76
g2563
sg69
(lp2570
S'CONTENT_LENGTH'
p2571
asbag62
(g83
g64
NtRp2572
(dp2573
g67
(dp2574
g94
g95
ssg76
g2563
sg69
(lp2575
S':'
asbag62
(g83
g64
NtRp2576
(dp2577
g67
(dp2578
sg76
g2563
sg69
(lp2579
g62
(g63
g64
NtRp2580
(dp2581
g67
(dp2582
g75
I3
ssg76
g2576
sg69
(lp2583
g526
asbasbasbag62
(g78
g64
NtRp2584
(dp2585
g67
(dp2586
sg76
g2559
sg69
(lp2587
g62
(g83
g64
NtRp2588
(dp2589
g67
(dp2590
g87
g88
ssg76
g2584
sg69
(lp2591
S'CONTENT_TYPE'
p2592
asbag62
(g83
g64
NtRp2593
(dp2594
g67
(dp2595
g94
g95
ssg76
g2584
sg69
(lp2596
S':'
asbag62
(g83
g64
NtRp2597
(dp2598
g67
(dp2599
sg76
g2584
sg69
(lp2600
g62
(g63
g64
NtRp2601
(dp2602
g67
(dp2603
g75
I3
ssg76
g2597
sg69
(lp2604
g548
asbasbasbag62
(g78
g64
NtRp2605
(dp2606
g67
(dp2607
sg76
g2559
sg69
(lp2608
g62
(g83
g64
NtRp2609
(dp2610
g67
(dp2611
g87
g88
ssg76
g2605
sg69
(lp2612
S'DOCUMENT_ROOT'
p2613
asbag62
(g83
g64
NtRp2614
(dp2615
g67
(dp2616
g94
g95
ssg76
g2605
sg69
(lp2617
S':'
asbag62
(g83
g64
NtRp2618
(dp2619
g67
(dp2620
sg76
g2605
sg69
(lp2621
g62
(g63
g64
NtRp2622
(dp2623
g67
(dp2624
g75
I3
ssg76
g2618
sg69
(lp2625
g613
asbasbasbag62
(g78
g64
NtRp2626
(dp2627
g67
(dp2628
sg76
g2559
sg69
(lp2629
g62
(g83
g64
NtRp2630
(dp2631
g67
(dp2632
g87
g88
ssg76
g2626
sg69
(lp2633
S'GATEWAY_INTERFACE'
p2634
asbag62
(g83
g64
NtRp2635
(dp2636
g67
(dp2637
g94
g95
ssg76
g2626
sg69
(lp2638
S':'
asbag62
(g83
g64
NtRp2639
(dp2640
g67
(dp2641
sg76
g2626
sg69
(lp2642
g62
(g63
g64
NtRp2643
(dp2644
g67
(dp2645
g75
I3
ssg76
g2639
sg69
(lp2646
g635
asbasbasbag62
(g78
g64
NtRp2647
(dp2648
g67
(dp2649
sg76
g2559
sg69
(lp2650
g62
(g83
g64
NtRp2651
(dp2652
g67
(dp2653
g87
g88
ssg76
g2647
sg69
(lp2654
S'HTTP_ACCEPT'
p2655
asbag62
(g83
g64
NtRp2656
(dp2657
g67
(dp2658
g94
g95
ssg76
g2647
sg69
(lp2659
S':'
asbag62
(g83
g64
NtRp2660
(dp2661
g67
(dp2662
sg76
g2647
sg69
(lp2663
g62
(g63
g64
NtRp2664
(dp2665
g67
(dp2666
g75
I3
ssg76
g2660
sg69
(lp2667
g678
asbasbasbag62
(g78
g64
NtRp2668
(dp2669
g67
(dp2670
sg76
g2559
sg69
(lp2671
g62
(g83
g64
NtRp2672
(dp2673
g67
(dp2674
g87
g88
ssg76
g2668
sg69
(lp2675
S'HTTP_ACCEPT_ENCODING'
p2676
asbag62
(g83
g64
NtRp2677
(dp2678
g67
(dp2679
g94
g95
ssg76
g2668
sg69
(lp2680
S':'
asbag62
(g83
g64
NtRp2681
(dp2682
g67
(dp2683
sg76
g2668
sg69
(lp2684
g62
(g63
g64
NtRp2685
(dp2686
g67
(dp2687
g75
I3
ssg76
g2681
sg69
(lp2688
g700
asbasbasbag62
(g78
g64
NtRp2689
(dp2690
g67
(dp2691
sg76
g2559
sg69
(lp2692
g62
(g83
g64
NtRp2693
(dp2694
g67
(dp2695
g87
g88
ssg76
g2689
sg69
(lp2696
S'HTTP_ACCEPT_LANGUAGE'
p2697
asbag62
(g83
g64
NtRp2698
(dp2699
g67
(dp2700
g94
g95
ssg76
g2689
sg69
(lp2701
S':'
asbag62
(g83
g64
NtRp2702
(dp2703
g67
(dp2704
sg76
g2689
sg69
(lp2705
g62
(g63
g64
NtRp2706
(dp2707
g67
(dp2708
g75
I3
ssg76
g2702
sg69
(lp2709
g722
asbasbasbag62
(g78
g64
NtRp2710
(dp2711
g67
(dp2712
sg76
g2559
sg69
(lp2713
g62
(g83
g64
NtRp2714
(dp2715
g67
(dp2716
g87
g88
ssg76
g2710
sg69
(lp2717
S'HTTP_CACHE_CONTROL'
p2718
asbag62
(g83
g64
NtRp2719
(dp2720
g67
(dp2721
g94
g95
ssg76
g2710
sg69
(lp2722
S':'
asbag62
(g83
g64
NtRp2723
(dp2724
g67
(dp2725
sg76
g2710
sg69
(lp2726
g62
(g63
g64
NtRp2727
(dp2728
g67
(dp2729
g75
I3
ssg76
g2723
sg69
(lp2730
g744
asbasbasbag62
(g78
g64
NtRp2731
(dp2732
g67
(dp2733
sg76
g2559
sg69
(lp2734
g62
(g83
g64
NtRp2735
(dp2736
g67
(dp2737
g87
g88
ssg76
g2731
sg69
(lp2738
S'HTTP_CONNECTION'
p2739
asbag62
(g83
g64
NtRp2740
(dp2741
g67
(dp2742
g94
g95
ssg76
g2731
sg69
(lp2743
S':'
asbag62
(g83
g64
NtRp2744
(dp2745
g67
(dp2746
sg76
g2731
sg69
(lp2747
g62
(g63
g64
NtRp2748
(dp2749
g67
(dp2750
g75
I3
ssg76
g2744
sg69
(lp2751
g766
asbasbasbag62
(g78
g64
NtRp2752
(dp2753
g67
(dp2754
sg76
g2559
sg69
(lp2755
g62
(g83
g64
NtRp2756
(dp2757
g67
(dp2758
g87
g88
ssg76
g2752
sg69
(lp2759
S'HTTP_COOKIE'
p2760
asbag62
(g83
g64
NtRp2761
(dp2762
g67
(dp2763
g94
g95
ssg76
g2752
sg69
(lp2764
S':'
asbag62
(g83
g64
NtRp2765
(dp2766
g67
(dp2767
sg76
g2752
sg69
(lp2768
g62
(g63
g64
NtRp2769
(dp2770
g67
(dp2771
g75
I3
ssg76
g2765
sg69
(lp2772
g788
asbasbasbag62
(g78
g64
NtRp2773
(dp2774
g67
(dp2775
sg76
g2559
sg69
(lp2776
g62
(g83
g64
NtRp2777
(dp2778
g67
(dp2779
g87
g88
ssg76
g2773
sg69
(lp2780
S'HTTP_HOST'
p2781
asbag62
(g83
g64
NtRp2782
(dp2783
g67
(dp2784
g94
g95
ssg76
g2773
sg69
(lp2785
S':'
asbag62
(g83
g64
NtRp2786
(dp2787
g67
(dp2788
sg76
g2773
sg69
(lp2789
g62
(g63
g64
NtRp2790
(dp2791
g67
(dp2792
g75
I3
ssg76
g2786
sg69
(lp2793
g810
asbasbasbag62
(g78
g64
NtRp2794
(dp2795
g67
(dp2796
sg76
g2559
sg69
(lp2797
g62
(g83
g64
NtRp2798
(dp2799
g67
(dp2800
g87
g88
ssg76
g2794
sg69
(lp2801
S'HTTP_PRAGMA'
p2802
asbag62
(g83
g64
NtRp2803
(dp2804
g67
(dp2805
g94
g95
ssg76
g2794
sg69
(lp2806
S':'
asbag62
(g83
g64
NtRp2807
(dp2808
g67
(dp2809
sg76
g2794
sg69
(lp2810
g62
(g63
g64
NtRp2811
(dp2812
g67
(dp2813
g75
I3
ssg76
g2807
sg69
(lp2814
g832
asbasbasbag62
(g78
g64
NtRp2815
(dp2816
g67
(dp2817
sg76
g2559
sg69
(lp2818
g62
(g83
g64
NtRp2819
(dp2820
g67
(dp2821
g87
g88
ssg76
g2815
sg69
(lp2822
S'HTTP_REFERER'
p2823
asbag62
(g83
g64
NtRp2824
(dp2825
g67
(dp2826
g94
g95
ssg76
g2815
sg69
(lp2827
S':'
asbag62
(g83
g64
NtRp2828
(dp2829
g67
(dp2830
sg76
g2815
sg69
(lp2831
g62
(g63
g64
NtRp2832
(dp2833
g67
(dp2834
g75
I3
ssg76
g2828
sg69
(lp2835
g854
asbasbasbag62
(g78
g64
NtRp2836
(dp2837
g67
(dp2838
sg76
g2559
sg69
(lp2839
g62
(g83
g64
NtRp2840
(dp2841
g67
(dp2842
g87
g88
ssg76
g2836
sg69
(lp2843
S'HTTP_USER_AGENT'
p2844
asbag62
(g83
g64
NtRp2845
(dp2846
g67
(dp2847
g94
g95
ssg76
g2836
sg69
(lp2848
S':'
asbag62
(g83
g64
NtRp2849
(dp2850
g67
(dp2851
sg76
g2836
sg69
(lp2852
g62
(g63
g64
NtRp2853
(dp2854
g67
(dp2855
g75
I3
ssg76
g2849
sg69
(lp2856
g876
asbasbasbag62
(g78
g64
NtRp2857
(dp2858
g67
(dp2859
sg76
g2559
sg69
(lp2860
g62
(g83
g64
NtRp2861
(dp2862
g67
(dp2863
g87
g88
ssg76
g2857
sg69
(lp2864
S'PATH_INFO'
p2865
asbag62
(g83
g64
NtRp2866
(dp2867
g67
(dp2868
g94
g95
ssg76
g2857
sg69
(lp2869
S':'
asbag62
(g83
g64
NtRp2870
(dp2871
g67
(dp2872
sg76
g2857
sg69
(lp2873
g62
(g63
g64
NtRp2874
(dp2875
g67
(dp2876
g75
I3
ssg76
g2870
sg69
(lp2877
g1183
asbasbasbag62
(g78
g64
NtRp2878
(dp2879
g67
(dp2880
sg76
g2559
sg69
(lp2881
g62
(g83
g64
NtRp2882
(dp2883
g67
(dp2884
g87
g88
ssg76
g2878
sg69
(lp2885
S'PATH_TRANSLATED'
p2886
asbag62
(g83
g64
NtRp2887
(dp2888
g67
(dp2889
g94
g95
ssg76
g2878
sg69
(lp2890
S':'
asbag62
(g83
g64
NtRp2891
(dp2892
g67
(dp2893
sg76
g2878
sg69
(lp2894
g62
(g63
g64
NtRp2895
(dp2896
g67
(dp2897
g75
I3
ssg76
g2891
sg69
(lp2898
g1205
asbasbasbag62
(g78
g64
NtRp2899
(dp2900
g67
(dp2901
sg76
g2559
sg69
(lp2902
g62
(g83
g64
NtRp2903
(dp2904
g67
(dp2905
g87
g88
ssg76
g2899
sg69
(lp2906
S'QUERY_STRING'
p2907
asbag62
(g83
g64
NtRp2908
(dp2909
g67
(dp2910
g94
g95
ssg76
g2899
sg69
(lp2911
S':'
asbag62
(g83
g64
NtRp2912
(dp2913
g67
(dp2914
sg76
g2899
sg69
(lp2915
g62
(g63
g64
NtRp2916
(dp2917
g67
(dp2918
g75
I3
ssg76
g2912
sg69
(lp2919
g1227
asbasbasbag62
(g78
g64
NtRp2920
(dp2921
g67
(dp2922
sg76
g2559
sg69
(lp2923
g62
(g83
g64
NtRp2924
(dp2925
g67
(dp2926
g87
g88
ssg76
g2920
sg69
(lp2927
S'REMOTE_ADDR'
p2928
asbag62
(g83
g64
NtRp2929
(dp2930
g67
(dp2931
g94
g95
ssg76
g2920
sg69
(lp2932
S':'
asbag62
(g83
g64
NtRp2933
(dp2934
g67
(dp2935
sg76
g2920
sg69
(lp2936
g62
(g63
g64
NtRp2937
(dp2938
g67
(dp2939
g75
I3
ssg76
g2933
sg69
(lp2940
g195
asbasbasbag62
(g78
g64
NtRp2941
(dp2942
g67
(dp2943
sg76
g2559
sg69
(lp2944
g62
(g83
g64
NtRp2945
(dp2946
g67
(dp2947
g87
g88
ssg76
g2941
sg69
(lp2948
S'REMOTE_PORT'
p2949
asbag62
(g83
g64
NtRp2950
(dp2951
g67
(dp2952
g94
g95
ssg76
g2941
sg69
(lp2953
S':'
asbag62
(g83
g64
NtRp2954
(dp2955
g67
(dp2956
sg76
g2941
sg69
(lp2957
g62
(g63
g64
NtRp2958
(dp2959
g67
(dp2960
g75
I3
ssg76
g2954
sg69
(lp2961
g1270
asbasbasbag62
(g78
g64
NtRp2962
(dp2963
g67
(dp2964
sg76
g2559
sg69
(lp2965
g62
(g83
g64
NtRp2966
(dp2967
g67
(dp2968
g87
g88
ssg76
g2962
sg69
(lp2969
S'REQUEST_METHOD'
p2970
asbag62
(g83
g64
NtRp2971
(dp2972
g67
(dp2973
g94
g95
ssg76
g2962
sg69
(lp2974
S':'
asbag62
(g83
g64
NtRp2975
(dp2976
g67
(dp2977
sg76
g2962
sg69
(lp2978
g62
(g63
g64
NtRp2979
(dp2980
g67
(dp2981
g75
I3
ssg76
g2975
sg69
(lp2982
g1292
asbasbasbag62
(g78
g64
NtRp2983
(dp2984
g67
(dp2985
sg76
g2559
sg69
(lp2986
g62
(g83
g64
NtRp2987
(dp2988
g67
(dp2989
g87
g88
ssg76
g2983
sg69
(lp2990
S'REQUEST_URI'
p2991
asbag62
(g83
g64
NtRp2992
(dp2993
g67
(dp2994
g94
g95
ssg76
g2983
sg69
(lp2995
S':'
asbag62
(g83
g64
NtRp2996
(dp2997
g67
(dp2998
sg76
g2983
sg69
(lp2999
g62
(g63
g64
NtRp3000
(dp3001
g67
(dp3002
g75
I3
ssg76
g2996
sg69
(lp3003
g1314
asbasbasbag62
(g78
g64
NtRp3004
(dp3005
g67
(dp3006
sg76
g2559
sg69
(lp3007
g62
(g83
g64
NtRp3008
(dp3009
g67
(dp3010
g87
g88
ssg76
g3004
sg69
(lp3011
S'SCRIPT_FILENAME'
p3012
asbag62
(g83
g64
NtRp3013
(dp3014
g67
(dp3015
g94
g95
ssg76
g3004
sg69
(lp3016
S':'
asbag62
(g83
g64
NtRp3017
(dp3018
g67
(dp3019
sg76
g3004
sg69
(lp3020
g62
(g63
g64
NtRp3021
(dp3022
g67
(dp3023
g75
I3
ssg76
g3017
sg69
(lp3024
g1336
asbasbasbag62
(g78
g64
NtRp3025
(dp3026
g67
(dp3027
sg76
g2559
sg69
(lp3028
g62
(g83
g64
NtRp3029
(dp3030
g67
(dp3031
g87
g88
ssg76
g3025
sg69
(lp3032
S'SCRIPT_NAME'
p3033
asbag62
(g83
g64
NtRp3034
(dp3035
g67
(dp3036
g94
g95
ssg76
g3025
sg69
(lp3037
S':'
asbag62
(g83
g64
NtRp3038
(dp3039
g67
(dp3040
sg76
g3025
sg69
(lp3041
g62
(g63
g64
NtRp3042
(dp3043
g67
(dp3044
g75
I3
ssg76
g3038
sg69
(lp3045
g1358
asbasbasbag62
(g78
g64
NtRp3046
(dp3047
g67
(dp3048
sg76
g2559
sg69
(lp3049
g62
(g83
g64
NtRp3050
(dp3051
g67
(dp3052
g87
g88
ssg76
g3046
sg69
(lp3053
S'SERVER_ADDR'
p3054
asbag62
(g83
g64
NtRp3055
(dp3056
g67
(dp3057
g94
g95
ssg76
g3046
sg69
(lp3058
S':'
asbag62
(g83
g64
NtRp3059
(dp3060
g67
(dp3061
sg76
g3046
sg69
(lp3062
g62
(g63
g64
NtRp3063
(dp3064
g67
(dp3065
g75
I3
ssg76
g3059
sg69
(lp3066
g1380
asbasbasbag62
(g78
g64
NtRp3067
(dp3068
g67
(dp3069
sg76
g2559
sg69
(lp3070
g62
(g83
g64
NtRp3071
(dp3072
g67
(dp3073
g87
g88
ssg76
g3067
sg69
(lp3074
S'SERVER_ADMIN'
p3075
asbag62
(g83
g64
NtRp3076
(dp3077
g67
(dp3078
g94
g95
ssg76
g3067
sg69
(lp3079
S':'
asbag62
(g83
g64
NtRp3080
(dp3081
g67
(dp3082
sg76
g3067
sg69
(lp3083
g62
(g63
g64
NtRp3084
(dp3085
g67
(dp3086
g75
I3
ssg76
g3080
sg69
(lp3087
g1402
asbasbasbag62
(g78
g64
NtRp3088
(dp3089
g67
(dp3090
sg76
g2559
sg69
(lp3091
g62
(g83
g64
NtRp3092
(dp3093
g67
(dp3094
g87
g88
ssg76
g3088
sg69
(lp3095
S'SERVER_NAME'
p3096
asbag62
(g83
g64
NtRp3097
(dp3098
g67
(dp3099
g94
g95
ssg76
g3088
sg69
(lp3100
S':'
asbag62
(g83
g64
NtRp3101
(dp3102
g67
(dp3103
sg76
g3088
sg69
(lp3104
g62
(g63
g64
NtRp3105
(dp3106
g67
(dp3107
g75
I3
ssg76
g3101
sg69
(lp3108
g1424
asbasbasbag62
(g78
g64
NtRp3109
(dp3110
g67
(dp3111
sg76
g2559
sg69
(lp3112
g62
(g83
g64
NtRp3113
(dp3114
g67
(dp3115
g87
g88
ssg76
g3109
sg69
(lp3116
S'SERVER_PORT'
p3117
asbag62
(g83
g64
NtRp3118
(dp3119
g67
(dp3120
g94
g95
ssg76
g3109
sg69
(lp3121
S':'
asbag62
(g83
g64
NtRp3122
(dp3123
g67
(dp3124
sg76
g3109
sg69
(lp3125
g62
(g63
g64
NtRp3126
(dp3127
g67
(dp3128
g75
I3
ssg76
g3122
sg69
(lp3129
g1446
asbasbasbag62
(g78
g64
NtRp3130
(dp3131
g67
(dp3132
sg76
g2559
sg69
(lp3133
g62
(g83
g64
NtRp3134
(dp3135
g67
(dp3136
g87
g88
ssg76
g3130
sg69
(lp3137
S'SERVER_PROTOCOL'
p3138
asbag62
(g83
g64
NtRp3139
(dp3140
g67
(dp3141
g94
g95
ssg76
g3130
sg69
(lp3142
S':'
asbag62
(g83
g64
NtRp3143
(dp3144
g67
(dp3145
sg76
g3130
sg69
(lp3146
g62
(g63
g64
NtRp3147
(dp3148
g67
(dp3149
g75
I3
ssg76
g3143
sg69
(lp3150
g1468
asbasbasbag62
(g78
g64
NtRp3151
(dp3152
g67
(dp3153
sg76
g2559
sg69
(lp3154
g62
(g83
g64
NtRp3155
(dp3156
g67
(dp3157
g87
g88
ssg76
g3151
sg69
(lp3158
S'SERVER_SIGNATURE'
p3159
asbag62
(g83
g64
NtRp3160
(dp3161
g67
(dp3162
g94
g95
ssg76
g3151
sg69
(lp3163
S':'
asbag62
(g83
g64
NtRp3164
(dp3165
g67
(dp3166
sg76
g3151
sg69
(lp3167
g62
(g63
g64
NtRp3168
(dp3169
g67
(dp3170
g75
I3
ssg76
g3164
sg69
(lp3171
S''
asbasbasbag62
(g78
g64
NtRp3172
(dp3173
g67
(dp3174
sg76
g2559
sg69
(lp3175
g62
(g83
g64
NtRp3176
(dp3177
g67
(dp3178
g87
g88
ssg76
g3172
sg69
(lp3179
S'SERVER_SOFTWARE'
p3180
asbag62
(g83
g64
NtRp3181
(dp3182
g67
(dp3183
g94
g95
ssg76
g3172
sg69
(lp3184
S':'
asbag62
(g83
g64
NtRp3185
(dp3186
g67
(dp3187
sg76
g3172
sg69
(lp3188
g62
(g63
g64
NtRp3189
(dp3190
g67
(dp3191
g75
I3
ssg76
g3185
sg69
(lp3192
g1511
asbasbasbag62
(g78
g64
NtRp3193
(dp3194
g67
(dp3195
sg76
g2559
sg69
(lp3196
g62
(g83
g64
NtRp3197
(dp3198
g67
(dp3199
g87
g88
ssg76
g3193
sg69
(lp3200
S'WEB2PY_ORIGINAL_URI'
p3201
asbag62
(g83
g64
NtRp3202
(dp3203
g67
(dp3204
g94
g95
ssg76
g3193
sg69
(lp3205
S':'
asbag62
(g83
g64
NtRp3206
(dp3207
g67
(dp3208
sg76
g3193
sg69
(lp3209
g62
(g63
g64
NtRp3210
(dp3211
g67
(dp3212
g75
I3
ssg76
g3206
sg69
(lp3213
g1533
asbasbasbag62
(g78
g64
NtRp3214
(dp3215
g67
(dp3216
sg76
g2559
sg69
(lp3217
g62
(g83
g64
NtRp3218
(dp3219
g67
(dp3220
g87
g88
ssg76
g3214
sg69
(lp3221
S'mod_wsgi.application_group'
p3222
asbag62
(g83
g64
NtRp3223
(dp3224
g67
(dp3225
g94
g95
ssg76
g3214
sg69
(lp3226
S':'
asbag62
(g83
g64
NtRp3227
(dp3228
g67
(dp3229
sg76
g3214
sg69
(lp3230
g62
(g63
g64
NtRp3231
(dp3232
g67
(dp3233
g75
I3
ssg76
g3227
sg69
(lp3234
g940
asbasbasbag62
(g78
g64
NtRp3235
(dp3236
g67
(dp3237
sg76
g2559
sg69
(lp3238
g62
(g83
g64
NtRp3239
(dp3240
g67
(dp3241
g87
g88
ssg76
g3235
sg69
(lp3242
S'mod_wsgi.callable_object'
p3243
asbag62
(g83
g64
NtRp3244
(dp3245
g67
(dp3246
g94
g95
ssg76
g3235
sg69
(lp3247
S':'
asbag62
(g83
g64
NtRp3248
(dp3249
g67
(dp3250
sg76
g3235
sg69
(lp3251
g62
(g63
g64
NtRp3252
(dp3253
g67
(dp3254
g75
I3
ssg76
g3248
sg69
(lp3255
g962
asbasbasbag62
(g78
g64
NtRp3256
(dp3257
g67
(dp3258
sg76
g2559
sg69
(lp3259
g62
(g83
g64
NtRp3260
(dp3261
g67
(dp3262
g87
g88
ssg76
g3256
sg69
(lp3263
S'mod_wsgi.handler_script'
p3264
asbag62
(g83
g64
NtRp3265
(dp3266
g67
(dp3267
g94
g95
ssg76
g3256
sg69
(lp3268
S':'
asbag62
(g83
g64
NtRp3269
(dp3270
g67
(dp3271
sg76
g3256
sg69
(lp3272
g62
(g63
g64
NtRp3273
(dp3274
g67
(dp3275
g75
I3
ssg76
g3269
sg69
(lp3276
S''
asbasbasbag62
(g78
g64
NtRp3277
(dp3278
g67
(dp3279
sg76
g2559
sg69
(lp3280
g62
(g83
g64
NtRp3281
(dp3282
g67
(dp3283
g87
g88
ssg76
g3277
sg69
(lp3284
S'mod_wsgi.input_chunked'
p3285
asbag62
(g83
g64
NtRp3286
(dp3287
g67
(dp3288
g94
g95
ssg76
g3277
sg69
(lp3289
S':'
asbag62
(g83
g64
NtRp3290
(dp3291
g67
(dp3292
sg76
g3277
sg69
(lp3293
g62
(g63
g64
NtRp3294
(dp3295
g67
(dp3296
g75
I3
ssg76
g3290
sg69
(lp3297
S'0'
asbasbasbag62
(g78
g64
NtRp3298
(dp3299
g67
(dp3300
sg76
g2559
sg69
(lp3301
g62
(g83
g64
NtRp3302
(dp3303
g67
(dp3304
g87
g88
ssg76
g3298
sg69
(lp3305
S'mod_wsgi.listener_host'
p3306
asbag62
(g83
g64
NtRp3307
(dp3308
g67
(dp3309
g94
g95
ssg76
g3298
sg69
(lp3310
S':'
asbag62
(g83
g64
NtRp3311
(dp3312
g67
(dp3313
sg76
g3298
sg69
(lp3314
g62
(g63
g64
NtRp3315
(dp3316
g67
(dp3317
g75
I3
ssg76
g3311
sg69
(lp3318
S''
asbasbasbag62
(g78
g64
NtRp3319
(dp3320
g67
(dp3321
sg76
g2559
sg69
(lp3322
g62
(g83
g64
NtRp3323
(dp3324
g67
(dp3325
g87
g88
ssg76
g3319
sg69
(lp3326
S'mod_wsgi.listener_port'
p3327
asbag62
(g83
g64
NtRp3328
(dp3329
g67
(dp3330
g94
g95
ssg76
g3319
sg69
(lp3331
S':'
asbag62
(g83
g64
NtRp3332
(dp3333
g67
(dp3334
sg76
g3319
sg69
(lp3335
g62
(g63
g64
NtRp3336
(dp3337
g67
(dp3338
g75
I3
ssg76
g3332
sg69
(lp3339
g1047
asbasbasbag62
(g78
g64
NtRp3340
(dp3341
g67
(dp3342
sg76
g2559
sg69
(lp3343
g62
(g83
g64
NtRp3344
(dp3345
g67
(dp3346
g87
g88
ssg76
g3340
sg69
(lp3347
S'mod_wsgi.process_group'
p3348
asbag62
(g83
g64
NtRp3349
(dp3350
g67
(dp3351
g94
g95
ssg76
g3340
sg69
(lp3352
S':'
asbag62
(g83
g64
NtRp3353
(dp3354
g67
(dp3355
sg76
g3340
sg69
(lp3356
g62
(g63
g64
NtRp3357
(dp3358
g67
(dp3359
g75
I3
ssg76
g3353
sg69
(lp3360
g1069
asbasbasbag62
(g78
g64
NtRp3361
(dp3362
g67
(dp3363
sg76
g2559
sg69
(lp3364
g62
(g83
g64
NtRp3365
(dp3366
g67
(dp3367
g87
g88
ssg76
g3361
sg69
(lp3368
S'mod_wsgi.request_handler'
p3369
asbag62
(g83
g64
NtRp3370
(dp3371
g67
(dp3372
g94
g95
ssg76
g3361
sg69
(lp3373
S':'
asbag62
(g83
g64
NtRp3374
(dp3375
g67
(dp3376
sg76
g3361
sg69
(lp3377
g62
(g63
g64
NtRp3378
(dp3379
g67
(dp3380
g75
I3
ssg76
g3374
sg69
(lp3381
g1091
asbasbasbag62
(g78
g64
NtRp3382
(dp3383
g67
(dp3384
sg76
g2559
sg69
(lp3385
g62
(g83
g64
NtRp3386
(dp3387
g67
(dp3388
g87
g88
ssg76
g3382
sg69
(lp3389
S'mod_wsgi.script_reloading'
p3390
asbag62
(g83
g64
NtRp3391
(dp3392
g67
(dp3393
g94
g95
ssg76
g3382
sg69
(lp3394
S':'
asbag62
(g83
g64
NtRp3395
(dp3396
g67
(dp3397
sg76
g3382
sg69
(lp3398
g62
(g63
g64
NtRp3399
(dp3400
g67
(dp3401
g75
I3
ssg76
g3395
sg69
(lp3402
S'1'
asbasbasbag62
(g78
g64
NtRp3403
(dp3404
g67
(dp3405
sg76
g2559
sg69
(lp3406
g62
(g83
g64
NtRp3407
(dp3408
g67
(dp3409
g87
g88
ssg76
g3403
sg69
(lp3410
S'mod_wsgi.version'
p3411
asbag62
(g83
g64
NtRp3412
(dp3413
g67
(dp3414
g94
g95
ssg76
g3403
sg69
(lp3415
S':'
asbag62
(g83
g64
NtRp3416
(dp3417
g67
(dp3418
sg76
g3403
sg69
(lp3419
g62
(g63
g64
NtRp3420
(dp3421
g67
(dp3422
g75
I3
ssg76
g3416
sg69
(lp3423
g62
(g71
g64
NtRp3424
(dp3425
g67
(dp3426
g75
I2
ssg76
Nsg69
(lp3427
g62
(g78
g64
NtRp3428
(dp3429
g67
(dp3430
sg76
g3424
sg69
(lp3431
g62
(g83
g64
NtRp3432
(dp3433
g67
(dp3434
sg76
g3428
sg69
(lp3435
g62
(g63
g64
NtRp3436
(dp3437
g67
(dp3438
g75
I2
ssg76
g3432
sg69
(lp3439
S'3'
asbasbasbag62
(g78
g64
NtRp3440
(dp3441
g67
(dp3442
sg76
g3424
sg69
(lp3443
g62
(g83
g64
NtRp3444
(dp3445
g67
(dp3446
sg76
g3440
sg69
(lp3447
g62
(g63
g64
NtRp3448
(dp3449
g67
(dp3450
g75
I2
ssg76
g3444
sg69
(lp3451
S'2'
asbasbasbasbasbasbasbag62
(g78
g64
NtRp3452
(dp3453
g67
(dp3454
sg76
g2559
sg69
(lp3455
g62
(g83
g64
NtRp3456
(dp3457
g67
(dp3458
g87
g88
ssg76
g3452
sg69
(lp3459
S'wsgi.errors'
p3460
asbag62
(g83
g64
NtRp3461
(dp3462
g67
(dp3463
g94
g95
ssg76
g3452
sg69
(lp3464
S':'
asbag62
(g83
g64
NtRp3465
(dp3466
g67
(dp3467
sg76
g3452
sg69
(lp3468
g62
(g63
g64
NtRp3469
(dp3470
g67
(dp3471
g75
I3
ssg76
g3465
sg69
(lp3472
S'<mod_wsgi.Log object at 0x7fba3244ab30>'
p3473
asbasbasbag62
(g78
g64
NtRp3474
(dp3475
g67
(dp3476
sg76
g2559
sg69
(lp3477
g62
(g83
g64
NtRp3478
(dp3479
g67
(dp3480
g87
g88
ssg76
g3474
sg69
(lp3481
S'wsgi.file_wrapper'
p3482
asbag62
(g83
g64
NtRp3483
(dp3484
g67
(dp3485
g94
g95
ssg76
g3474
sg69
(lp3486
S':'
asbag62
(g83
g64
NtRp3487
(dp3488
g67
(dp3489
sg76
g3474
sg69
(lp3490
g62
(g63
g64
NtRp3491
(dp3492
g67
(dp3493
g75
I3
ssg76
g3487
sg69
(lp3494
S'<built-in method file_wrapper of mod_wsgi.Adapter object at 0x7fba31ca8738>'
p3495
asbasbasbag62
(g78
g64
NtRp3496
(dp3497
g67
(dp3498
sg76
g2559
sg69
(lp3499
g62
(g83
g64
NtRp3500
(dp3501
g67
(dp3502
g87
g88
ssg76
g3496
sg69
(lp3503
S'wsgi.input'
p3504
asbag62
(g83
g64
NtRp3505
(dp3506
g67
(dp3507
g94
g95
ssg76
g3496
sg69
(lp3508
S':'
asbag62
(g83
g64
NtRp3509
(dp3510
g67
(dp3511
sg76
g3496
sg69
(lp3512
g62
(g63
g64
NtRp3513
(dp3514
g67
(dp3515
g75
I3
ssg76
g3509
sg69
(lp3516
S"<open file '<fdopen>', mode 'w+b' at 0x7fba30b7eae0>"
p3517
asbasbasbag62
(g78
g64
NtRp3518
(dp3519
g67
(dp3520
sg76
g2559
sg69
(lp3521
g62
(g83
g64
NtRp3522
(dp3523
g67
(dp3524
g87
g88
ssg76
g3518
sg69
(lp3525
S'wsgi.multiprocess'
p3526
asbag62
(g83
g64
NtRp3527
(dp3528
g67
(dp3529
g94
g95
ssg76
g3518
sg69
(lp3530
S':'
asbag62
(g83
g64
NtRp3531
(dp3532
g67
(dp3533
sg76
g3518
sg69
(lp3534
g62
(g63
g64
NtRp3535
(dp3536
g67
(dp3537
g75
I3
ssg76
g3531
sg69
(lp3538
g105
asbasbasbag62
(g78
g64
NtRp3539
(dp3540
g67
(dp3541
sg76
g2559
sg69
(lp3542
g62
(g83
g64
NtRp3543
(dp3544
g67
(dp3545
g87
g88
ssg76
g3539
sg69
(lp3546
S'wsgi.multithread'
p3547
asbag62
(g83
g64
NtRp3548
(dp3549
g67
(dp3550
g94
g95
ssg76
g3539
sg69
(lp3551
S':'
asbag62
(g83
g64
NtRp3552
(dp3553
g67
(dp3554
sg76
g3539
sg69
(lp3555
g62
(g63
g64
NtRp3556
(dp3557
g67
(dp3558
g75
I3
ssg76
g3552
sg69
(lp3559
g1751
asbasbasbag62
(g78
g64
NtRp3560
(dp3561
g67
(dp3562
sg76
g2559
sg69
(lp3563
g62
(g83
g64
NtRp3564
(dp3565
g67
(dp3566
g87
g88
ssg76
g3560
sg69
(lp3567
S'wsgi.run_once'
p3568
asbag62
(g83
g64
NtRp3569
(dp3570
g67
(dp3571
g94
g95
ssg76
g3560
sg69
(lp3572
S':'
asbag62
(g83
g64
NtRp3573
(dp3574
g67
(dp3575
sg76
g3560
sg69
(lp3576
g62
(g63
g64
NtRp3577
(dp3578
g67
(dp3579
g75
I3
ssg76
g3573
sg69
(lp3580
g105
asbasbasbag62
(g78
g64
NtRp3581
(dp3582
g67
(dp3583
sg76
g2559
sg69
(lp3584
g62
(g83
g64
NtRp3585
(dp3586
g67
(dp3587
g87
g88
ssg76
g3581
sg69
(lp3588
S'wsgi.url_scheme'
p3589
asbag62
(g83
g64
NtRp3590
(dp3591
g67
(dp3592
g94
g95
ssg76
g3581
sg69
(lp3593
S':'
asbag62
(g83
g64
NtRp3594
(dp3595
g67
(dp3596
sg76
g3581
sg69
(lp3597
g62
(g63
g64
NtRp3598
(dp3599
g67
(dp3600
g75
I3
ssg76
g3594
sg69
(lp3601
g1794
asbasbasbag62
(g78
g64
NtRp3602
(dp3603
g67
(dp3604
sg76
g2559
sg69
(lp3605
g62
(g83
g64
NtRp3606
(dp3607
g67
(dp3608
g87
g88
ssg76
g3602
sg69
(lp3609
S'wsgi.version'
p3610
asbag62
(g83
g64
NtRp3611
(dp3612
g67
(dp3613
g94
g95
ssg76
g3602
sg69
(lp3614
S':'
asbag62
(g83
g64
NtRp3615
(dp3616
g67
(dp3617
sg76
g3602
sg69
(lp3618
g62
(g63
g64
NtRp3619
(dp3620
g67
(dp3621
g75
I3
ssg76
g3615
sg69
(lp3622
S'1'
asbasbasbasbasbasbasbasbasbasbasbasbasbsS'frames'
p3623
(lp3624
(dp3625
S'file'
p3626
S'/var/www/web2py/gluon/restricted.py'
p3627
sS'dump'
p3628
(dp3629
S'environment'
p3630
S"{'A': <class 'gluon.html.A'>, 'Auth': <class 'gluon.tools.Auth'>, 'B': <class 'gluon.html.B'>, 'BEAUTIFY': <class 'gluon.html.BEAUTIFY'>, 'BODY': <class 'gluon.html.BODY'>, 'BR': <class 'gluon.html.BR'>, 'BUTTON': <class 'gluon.html.BUTTON'>, 'CAT': <class 'gluon.html.CAT'>, 'CENTER': <class 'gluon.html.CENTER'>, 'CLEANUP': <class 'gluon.validators.CLEANUP'>, ...}"
p3631
sS'ccode'
p3632
S'<code object <module> at 0x7fba31dd2a80, file "/...ns/Threads_Beta/controllers/default.py", line 11>'
p3633
ssS'lnum'
p3634
I204
sS'lines'
p3635
(dp3636
I199
S'    try:'
p3637
sI200
S'        if type(code) == types.CodeType:'
p3638
sI201
S'            ccode = code'
p3639
sI202
S'        else:'
p3640
sI203
S'            ccode = compile2(code,layer)'
p3641
sI204
S'        exec ccode in environment'
p3642
sI205
S'    except HTTP:'
p3643
sI206
S'        raise'
p3644
sI207
S'    except RestrictedError:'
p3645
sI208
S'        # do not encapsulate (obfuscate) the original RestrictedError'
p3646
ssS'call'
p3647
S"(code='# -*- coding: utf-8 -*-\\n# this file is released ...crud())\\n\\n\\nresponse._vars=response._caller(judge)\\n', environment={'A': <class 'gluon.html.A'>, 'Auth': <class 'gluon.tools.Auth'>, 'B': <class 'gluon.html.B'>, 'BEAUTIFY': <class 'gluon.html.BEAUTIFY'>, 'BODY': <class 'gluon.html.BODY'>, 'BR': <class 'gluon.html.BR'>, 'BUTTON': <class 'gluon.html.BUTTON'>, 'CAT': <class 'gluon.html.CAT'>, 'CENTER': <class 'gluon.html.CENTER'>, 'CLEANUP': <class 'gluon.validators.CLEANUP'>, ...}, layer='/var/www/web2py/applications/Threads_Beta/controllers/default.py')"
p3648
sS'func'
p3649
S'restricted'
p3650
sa(dp3651
g3626
S'/var/www/web2py/applications/Threads_Beta/controllers/default.py'
p3652
sg3628
(dp3653
sg3634
I235
sg3635
(dp3654
I224
S'    http://..../[app]/default/data/delete/[table]/[id]'
p3655
sI225
S'    http://..../[app]/default/data/select/[table]'
p3656
sI226
S'    http://..../[app]/default/data/search/[table]'
p3657
sI227
S'    but URLs must be signed, i.e. linked with'
p3658
sI228
S"      A('table',_href=URL('data/tables',user_signature=True))"
p3659
sI229
S'    or with the signed load operator'
p3660
sI230
S"      LOAD('default','data.load',args='tables',ajax=True,user_signature=True)"
p3661
sI231
S'    """'
p3662
sI232
S'    return dict(form=crud())'
p3663
sI233
S''
ssg3647
S'()'
p3664
sg3649
S'<module>'
p3665
sa(dp3666
g3626
S'/var/www/web2py/gluon/globals.py'
p3667
sg3628
(dp3668
S'self'
p3669
S'undefined'
p3670
sS'f'
S'<function judge>'
p3671
ssg3634
I172
sg3635
(dp3672
I167
S'        self.meta = Storage()      # used by web2py_ajax.html'
p3673
sI168
S'        self.menu = []             # used by the default view layout'
p3674
sI169
S'        self.files = []            # used by web2py_ajax.html'
p3675
sI170
S'        self.generic_patterns = [] # patterns to allow generic views'
p3676
sI171
S'        self._vars = None'
p3677
sI172
S'        self._caller = lambda f: f()'
p3678
sI173
S'        self._view_environment = None'
p3679
sI174
S'        self._custom_commit = None'
p3680
sI175
S'        self._custom_rollback = None'
p3681
sI176
S''
ssg3647
S'(f=<function judge>)'
p3682
sg3649
S'<lambda>'
p3683
sa(dp3684
g3626
S'/var/www/web2py/gluon/tools.py'
p3685
sg3628
(dp3686
S'action'
p3687
S'<function judge>'
p3688
sS'a'
S'()'
p3689
sS'b'
g19
ssg3634
I2533
sg3635
(dp3690
I2528
S'                # otherwise case 3 would be ok.'
p3691
sI2529
S'                if not (callable(condition) and condition() == True) and not condition == True:'
p3692
sI2530
S'                    current.session.flash = self.messages.access_denied'
p3693
sI2531
S'                    return call_or_redirect('
p3694
sI2532
S'                        self.settings.on_failed_authorization)'
p3695
sI2533
S'                return action(*a, **b)'
p3696
sI2534
S'            f.__doc__ = action.__doc__'
p3697
sI2535
S'            f.__name__ = action.__name__'
p3698
sI2536
S'            f.__dict__.update(action.__dict__)'
p3699
sI2537
S'            return f'
p3700
ssg3647
S'(*a=(), **b={})'
p3701
sg3649
S'f'
sa(dp3702
g3626
S'/var/www/web2py/applications/Threads_Beta/controllers/default.py'
p3703
sg3628
(dp3704
S'shutil.copyfileobj'
p3705
S'<function copyfileobj>'
p3706
sS'builtinopen'
p3707
S'<built-in function open>'
p3708
sS'global shutil'
p3709
S"<module 'shutil' from '/usr/lib64/python2.6/shutil.pyc'>"
p3710
sS'temp_storage_filename'
p3711
S"'/tmp/Felicity/submission_3_1_1L3B0M.cpp'"
p3712
sS'file_descriptor'
p3713
S'<cStringIO.StringO object>'
p3714
ssg3634
I123
sg3635
(dp3715
I118
S'        temp_dir = "/tmp/Felicity/"'
p3716
sI119
S''
sI120
S'        # Temp filename = submission_<EVENT-ID>_<USER-ID>_<Unique-string>.<ext>'
p3717
sI121
S'        temp_storage_file = "submission_"+str(question_no)+"_"+str(event_id)+"_"+str(auth.user.id)+str(\'\'.join(random.choice(string.ascii_uppercase + string.digits) for x in range(5)))+os.path.splitext(filename)[1]'
p3718
sI122
S'        temp_storage_filename = temp_dir + temp_storage_file'
p3719
sI123
S"        shutil.copyfileobj(file_descriptor,open(temp_storage_filename,'wb'))"
p3720
sI124
S''
sI125
S'        row = db(db.events.id==event_id).select()[0]'
p3721
sI126
S'        #Transfer the string using SCP.'
p3722
sI127
S"        organizer = row['organizer']"
p3723
ssg3647
S'()'
p3724
sg3649
S'judge'
p3725
sasS'pyver'
p3726
S'Python 2.6.6: /usr/bin/python'
p3727
sS'session'
p3728
g62
(g63
g64
NtRp3729
(dp3730
g67
(dp3731
sg69
(lp3732
g62
(g71
g64
NtRp3733
(dp3734
g67
(dp3735
g75
I5
ssg76
Nsg69
(lp3736
g62
(g78
g64
NtRp3737
(dp3738
g67
(dp3739
sg76
g3733
sg69
(lp3740
g62
(g83
g64
NtRp3741
(dp3742
g67
(dp3743
g87
g88
ssg76
g3737
sg69
(lp3744
S'auth'
p3745
asbag62
(g83
g64
NtRp3746
(dp3747
g67
(dp3748
g94
g95
ssg76
g3737
sg69
(lp3749
S':'
asbag62
(g83
g64
NtRp3750
(dp3751
g67
(dp3752
sg76
g3737
sg69
(lp3753
g62
(g63
g64
NtRp3754
(dp3755
g67
(dp3756
g75
I5
ssg76
g3750
sg69
(lp3757
g62
(g71
g64
NtRp3758
(dp3759
g67
(dp3760
g75
I4
ssg76
Nsg69
(lp3761
g62
(g78
g64
NtRp3762
(dp3763
g67
(dp3764
sg76
g3758
sg69
(lp3765
g62
(g83
g64
NtRp3766
(dp3767
g67
(dp3768
g87
g88
ssg76
g3762
sg69
(lp3769
S'expiration'
p3770
asbag62
(g83
g64
NtRp3771
(dp3772
g67
(dp3773
g94
g95
ssg76
g3762
sg69
(lp3774
S':'
asbag62
(g83
g64
NtRp3775
(dp3776
g67
(dp3777
sg76
g3762
sg69
(lp3778
g62
(g63
g64
NtRp3779
(dp3780
g67
(dp3781
g75
I4
ssg76
g3775
sg69
(lp3782
S'2592000'
p3783
asbasbasbag62
(g78
g64
NtRp3784
(dp3785
g67
(dp3786
sg76
g3758
sg69
(lp3787
g62
(g83
g64
NtRp3788
(dp3789
g67
(dp3790
g87
g88
ssg76
g3784
sg69
(lp3791
S'hmac_key'
p3792
asbag62
(g83
g64
NtRp3793
(dp3794
g67
(dp3795
g94
g95
ssg76
g3784
sg69
(lp3796
S':'
asbag62
(g83
g64
NtRp3797
(dp3798
g67
(dp3799
sg76
g3784
sg69
(lp3800
g62
(g63
g64
NtRp3801
(dp3802
g67
(dp3803
g75
I4
ssg76
g3797
sg69
(lp3804
S'a5a44f2c-f23d-4a51-93f9-76b99ac8fcf4'
p3805
asbasbasbag62
(g78
g64
NtRp3806
(dp3807
g67
(dp3808
sg76
g3758
sg69
(lp3809
g62
(g83
g64
NtRp3810
(dp3811
g67
(dp3812
g87
g88
ssg76
g3806
sg69
(lp3813
S'last_visit'
p3814
asbag62
(g83
g64
NtRp3815
(dp3816
g67
(dp3817
g94
g95
ssg76
g3806
sg69
(lp3818
S':'
asbag62
(g83
g64
NtRp3819
(dp3820
g67
(dp3821
sg76
g3806
sg69
(lp3822
g62
(g63
g64
NtRp3823
(dp3824
g67
(dp3825
g75
I4
ssg76
g3819
sg69
(lp3826
S'datetime.datetime(2012, 11, 23, 17, 14, 41, 677528)'
p3827
asbasbasbag62
(g78
g64
NtRp3828
(dp3829
g67
(dp3830
sg76
g3758
sg69
(lp3831
g62
(g83
g64
NtRp3832
(dp3833
g67
(dp3834
g87
g88
ssg76
g3828
sg69
(lp3835
S'remember'
p3836
asbag62
(g83
g64
NtRp3837
(dp3838
g67
(dp3839
g94
g95
ssg76
g3828
sg69
(lp3840
S':'
asbag62
(g83
g64
NtRp3841
(dp3842
g67
(dp3843
sg76
g3828
sg69
(lp3844
g62
(g63
g64
NtRp3845
(dp3846
g67
(dp3847
g75
I4
ssg76
g3841
sg69
(lp3848
g105
asbasbasbag62
(g78
g64
NtRp3849
(dp3850
g67
(dp3851
sg76
g3758
sg69
(lp3852
g62
(g83
g64
NtRp3853
(dp3854
g67
(dp3855
g87
g88
ssg76
g3849
sg69
(lp3856
S'user'
p3857
asbag62
(g83
g64
NtRp3858
(dp3859
g67
(dp3860
g94
g95
ssg76
g3849
sg69
(lp3861
S':'
asbag62
(g83
g64
NtRp3862
(dp3863
g67
(dp3864
sg76
g3849
sg69
(lp3865
g62
(g63
g64
NtRp3866
(dp3867
g67
(dp3868
g75
I4
ssg76
g3862
sg69
(lp3869
g62
(g71
g64
NtRp3870
(dp3871
g67
(dp3872
g75
I3
ssg76
Nsg69
(lp3873
g62
(g78
g64
NtRp3874
(dp3875
g67
(dp3876
sg76
g3870
sg69
(lp3877
g62
(g83
g64
NtRp3878
(dp3879
g67
(dp3880
g87
g88
ssg76
g3874
sg69
(lp3881
S'about'
p3882
asbag62
(g83
g64
NtRp3883
(dp3884
g67
(dp3885
g94
g95
ssg76
g3874
sg69
(lp3886
S':'
asbag62
(g83
g64
NtRp3887
(dp3888
g67
(dp3889
sg76
g3874
sg69
(lp3890
g62
(g63
g64
NtRp3891
(dp3892
g67
(dp3893
g75
I3
ssg76
g3887
sg69
(lp3894
S'I made this portal'
p3895
asbasbasbag62
(g78
g64
NtRp3896
(dp3897
g67
(dp3898
sg76
g3870
sg69
(lp3899
g62
(g83
g64
NtRp3900
(dp3901
g67
(dp3902
g87
g88
ssg76
g3896
sg69
(lp3903
S'contact'
p3904
asbag62
(g83
g64
NtRp3905
(dp3906
g67
(dp3907
g94
g95
ssg76
g3896
sg69
(lp3908
S':'
asbag62
(g83
g64
NtRp3909
(dp3910
g67
(dp3911
sg76
g3896
sg69
(lp3912
g62
(g63
g64
NtRp3913
(dp3914
g67
(dp3915
g75
I3
ssg76
g3909
sg69
(lp3916
S'None'
p3917
asbasbasbag62
(g78
g64
NtRp3918
(dp3919
g67
(dp3920
sg76
g3870
sg69
(lp3921
g62
(g83
g64
NtRp3922
(dp3923
g67
(dp3924
g87
g88
ssg76
g3918
sg69
(lp3925
S'email'
p3926
asbag62
(g83
g64
NtRp3927
(dp3928
g67
(dp3929
g94
g95
ssg76
g3918
sg69
(lp3930
S':'
asbag62
(g83
g64
NtRp3931
(dp3932
g67
(dp3933
sg76
g3918
sg69
(lp3934
g62
(g63
g64
NtRp3935
(dp3936
g67
(dp3937
g75
I3
ssg76
g3931
sg69
(lp3938
S'madhavan@felicity.iiit.ac.in'
p3939
asbasbasbag62
(g78
g64
NtRp3940
(dp3941
g67
(dp3942
sg76
g3870
sg69
(lp3943
g62
(g83
g64
NtRp3944
(dp3945
g67
(dp3946
g87
g88
ssg76
g3940
sg69
(lp3947
S'first_name'
p3948
asbag62
(g83
g64
NtRp3949
(dp3950
g67
(dp3951
g94
g95
ssg76
g3940
sg69
(lp3952
S':'
asbag62
(g83
g64
NtRp3953
(dp3954
g67
(dp3955
sg76
g3940
sg69
(lp3956
g62
(g63
g64
NtRp3957
(dp3958
g67
(dp3959
g75
I3
ssg76
g3953
sg69
(lp3960
S'Madhavan'
p3961
asbasbasbag62
(g78
g64
NtRp3962
(dp3963
g67
(dp3964
sg76
g3870
sg69
(lp3965
g62
(g83
g64
NtRp3966
(dp3967
g67
(dp3968
g87
g88
ssg76
g3962
sg69
(lp3969
S'handle'
p3970
asbag62
(g83
g64
NtRp3971
(dp3972
g67
(dp3973
g94
g95
ssg76
g3962
sg69
(lp3974
S':'
asbag62
(g83
g64
NtRp3975
(dp3976
g67
(dp3977
sg76
g3962
sg69
(lp3978
g62
(g63
g64
NtRp3979
(dp3980
g67
(dp3981
g75
I3
ssg76
g3975
sg69
(lp3982
S'Maddy'
p3983
asbasbasbag62
(g78
g64
NtRp3984
(dp3985
g67
(dp3986
sg76
g3870
sg69
(lp3987
g62
(g83
g64
NtRp3988
(dp3989
g67
(dp3990
g87
g88
ssg76
g3984
sg69
(lp3991
S'id'
p3992
asbag62
(g83
g64
NtRp3993
(dp3994
g67
(dp3995
g94
g95
ssg76
g3984
sg69
(lp3996
S':'
asbag62
(g83
g64
NtRp3997
(dp3998
g67
(dp3999
sg76
g3984
sg69
(lp4000
g62
(g63
g64
NtRp4001
(dp4002
g67
(dp4003
g75
I3
ssg76
g3997
sg69
(lp4004
S'1'
asbasbasbag62
(g78
g64
NtRp4005
(dp4006
g67
(dp4007
sg76
g3870
sg69
(lp4008
g62
(g83
g64
NtRp4009
(dp4010
g67
(dp4011
g87
g88
ssg76
g4005
sg69
(lp4012
S'last_name'
p4013
asbag62
(g83
g64
NtRp4014
(dp4015
g67
(dp4016
g94
g95
ssg76
g4005
sg69
(lp4017
S':'
asbag62
(g83
g64
NtRp4018
(dp4019
g67
(dp4020
sg76
g4005
sg69
(lp4021
g62
(g63
g64
NtRp4022
(dp4023
g67
(dp4024
g75
I3
ssg76
g4018
sg69
(lp4025
S'Malolan'
p4026
asbasbasbag62
(g78
g64
NtRp4027
(dp4028
g67
(dp4029
sg76
g3870
sg69
(lp4030
g62
(g83
g64
NtRp4031
(dp4032
g67
(dp4033
g87
g88
ssg76
g4027
sg69
(lp4034
S'password'
p4035
asbag62
(g83
g64
NtRp4036
(dp4037
g67
(dp4038
g94
g95
ssg76
g4027
sg69
(lp4039
S':'
asbag62
(g83
g64
NtRp4040
(dp4041
g67
(dp4042
sg76
g4027
sg69
(lp4043
g62
(g63
g64
NtRp4044
(dp4045
g67
(dp4046
g75
I3
ssg76
g4040
sg69
(lp4047
S'3e7dcbfef4ccdcc3bc90aa39b8721c0d'
p4048
asbasbasbag62
(g78
g64
NtRp4049
(dp4050
g67
(dp4051
sg76
g3870
sg69
(lp4052
g62
(g83
g64
NtRp4053
(dp4054
g67
(dp4055
g87
g88
ssg76
g4049
sg69
(lp4056
S'profile_pic'
p4057
asbag62
(g83
g64
NtRp4058
(dp4059
g67
(dp4060
g94
g95
ssg76
g4049
sg69
(lp4061
S':'
asbag62
(g83
g64
NtRp4062
(dp4063
g67
(dp4064
sg76
g4049
sg69
(lp4065
g62
(g63
g64
NtRp4066
(dp4067
g67
(dp4068
g75
I3
ssg76
g4062
sg69
(lp4069
S'auth_user.profile_pic.bcae818b083bbf8e.53637265656e73686f742d312e706e67.png'
p4070
asbasbasbag62
(g78
g64
NtRp4071
(dp4072
g67
(dp4073
sg76
g3870
sg69
(lp4074
g62
(g83
g64
NtRp4075
(dp4076
g67
(dp4077
g87
g88
ssg76
g4071
sg69
(lp4078
S'registration_id'
p4079
asbag62
(g83
g64
NtRp4080
(dp4081
g67
(dp4082
g94
g95
ssg76
g4071
sg69
(lp4083
S':'
asbag62
(g83
g64
NtRp4084
(dp4085
g67
(dp4086
sg76
g4071
sg69
(lp4087
g62
(g63
g64
NtRp4088
(dp4089
g67
(dp4090
g75
I3
ssg76
g4084
sg69
(lp4091
S''
asbasbasbag62
(g78
g64
NtRp4092
(dp4093
g67
(dp4094
sg76
g3870
sg69
(lp4095
g62
(g83
g64
NtRp4096
(dp4097
g67
(dp4098
g87
g88
ssg76
g4092
sg69
(lp4099
S'registration_key'
p4100
asbag62
(g83
g64
NtRp4101
(dp4102
g67
(dp4103
g94
g95
ssg76
g4092
sg69
(lp4104
S':'
asbag62
(g83
g64
NtRp4105
(dp4106
g67
(dp4107
sg76
g4092
sg69
(lp4108
g62
(g63
g64
NtRp4109
(dp4110
g67
(dp4111
g75
I3
ssg76
g4105
sg69
(lp4112
S''
asbasbasbag62
(g78
g64
NtRp4113
(dp4114
g67
(dp4115
sg76
g3870
sg69
(lp4116
g62
(g83
g64
NtRp4117
(dp4118
g67
(dp4119
g87
g88
ssg76
g4113
sg69
(lp4120
S'reset_password_key'
p4121
asbag62
(g83
g64
NtRp4122
(dp4123
g67
(dp4124
g94
g95
ssg76
g4113
sg69
(lp4125
S':'
asbag62
(g83
g64
NtRp4126
(dp4127
g67
(dp4128
sg76
g4113
sg69
(lp4129
g62
(g63
g64
NtRp4130
(dp4131
g67
(dp4132
g75
I3
ssg76
g4126
sg69
(lp4133
S''
asbasbasbasbasbasbasbasbasbasbasbasbasbsS'etype'
p4134
S"<type 'exceptions.IOError'>"
p4135
sS'date'
p4136
S'Fri Nov 23 19:02:32 2012'
p4137
sS'response'
p4138
g62
(g63
g64
NtRp4139
(dp4140
g67
(dp4141
sg69
(lp4142
g62
(g71
g64
NtRp4143
(dp4144
g67
(dp4145
g75
I5
ssg76
Nsg69
(lp4146
g62
(g78
g64
NtRp4147
(dp4148
g67
(dp4149
sg76
g4143
sg69
(lp4150
g62
(g83
g64
NtRp4151
(dp4152
g67
(dp4153
g87
g88
ssg76
g4147
sg69
(lp4154
g160
asbag62
(g83
g64
NtRp4155
(dp4156
g67
(dp4157
g94
g95
ssg76
g4147
sg69
(lp4158
S':'
asbag62
(g83
g64
NtRp4159
(dp4160
g67
(dp4161
sg76
g4147
sg69
(lp4162
g62
(g63
g64
NtRp4163
(dp4164
g67
(dp4165
g75
I5
ssg76
g4159
sg69
(lp4166
S'<cStringIO.StringO object at 0x7fba31ce1ed8>'
p4167
asbasbasbag62
(g78
g64
NtRp4168
(dp4169
g67
(dp4170
sg76
g4143
sg69
(lp4171
g62
(g83
g64
NtRp4172
(dp4173
g67
(dp4174
g87
g88
ssg76
g4168
sg69
(lp4175
g226
asbag62
(g83
g64
NtRp4176
(dp4177
g67
(dp4178
g94
g95
ssg76
g4168
sg69
(lp4179
S':'
asbag62
(g83
g64
NtRp4180
(dp4181
g67
(dp4182
sg76
g4168
sg69
(lp4183
g62
(g63
g64
NtRp4184
(dp4185
g67
(dp4186
g75
I5
ssg76
g4180
sg69
(lp4187
g62
(g71
g64
NtRp4188
(dp4189
g67
(dp4190
g75
I4
ssg76
Nsg69
(lp4191
g62
(g78
g64
NtRp4192
(dp4193
g67
(dp4194
sg76
g4188
sg69
(lp4195
g62
(g83
g64
NtRp4196
(dp4197
g67
(dp4198
g87
g88
ssg76
g4192
sg69
(lp4199
S'session_id_threads_beta'
p4200
asbag62
(g83
g64
NtRp4201
(dp4202
g67
(dp4203
g94
g95
ssg76
g4192
sg69
(lp4204
S':'
asbag62
(g83
g64
NtRp4205
(dp4206
g67
(dp4207
sg76
g4192
sg69
(lp4208
g62
(g63
g64
NtRp4209
(dp4210
g67
(dp4211
g75
I4
ssg76
g4205
sg69
(lp4212
g62
(g71
g64
NtRp4213
(dp4214
g67
(dp4215
g75
I3
ssg76
Nsg69
(lp4216
g62
(g78
g64
NtRp4217
(dp4218
g67
(dp4219
sg76
g4213
sg69
(lp4220
g62
(g83
g64
NtRp4221
(dp4222
g67
(dp4223
g87
g88
ssg76
g4217
sg69
(lp4224
g276
asbag62
(g83
g64
NtRp4225
(dp4226
g67
(dp4227
g94
g95
ssg76
g4217
sg69
(lp4228
S':'
asbag62
(g83
g64
NtRp4229
(dp4230
g67
(dp4231
sg76
g4217
sg69
(lp4232
g62
(g63
g64
NtRp4233
(dp4234
g67
(dp4235
g75
I3
ssg76
g4229
sg69
(lp4236
S''
asbasbasbag62
(g78
g64
NtRp4237
(dp4238
g67
(dp4239
sg76
g4213
sg69
(lp4240
g62
(g83
g64
NtRp4241
(dp4242
g67
(dp4243
g87
g88
ssg76
g4237
sg69
(lp4244
g297
asbag62
(g83
g64
NtRp4245
(dp4246
g67
(dp4247
g94
g95
ssg76
g4237
sg69
(lp4248
S':'
asbag62
(g83
g64
NtRp4249
(dp4250
g67
(dp4251
sg76
g4237
sg69
(lp4252
g62
(g63
g64
NtRp4253
(dp4254
g67
(dp4255
g75
I3
ssg76
g4249
sg69
(lp4256
S''
asbasbasbag62
(g78
g64
NtRp4257
(dp4258
g67
(dp4259
sg76
g4213
sg69
(lp4260
g62
(g83
g64
NtRp4261
(dp4262
g67
(dp4263
g87
g88
ssg76
g4257
sg69
(lp4264
g318
asbag62
(g83
g64
NtRp4265
(dp4266
g67
(dp4267
g94
g95
ssg76
g4257
sg69
(lp4268
S':'
asbag62
(g83
g64
NtRp4269
(dp4270
g67
(dp4271
sg76
g4257
sg69
(lp4272
g62
(g63
g64
NtRp4273
(dp4274
g67
(dp4275
g75
I3
ssg76
g4269
sg69
(lp4276
S''
asbasbasbag62
(g78
g64
NtRp4277
(dp4278
g67
(dp4279
sg76
g4213
sg69
(lp4280
g62
(g83
g64
NtRp4281
(dp4282
g67
(dp4283
g87
g88
ssg76
g4277
sg69
(lp4284
g339
asbag62
(g83
g64
NtRp4285
(dp4286
g67
(dp4287
g94
g95
ssg76
g4277
sg69
(lp4288
S':'
asbag62
(g83
g64
NtRp4289
(dp4290
g67
(dp4291
sg76
g4277
sg69
(lp4292
g62
(g63
g64
NtRp4293
(dp4294
g67
(dp4295
g75
I3
ssg76
g4289
sg69
(lp4296
S''
asbasbasbag62
(g78
g64
NtRp4297
(dp4298
g67
(dp4299
sg76
g4213
sg69
(lp4300
g62
(g83
g64
NtRp4301
(dp4302
g67
(dp4303
g87
g88
ssg76
g4297
sg69
(lp4304
g360
asbag62
(g83
g64
NtRp4305
(dp4306
g67
(dp4307
g94
g95
ssg76
g4297
sg69
(lp4308
S':'
asbag62
(g83
g64
NtRp4309
(dp4310
g67
(dp4311
sg76
g4297
sg69
(lp4312
g62
(g63
g64
NtRp4313
(dp4314
g67
(dp4315
g75
I3
ssg76
g4309
sg69
(lp4316
S''
asbasbasbag62
(g78
g64
NtRp4317
(dp4318
g67
(dp4319
sg76
g4213
sg69
(lp4320
g62
(g83
g64
NtRp4321
(dp4322
g67
(dp4323
g87
g88
ssg76
g4317
sg69
(lp4324
g381
asbag62
(g83
g64
NtRp4325
(dp4326
g67
(dp4327
g94
g95
ssg76
g4317
sg69
(lp4328
S':'
asbag62
(g83
g64
NtRp4329
(dp4330
g67
(dp4331
sg76
g4317
sg69
(lp4332
g62
(g63
g64
NtRp4333
(dp4334
g67
(dp4335
g75
I3
ssg76
g4329
sg69
(lp4336
S'/'
asbasbasbag62
(g78
g64
NtRp4337
(dp4338
g67
(dp4339
sg76
g4213
sg69
(lp4340
g62
(g83
g64
NtRp4341
(dp4342
g67
(dp4343
g87
g88
ssg76
g4337
sg69
(lp4344
g402
asbag62
(g83
g64
NtRp4345
(dp4346
g67
(dp4347
g94
g95
ssg76
g4337
sg69
(lp4348
S':'
asbag62
(g83
g64
NtRp4349
(dp4350
g67
(dp4351
sg76
g4337
sg69
(lp4352
g62
(g63
g64
NtRp4353
(dp4354
g67
(dp4355
g75
I3
ssg76
g4349
sg69
(lp4356
S''
asbasbasbag62
(g78
g64
NtRp4357
(dp4358
g67
(dp4359
sg76
g4213
sg69
(lp4360
g62
(g83
g64
NtRp4361
(dp4362
g67
(dp4363
g87
g88
ssg76
g4357
sg69
(lp4364
g423
asbag62
(g83
g64
NtRp4365
(dp4366
g67
(dp4367
g94
g95
ssg76
g4357
sg69
(lp4368
S':'
asbag62
(g83
g64
NtRp4369
(dp4370
g67
(dp4371
sg76
g4357
sg69
(lp4372
g62
(g63
g64
NtRp4373
(dp4374
g67
(dp4375
g75
I3
ssg76
g4369
sg69
(lp4376
S''
asbasbasbasbasbasbasbasbasbasbasbag62
(g78
g64
NtRp4377
(dp4378
g67
(dp4379
sg76
g4143
sg69
(lp4380
g62
(g83
g64
NtRp4381
(dp4382
g67
(dp4383
g87
g88
ssg76
g4377
sg69
(lp4384
S'files'
p4385
asbag62
(g83
g64
NtRp4386
(dp4387
g67
(dp4388
g94
g95
ssg76
g4377
sg69
(lp4389
S':'
asbag62
(g83
g64
NtRp4390
(dp4391
g67
(dp4392
sg76
g4377
sg69
(lp4393
g62
(g63
g64
NtRp4394
(dp4395
g67
(dp4396
g75
I5
ssg76
g4390
sg69
(lp4397
g62
(g71
g64
NtRp4398
(dp4399
g67
(dp4400
g75
I4
ssg76
Nsg69
(lp4401
sbasbasbasbag62
(g78
g64
NtRp4402
(dp4403
g67
(dp4404
sg76
g4143
sg69
(lp4405
g62
(g83
g64
NtRp4406
(dp4407
g67
(dp4408
g87
g88
ssg76
g4402
sg69
(lp4409
S'flash'
p4410
asbag62
(g83
g64
NtRp4411
(dp4412
g67
(dp4413
g94
g95
ssg76
g4402
sg69
(lp4414
S':'
asbag62
(g83
g64
NtRp4415
(dp4416
g67
(dp4417
sg76
g4402
sg69
(lp4418
g62
(g63
g64
NtRp4419
(dp4420
g67
(dp4421
g75
I5
ssg76
g4415
sg69
(lp4422
S''
asbasbasbag62
(g78
g64
NtRp4423
(dp4424
g67
(dp4425
sg76
g4143
sg69
(lp4426
g62
(g83
g64
NtRp4427
(dp4428
g67
(dp4429
g87
g88
ssg76
g4423
sg69
(lp4430
S'generic_patterns'
p4431
asbag62
(g83
g64
NtRp4432
(dp4433
g67
(dp4434
g94
g95
ssg76
g4423
sg69
(lp4435
S':'
asbag62
(g83
g64
NtRp4436
(dp4437
g67
(dp4438
sg76
g4423
sg69
(lp4439
g62
(g63
g64
NtRp4440
(dp4441
g67
(dp4442
g75
I5
ssg76
g4436
sg69
(lp4443
g62
(g71
g64
NtRp4444
(dp4445
g67
(dp4446
g75
I4
ssg76
Nsg69
(lp4447
sbasbasbasbag62
(g78
g64
NtRp4448
(dp4449
g67
(dp4450
sg76
g4143
sg69
(lp4451
g62
(g83
g64
NtRp4452
(dp4453
g67
(dp4454
g87
g88
ssg76
g4448
sg69
(lp4455
S'headers'
p4456
asbag62
(g83
g64
NtRp4457
(dp4458
g67
(dp4459
g94
g95
ssg76
g4448
sg69
(lp4460
S':'
asbag62
(g83
g64
NtRp4461
(dp4462
g67
(dp4463
sg76
g4448
sg69
(lp4464
g62
(g63
g64
NtRp4465
(dp4466
g67
(dp4467
g75
I5
ssg76
g4461
sg69
(lp4468
g62
(g71
g64
NtRp4469
(dp4470
g67
(dp4471
g75
I4
ssg76
Nsg69
(lp4472
g62
(g78
g64
NtRp4473
(dp4474
g67
(dp4475
sg76
g4469
sg69
(lp4476
g62
(g83
g64
NtRp4477
(dp4478
g67
(dp4479
g87
g88
ssg76
g4473
sg69
(lp4480
S'Cache-Control'
p4481
asbag62
(g83
g64
NtRp4482
(dp4483
g67
(dp4484
g94
g95
ssg76
g4473
sg69
(lp4485
S':'
asbag62
(g83
g64
NtRp4486
(dp4487
g67
(dp4488
sg76
g4473
sg69
(lp4489
g62
(g63
g64
NtRp4490
(dp4491
g67
(dp4492
g75
I4
ssg76
g4486
sg69
(lp4493
S'no-store, no-cache, must-revalidate, post-check=0, pre-check=0'
p4494
asbasbasbag62
(g78
g64
NtRp4495
(dp4496
g67
(dp4497
sg76
g4469
sg69
(lp4498
g62
(g83
g64
NtRp4499
(dp4500
g67
(dp4501
g87
g88
ssg76
g4495
sg69
(lp4502
S'Content-Type'
p4503
asbag62
(g83
g64
NtRp4504
(dp4505
g67
(dp4506
g94
g95
ssg76
g4495
sg69
(lp4507
S':'
asbag62
(g83
g64
NtRp4508
(dp4509
g67
(dp4510
sg76
g4495
sg69
(lp4511
g62
(g63
g64
NtRp4512
(dp4513
g67
(dp4514
g75
I4
ssg76
g4508
sg69
(lp4515
S'text/html; charset=utf-8'
p4516
asbasbasbag62
(g78
g64
NtRp4517
(dp4518
g67
(dp4519
sg76
g4469
sg69
(lp4520
g62
(g83
g64
NtRp4521
(dp4522
g67
(dp4523
g87
g88
ssg76
g4517
sg69
(lp4524
S'Expires'
p4525
asbag62
(g83
g64
NtRp4526
(dp4527
g67
(dp4528
g94
g95
ssg76
g4517
sg69
(lp4529
S':'
asbag62
(g83
g64
NtRp4530
(dp4531
g67
(dp4532
sg76
g4517
sg69
(lp4533
g62
(g63
g64
NtRp4534
(dp4535
g67
(dp4536
g75
I4
ssg76
g4530
sg69
(lp4537
S'Fri, 23 Nov 2012 13:32:32 GMT'
p4538
asbasbasbag62
(g78
g64
NtRp4539
(dp4540
g67
(dp4541
sg76
g4469
sg69
(lp4542
g62
(g83
g64
NtRp4543
(dp4544
g67
(dp4545
g87
g88
ssg76
g4539
sg69
(lp4546
S'Pragma'
p4547
asbag62
(g83
g64
NtRp4548
(dp4549
g67
(dp4550
g94
g95
ssg76
g4539
sg69
(lp4551
S':'
asbag62
(g83
g64
NtRp4552
(dp4553
g67
(dp4554
sg76
g4539
sg69
(lp4555
g62
(g63
g64
NtRp4556
(dp4557
g67
(dp4558
g75
I4
ssg76
g4552
sg69
(lp4559
S'no-cache'
p4560
asbasbasbag62
(g78
g64
NtRp4561
(dp4562
g67
(dp4563
sg76
g4469
sg69
(lp4564
g62
(g83
g64
NtRp4565
(dp4566
g67
(dp4567
g87
g88
ssg76
g4561
sg69
(lp4568
S'X-Powered-By'
p4569
asbag62
(g83
g64
NtRp4570
(dp4571
g67
(dp4572
g94
g95
ssg76
g4561
sg69
(lp4573
S':'
asbag62
(g83
g64
NtRp4574
(dp4575
g67
(dp4576
sg76
g4561
sg69
(lp4577
g62
(g63
g64
NtRp4578
(dp4579
g67
(dp4580
g75
I4
ssg76
g4574
sg69
(lp4581
S'web2py'
p4582
asbasbasbasbasbasbasbag62
(g78
g64
NtRp4583
(dp4584
g67
(dp4585
sg76
g4143
sg69
(lp4586
g62
(g83
g64
NtRp4587
(dp4588
g67
(dp4589
g87
g88
ssg76
g4583
sg69
(lp4590
S'menu'
p4591
asbag62
(g83
g64
NtRp4592
(dp4593
g67
(dp4594
g94
g95
ssg76
g4583
sg69
(lp4595
S':'
asbag62
(g83
g64
NtRp4596
(dp4597
g67
(dp4598
sg76
g4583
sg69
(lp4599
g62
(g63
g64
NtRp4600
(dp4601
g67
(dp4602
g75
I5
ssg76
g4596
sg69
(lp4603
g62
(g71
g64
NtRp4604
(dp4605
g67
(dp4606
g75
I4
ssg76
Nsg69
(lp4607
g62
(g78
g64
NtRp4608
(dp4609
g67
(dp4610
sg76
g4604
sg69
(lp4611
g62
(g83
g64
NtRp4612
(dp4613
g67
(dp4614
sg76
g4608
sg69
(lp4615
g62
(g63
g64
NtRp4616
(dp4617
g67
(dp4618
g75
I4
ssg76
g4612
sg69
(lp4619
g62
(g71
g64
NtRp4620
(dp4621
g67
(dp4622
g75
I3
ssg76
Nsg69
(lp4623
g62
(g78
g64
NtRp4624
(dp4625
g67
(dp4626
sg76
g4620
sg69
(lp4627
g62
(g83
g64
NtRp4628
(dp4629
g67
(dp4630
sg76
g4624
sg69
(lp4631
g62
(g63
g64
NtRp4632
(dp4633
g67
(dp4634
g75
I3
ssg76
g4628
sg69
(lp4635
cgluon.languages
lazyT_unpickle
p4636
(S's\x07\x00\x00\x00Threads'
tRp4637
asbasbasbag62
(g78
g64
NtRp4638
(dp4639
g67
(dp4640
sg76
g4620
sg69
(lp4641
g62
(g83
g64
NtRp4642
(dp4643
g67
(dp4644
sg76
g4638
sg69
(lp4645
g62
(g63
g64
NtRp4646
(dp4647
g67
(dp4648
g75
I3
ssg76
g4642
sg69
(lp4649
g105
asbasbasbag62
(g78
g64
NtRp4650
(dp4651
g67
(dp4652
sg76
g4620
sg69
(lp4653
g62
(g83
g64
NtRp4654
(dp4655
g67
(dp4656
sg76
g4650
sg69
(lp4657
g62
(g63
g64
NtRp4658
(dp4659
g67
(dp4660
g75
I3
ssg76
g4654
sg69
(lp4661
S'/web2py/Threads_Beta/default/index'
p4662
asbasbasbag62
(g78
g64
NtRp4663
(dp4664
g67
(dp4665
sg76
g4620
sg69
(lp4666
g62
(g83
g64
NtRp4667
(dp4668
g67
(dp4669
sg76
g4663
sg69
(lp4670
g62
(g63
g64
NtRp4671
(dp4672
g67
(dp4673
g75
I3
ssg76
g4667
sg69
(lp4674
g62
(g71
g64
NtRp4675
(dp4676
g67
(dp4677
g75
I2
ssg76
Nsg69
(lp4678
sbasbasbasbasbasbasbasbag62
(g78
g64
NtRp4679
(dp4680
g67
(dp4681
sg76
g4604
sg69
(lp4682
g62
(g83
g64
NtRp4683
(dp4684
g67
(dp4685
sg76
g4679
sg69
(lp4686
g62
(g63
g64
NtRp4687
(dp4688
g67
(dp4689
g75
I4
ssg76
g4683
sg69
(lp4690
g62
(g71
g64
NtRp4691
(dp4692
g67
(dp4693
g75
I3
ssg76
Nsg69
(lp4694
g62
(g78
g64
NtRp4695
(dp4696
g67
(dp4697
sg76
g4691
sg69
(lp4698
g62
(g83
g64
NtRp4699
(dp4700
g67
(dp4701
sg76
g4695
sg69
(lp4702
g62
(g63
g64
NtRp4703
(dp4704
g67
(dp4705
g75
I3
ssg76
g4699
sg69
(lp4706
g4636
(S's\x08\x00\x00\x00Felicity'
tRp4707
asbasbasbag62
(g78
g64
NtRp4708
(dp4709
g67
(dp4710
sg76
g4691
sg69
(lp4711
g62
(g83
g64
NtRp4712
(dp4713
g67
(dp4714
sg76
g4708
sg69
(lp4715
g62
(g63
g64
NtRp4716
(dp4717
g67
(dp4718
g75
I3
ssg76
g4712
sg69
(lp4719
g105
asbasbasbag62
(g78
g64
NtRp4720
(dp4721
g67
(dp4722
sg76
g4691
sg69
(lp4723
g62
(g83
g64
NtRp4724
(dp4725
g67
(dp4726
sg76
g4720
sg69
(lp4727
g62
(g63
g64
NtRp4728
(dp4729
g67
(dp4730
g75
I3
ssg76
g4724
sg69
(lp4731
S'http://felicity.iiit.ac.in'
p4732
asbasbasbag62
(g78
g64
NtRp4733
(dp4734
g67
(dp4735
sg76
g4691
sg69
(lp4736
g62
(g83
g64
NtRp4737
(dp4738
g67
(dp4739
sg76
g4733
sg69
(lp4740
g62
(g63
g64
NtRp4741
(dp4742
g67
(dp4743
g75
I3
ssg76
g4737
sg69
(lp4744
g62
(g71
g64
NtRp4745
(dp4746
g67
(dp4747
g75
I2
ssg76
Nsg69
(lp4748
sbasbasbasbasbasbasbasbasbasbasbasbag62
(g78
g64
NtRp4749
(dp4750
g67
(dp4751
sg76
g4143
sg69
(lp4752
g62
(g83
g64
NtRp4753
(dp4754
g67
(dp4755
g87
g88
ssg76
g4749
sg69
(lp4756
S'meta'
p4757
asbag62
(g83
g64
NtRp4758
(dp4759
g67
(dp4760
g94
g95
ssg76
g4749
sg69
(lp4761
S':'
asbag62
(g83
g64
NtRp4762
(dp4763
g67
(dp4764
sg76
g4749
sg69
(lp4765
g62
(g63
g64
NtRp4766
(dp4767
g67
(dp4768
g75
I5
ssg76
g4762
sg69
(lp4769
g62
(g71
g64
NtRp4770
(dp4771
g67
(dp4772
g75
I4
ssg76
Nsg69
(lp4773
g62
(g78
g64
NtRp4774
(dp4775
g67
(dp4776
sg76
g4770
sg69
(lp4777
g62
(g83
g64
NtRp4778
(dp4779
g67
(dp4780
g87
g88
ssg76
g4774
sg69
(lp4781
S'author'
p4782
asbag62
(g83
g64
NtRp4783
(dp4784
g67
(dp4785
g94
g95
ssg76
g4774
sg69
(lp4786
S':'
asbag62
(g83
g64
NtRp4787
(dp4788
g67
(dp4789
sg76
g4774
sg69
(lp4790
g62
(g63
g64
NtRp4791
(dp4792
g67
(dp4793
g75
I4
ssg76
g4787
sg69
(lp4794
S'Your Name <you@example.com>'
p4795
asbasbasbag62
(g78
g64
NtRp4796
(dp4797
g67
(dp4798
sg76
g4770
sg69
(lp4799
g62
(g83
g64
NtRp4800
(dp4801
g67
(dp4802
g87
g88
ssg76
g4796
sg69
(lp4803
S'copyright'
p4804
asbag62
(g83
g64
NtRp4805
(dp4806
g67
(dp4807
g94
g95
ssg76
g4796
sg69
(lp4808
S':'
asbag62
(g83
g64
NtRp4809
(dp4810
g67
(dp4811
sg76
g4796
sg69
(lp4812
g62
(g63
g64
NtRp4813
(dp4814
g67
(dp4815
g75
I4
ssg76
g4809
sg69
(lp4816
S'Copyright 2011'
p4817
asbasbasbag62
(g78
g64
NtRp4818
(dp4819
g67
(dp4820
sg76
g4770
sg69
(lp4821
g62
(g83
g64
NtRp4822
(dp4823
g67
(dp4824
g87
g88
ssg76
g4818
sg69
(lp4825
S'description'
p4826
asbag62
(g83
g64
NtRp4827
(dp4828
g67
(dp4829
g94
g95
ssg76
g4818
sg69
(lp4830
S':'
asbag62
(g83
g64
NtRp4831
(dp4832
g67
(dp4833
sg76
g4818
sg69
(lp4834
g62
(g63
g64
NtRp4835
(dp4836
g67
(dp4837
g75
I4
ssg76
g4831
sg69
(lp4838
S'a cool new app'
p4839
asbasbasbag62
(g78
g64
NtRp4840
(dp4841
g67
(dp4842
sg76
g4770
sg69
(lp4843
g62
(g83
g64
NtRp4844
(dp4845
g67
(dp4846
g87
g88
ssg76
g4840
sg69
(lp4847
S'generator'
p4848
asbag62
(g83
g64
NtRp4849
(dp4850
g67
(dp4851
g94
g95
ssg76
g4840
sg69
(lp4852
S':'
asbag62
(g83
g64
NtRp4853
(dp4854
g67
(dp4855
sg76
g4840
sg69
(lp4856
g62
(g63
g64
NtRp4857
(dp4858
g67
(dp4859
g75
I4
ssg76
g4853
sg69
(lp4860
S'Web2py Web Framework'
p4861
asbasbasbag62
(g78
g64
NtRp4862
(dp4863
g67
(dp4864
sg76
g4770
sg69
(lp4865
g62
(g83
g64
NtRp4866
(dp4867
g67
(dp4868
g87
g88
ssg76
g4862
sg69
(lp4869
S'keywords'
p4870
asbag62
(g83
g64
NtRp4871
(dp4872
g67
(dp4873
g94
g95
ssg76
g4862
sg69
(lp4874
S':'
asbag62
(g83
g64
NtRp4875
(dp4876
g67
(dp4877
sg76
g4862
sg69
(lp4878
g62
(g63
g64
NtRp4879
(dp4880
g67
(dp4881
g75
I4
ssg76
g4875
sg69
(lp4882
S'web2py, python, framework'
p4883
asbasbasbasbasbasbasbag62
(g78
g64
NtRp4884
(dp4885
g67
(dp4886
sg76
g4143
sg69
(lp4887
g62
(g83
g64
NtRp4888
(dp4889
g67
(dp4890
g87
g88
ssg76
g4884
sg69
(lp4891
S'postprocessing'
p4892
asbag62
(g83
g64
NtRp4893
(dp4894
g67
(dp4895
g94
g95
ssg76
g4884
sg69
(lp4896
S':'
asbag62
(g83
g64
NtRp4897
(dp4898
g67
(dp4899
sg76
g4884
sg69
(lp4900
g62
(g63
g64
NtRp4901
(dp4902
g67
(dp4903
g75
I5
ssg76
g4897
sg69
(lp4904
g62
(g71
g64
NtRp4905
(dp4906
g67
(dp4907
g75
I4
ssg76
Nsg69
(lp4908
sbasbasbasbag62
(g78
g64
NtRp4909
(dp4910
g67
(dp4911
sg76
g4143
sg69
(lp4912
g62
(g83
g64
NtRp4913
(dp4914
g67
(dp4915
g87
g88
ssg76
g4909
sg69
(lp4916
S'session_file'
p4917
asbag62
(g83
g64
NtRp4918
(dp4919
g67
(dp4920
g94
g95
ssg76
g4909
sg69
(lp4921
S':'
asbag62
(g83
g64
NtRp4922
(dp4923
g67
(dp4924
sg76
g4909
sg69
(lp4925
g62
(g63
g64
NtRp4926
(dp4927
g67
(dp4928
g75
I5
ssg76
g4922
sg69
(lp4929
S"<open file '/var/www/web2py/applications/Threads_Beta/sessions/10.1.34.61-3114cc7b-425a-4da5-9d92-36a7f5bc0cd8', mode 'rb+' at 0x7fba28bd9420>"
p4930
asbasbasbag62
(g78
g64
NtRp4931
(dp4932
g67
(dp4933
sg76
g4143
sg69
(lp4934
g62
(g83
g64
NtRp4935
(dp4936
g67
(dp4937
g87
g88
ssg76
g4931
sg69
(lp4938
S'session_filename'
p4939
asbag62
(g83
g64
NtRp4940
(dp4941
g67
(dp4942
g94
g95
ssg76
g4931
sg69
(lp4943
S':'
asbag62
(g83
g64
NtRp4944
(dp4945
g67
(dp4946
sg76
g4931
sg69
(lp4947
g62
(g63
g64
NtRp4948
(dp4949
g67
(dp4950
g75
I5
ssg76
g4944
sg69
(lp4951
S'/var/www/web2py/applications/Threads_Beta/sessions/10.1.34.61-3114cc7b-425a-4da5-9d92-36a7f5bc0cd8'
p4952
asbasbasbag62
(g78
g64
NtRp4953
(dp4954
g67
(dp4955
sg76
g4143
sg69
(lp4956
g62
(g83
g64
NtRp4957
(dp4958
g67
(dp4959
g87
g88
ssg76
g4953
sg69
(lp4960
S'session_id'
p4961
asbag62
(g83
g64
NtRp4962
(dp4963
g67
(dp4964
g94
g95
ssg76
g4953
sg69
(lp4965
S':'
asbag62
(g83
g64
NtRp4966
(dp4967
g67
(dp4968
sg76
g4953
sg69
(lp4969
g62
(g63
g64
NtRp4970
(dp4971
g67
(dp4972
g75
I5
ssg76
g4966
sg69
(lp4973
S'10.1.34.61-3114cc7b-425a-4da5-9d92-36a7f5bc0cd8'
p4974
asbasbasbag62
(g78
g64
NtRp4975
(dp4976
g67
(dp4977
sg76
g4143
sg69
(lp4978
g62
(g83
g64
NtRp4979
(dp4980
g67
(dp4981
g87
g88
ssg76
g4975
sg69
(lp4982
S'session_id_name'
p4983
asbag62
(g83
g64
NtRp4984
(dp4985
g67
(dp4986
g94
g95
ssg76
g4975
sg69
(lp4987
S':'
asbag62
(g83
g64
NtRp4988
(dp4989
g67
(dp4990
sg76
g4975
sg69
(lp4991
g62
(g63
g64
NtRp4992
(dp4993
g67
(dp4994
g75
I5
ssg76
g4988
sg69
(lp4995
g4200
asbasbasbag62
(g78
g64
NtRp4996
(dp4997
g67
(dp4998
sg76
g4143
sg69
(lp4999
g62
(g83
g64
NtRp5000
(dp5001
g67
(dp5002
g87
g88
ssg76
g4996
sg69
(lp5003
S'session_locked'
p5004
asbag62
(g83
g64
NtRp5005
(dp5006
g67
(dp5007
g94
g95
ssg76
g4996
sg69
(lp5008
S':'
asbag62
(g83
g64
NtRp5009
(dp5010
g67
(dp5011
sg76
g4996
sg69
(lp5012
g62
(g63
g64
NtRp5013
(dp5014
g67
(dp5015
g75
I5
ssg76
g5009
sg69
(lp5016
g1751
asbasbasbag62
(g78
g64
NtRp5017
(dp5018
g67
(dp5019
sg76
g4143
sg69
(lp5020
g62
(g83
g64
NtRp5021
(dp5022
g67
(dp5023
g87
g88
ssg76
g5017
sg69
(lp5024
S'session_new'
p5025
asbag62
(g83
g64
NtRp5026
(dp5027
g67
(dp5028
g94
g95
ssg76
g5017
sg69
(lp5029
S':'
asbag62
(g83
g64
NtRp5030
(dp5031
g67
(dp5032
sg76
g5017
sg69
(lp5033
g62
(g63
g64
NtRp5034
(dp5035
g67
(dp5036
g75
I5
ssg76
g5030
sg69
(lp5037
g105
asbasbasbag62
(g78
g64
NtRp5038
(dp5039
g67
(dp5040
sg76
g4143
sg69
(lp5041
g62
(g83
g64
NtRp5042
(dp5043
g67
(dp5044
g87
g88
ssg76
g5038
sg69
(lp5045
S'status'
p5046
asbag62
(g83
g64
NtRp5047
(dp5048
g67
(dp5049
g94
g95
ssg76
g5038
sg69
(lp5050
S':'
asbag62
(g83
g64
NtRp5051
(dp5052
g67
(dp5053
sg76
g5038
sg69
(lp5054
g62
(g63
g64
NtRp5055
(dp5056
g67
(dp5057
g75
I5
ssg76
g5051
sg69
(lp5058
S'200'
p5059
asbasbasbag62
(g78
g64
NtRp5060
(dp5061
g67
(dp5062
sg76
g4143
sg69
(lp5063
g62
(g83
g64
NtRp5064
(dp5065
g67
(dp5066
g87
g88
ssg76
g5060
sg69
(lp5067
S'subtitle'
p5068
asbag62
(g83
g64
NtRp5069
(dp5070
g67
(dp5071
g94
g95
ssg76
g5060
sg69
(lp5072
S':'
asbag62
(g83
g64
NtRp5073
(dp5074
g67
(dp5075
sg76
g5060
sg69
(lp5076
g62
(g63
g64
NtRp5077
(dp5078
g67
(dp5079
g75
I5
ssg76
g5073
sg69
(lp5080
g4636
(S's\r\x00\x00\x00customize me!'
tRp5081
asbasbasbag62
(g78
g64
NtRp5082
(dp5083
g67
(dp5084
sg76
g4143
sg69
(lp5085
g62
(g83
g64
NtRp5086
(dp5087
g67
(dp5088
g87
g88
ssg76
g5082
sg69
(lp5089
S'title'
p5090
asbag62
(g83
g64
NtRp5091
(dp5092
g67
(dp5093
g94
g95
ssg76
g5082
sg69
(lp5094
S':'
asbag62
(g83
g64
NtRp5095
(dp5096
g67
(dp5097
sg76
g5082
sg69
(lp5098
g62
(g63
g64
NtRp5099
(dp5100
g67
(dp5101
g75
I5
ssg76
g5095
sg69
(lp5102
S'Threads Beta'
p5103
asbasbasbag62
(g78
g64
NtRp5104
(dp5105
g67
(dp5106
sg76
g4143
sg69
(lp5107
g62
(g83
g64
NtRp5108
(dp5109
g67
(dp5110
g87
g88
ssg76
g5104
sg69
(lp5111
g2414
asbag62
(g83
g64
NtRp5112
(dp5113
g67
(dp5114
g94
g95
ssg76
g5104
sg69
(lp5115
S':'
asbag62
(g83
g64
NtRp5116
(dp5117
g67
(dp5118
sg76
g5104
sg69
(lp5119
g62
(g63
g64
NtRp5120
(dp5121
g67
(dp5122
g75
I5
ssg76
g5116
sg69
(lp5123
g2427
asbasbasbag62
(g78
g64
NtRp5124
(dp5125
g67
(dp5126
sg76
g4143
sg69
(lp5127
g62
(g83
g64
NtRp5128
(dp5129
g67
(dp5130
g87
g88
ssg76
g5124
sg69
(lp5131
S'view'
p5132
asbag62
(g83
g64
NtRp5133
(dp5134
g67
(dp5135
g94
g95
ssg76
g5124
sg69
(lp5136
S':'
asbag62
(g83
g64
NtRp5137
(dp5138
g67
(dp5139
sg76
g5124
sg69
(lp5140
g62
(g63
g64
NtRp5141
(dp5142
g67
(dp5143
g75
I5
ssg76
g5137
sg69
(lp5144
S'default/judge.html'
p5145
asbasbasbasbasbsS'locals'
p5146
(dp5147
S'file_descriptor'
p5148
S'<cStringIO.StringO object>'
p5149
sS'user_id'
p5150
S'1'
sS'key'
p5151
S"'file'"
p5152
sS'question_no'
p5153
S'3'
sS'event_id'
p5154
S'1'
sS'temp_storage_filename'
p5155
S"'/tmp/Felicity/submission_3_1_1L3B0M.cpp'"
p5156
sg35
S"'tmp.cpp'"
p5157
sS'temp_storage_file'
p5158
S"'submission_3_1_1L3B0M.cpp'"
p5159
sg2323
S'{\'event_id\': \'1\', \'file\': FieldStorage(\'file\', \'tmp.cpp\', \'#include<cstdio..."%d",&a);\\n\\tprintf("MADDY\\\'s BOND %d",a);\\n}\\n\'), \'question_no\': \'3\'}'
p5160
sS'temp_dir'
p5161
S"'/tmp/Felicity/'"
p5162
sS'file_size'
p5163
S'110'
p5164
sS'user_event'
p5165
S"<Row {'status': 'Bad Going!', 'user_id': '1', 'u..._record': <function <lambda> at 0x7fba20660f50>}>"
p5166
sssS'traceback'
p5167
S'Traceback (most recent call last):\n  File "/var/www/web2py/gluon/restricted.py", line 204, in restricted\n    exec ccode in environment\n  File "/var/www/web2py/applications/Threads_Beta/controllers/default.py", line 235, in <module>\n  File "/var/www/web2py/gluon/globals.py", line 172, in <lambda>\n    self._caller = lambda f: f()\n  File "/var/www/web2py/gluon/tools.py", line 2533, in f\n    return action(*a, **b)\n  File "/var/www/web2py/applications/Threads_Beta/controllers/default.py", line 123, in judge\n    shutil.copyfileobj(file_descriptor,open(temp_storage_filename,\'wb\'))\nIOError: [Errno 2] No such file or directory: \'/tmp/Felicity/submission_3_1_1L3B0M.cpp\'\n'
p5168
s.