(dp1
S'output'
p2
S'<class \'pycurl.error\'> (7, "couldn\'t connect to host")'
p3
sS'layer'
p4
S'/var/www/web2py/applications/Threads_Beta/controllers/default.py'
p5
sS'code'
p6
S'# -*- coding: utf-8 -*-\n# this file is released under public domain and you can use without limitations\n\n#########################################################################\n## This is a samples controller\n## - index is the default action of any application\n## - user is required for authentication and authorization\n## - download is for downloading files uploaded in the db (does streaming)\n## - call exposes all registered services (none by default)\n#########################################################################\nimport cStringIO\nimport pycurl\nimport shutil\nimport string\nimport random\nimport os\nimport urllib\nimport json\ndef index():\n    """\n    example action using the internationalization operator T and flash\n    rendered by views/default/index.html or views/generic.html\n    """\n    response.flash = "Welcome to Felicity!"\n    events = db(db.events.id>0).select()\n    title = T(\'Threads at Felicity-2013\')\n    about = T(\'Threads is the annual online programming and quizzing event at Felicity. This sees great amount of participation from over  67 countries\')\n    return dict(events = events,about = about,title=title)\ndef event_home():\n    tab_id = int(request.get_vars[\'tab_id\'])\n    event_id = int(request.get_vars[\'event_id\'])\n    row = db((db.event_tab.id>0 )& (db.event_tab.event_id==event_id) & (db.event_tab.tab_id==tab_id)).select()\n\n    about = "Felicity is IIIT-Hyderabad\'s annual technno-cultural Festival."\n    title = "Error!"\n\n    if(row):\n        about = row[0].raw_content\n        title = row[0].title\n    tabs = db((db.event_tab.id>0) & (db.event_tab.event_id==event_id)).select()\n    return dict(about = about,title=title,tabs = tabs,event_id = event_id)\n\n\n@auth.requires_login()\ndef questions():\n    event_id = int(request.get_vars[\'event_id\'])\n    question_no = int(request.get_vars[\'question_no\'])\n    if \'message\' in request.get_vars.keys():\n        response.flash = request.get_vars[\'message\']\n\n    event_details= db(db.events.id==event_id).select()[0]\n    #If User is NOT registered for the given event , register him/her with default score = 0\n    user_id = auth.user.id \n    event_user_rows = db((db.event_user.event_id==event_id)&(db.event_user.user_id == user_id)).select()\n    if len(event_user_rows) <= 0:\n        response.flash = "Woa a new competitor!"\n        db.event_user.insert(event_id=event_id,user_id = user_id,score=0,status=\'Participating\',penalty=0,current_question=1)  \n    elif( int(event_details.flow_of_questions) == 1 ):\n        question_no= event_user_rows[0].current_question\n\n\n    #Tabs to be displayed on the RHS block\n    tabs = db((db.event_tab.id>0) & (db.event_tab.event_id==event_id)).select()\n    \n\n\n    #Comments Form\n    db.comments.user_id.default = user_id\n    db.comments.event_id.default = event_id\n    db.comments.question_no.default = question_no\n    form = SQLFORM(db.comments)\n    if form.process().accepted:\n        response.flash = "Comment will become public after moderation"\n\n    if(question_no > 0):\n        all_comments = db((db.comments.event_id==event_id)&(db.comments.question_no==question_no)).select()\n    else:\n        all_comments = []\n\n    \n    a = int(event_details.flow_of_questions)\n    response.flash = a\n    if(question_no == 0 and a == 2):\n        list_of_questions = db((db.question.id>0)&(db.question.event== event_id)).select()\n        question_title = "List of questions"\n        return dict(user_details = auth.user,question_title = question_title, list_of_questions=list_of_questions,tabs = tabs, event_id = event_id,form=form,comments=all_comments)\n    \n    else:\n        question_details = db((db.question.event ==event_id) & (db.question.question_no == question_no)).select()[0]\n        if(question_details):\n            question_title = question_details.title\n    \n            return dict(user_details = auth.user,question_title= question_title,question_statement = question_details.question, answer = question_details.answer,tabs=tabs,event_id=event_id,user_id = user_id,question_no = question_no,form=form,comments=all_comments)\n\n\n@auth.requires_login()\ndef judge():\n    question_no = int(request.get_vars[\'question_no\'])\n    event_id = int(request.get_vars[\'event_id\'])\n\n    user_id = auth.user.id\n    user_event = db((db.event_user.user_id == user_id)&(db.event_user.event_id==event_id)).select()[0]\n    question_no = int(user_event[\'current_question\'])\n    #Dictionary that will hold all the data to be passed to the black-box judge\n    post_vars = {}\n    file_size = 0\n    for key in request.vars.keys():\n        post_vars[key] = request.vars[key]\n    #If thtere is a file upload. NOTE that any question may have a MAXIMUM of one file upload per question.\n    if \'file\' in request.vars.keys():\n        # THis will take the file, write it on to the file and transfer it to the judge\'s local system.\n        # uses POST for input and SCP for transfering. Make sure that the judge\'s authorized_keys has the Apache\'s key in it. Basically a passwordless login should be enabled for user \'apache\'\n        filename = request.vars.file.filename\n        file_descriptor = request.vars.file.file\n        file_descriptor.seek(0,2)\n        file_size = file_descriptor.tell()\n        file_descriptor.seek(0,0)   \n        temp_dir = "/tmp/Felicity/"\n\n        # Temp filename = submission_<EVENT-ID>_<USER-ID>_<Unique-string>.<ext>\n        temp_storage_file = "submission_"+str(question_no)+"_"+str(event_id)+"_"+str(auth.user.id)+str(\'\'.join(random.choice(string.ascii_uppercase + string.digits) for x in range(5)))+os.path.splitext(filename)[1]\n        temp_storage_filename = temp_dir + temp_storage_file\n        shutil.copyfileobj(file_descriptor,open(temp_storage_filename,\'wb\'))\n         \n        row = db(db.events.id==event_id).select()[0]\n        #Transfer the string using SCP.\n        organizer = row[\'organizer\']\n        judge_ip = row[\'judge\'].split(\':\')[0]\n        scp= \'scp %s %s@%s:~/judge/uploads/.\'%(temp_storage_filename,organizer,judge_ip)\n        os.system(scp)\n        post_vars[\'file\'] = temp_storage_file\n        \n        \n\n\n\n    #Convert the variables to be passed into a form passable thru GET\n    data_post = urllib.urlencode(post_vars)\n\n    #Establish a connection, and communicate with the blackbox judge using cURL\n    #Based on what is sent to the black-box judge, it will reply with the following :\n    #    1. Event-ID\n    #    2. Score increment\n    #    3. Penalty increment\n    #    4. Current question in case of an event with sequential questions.\n    #    5. Status to be displayed : ususally "correct", "wrong" or the like\n    buf = cStringIO.StringIO()\n    c = pycurl.Curl()\n    curl_request = "http://localhost:10001"\n    c.setopt(pycurl.URL, curl_request)\n    c.setopt(pycurl.POST,1)\n    c.setopt(pycurl.POSTFIELDS, data_post)\n    c.setopt(pycurl.WRITEFUNCTION, buf.write)\n    c.perform()\n    ret_val = buf.getvalue()\n    buf.close()\n    #End of communication\n\n   \n    \n    response_dict = json.loads(ret_val) #converts the response string into a dictionary understandable by Python\n\n\n    \n    #Update the user with the response obtained above. \n    db((db.event_user.event_id == response_dict[\'event_id\'])&(db.event_user.user_id == user_id)).update(score = int(user_event[\'score\'])+response_dict[\'score\'], status = response_dict[\'status\'],penalty=int(response_dict[\'penalty\'])+int(user_event[\'penalty\']),current_question = int(response_dict[\'current_question\']))\n    response.flash = (response_dict[\'status\'])\n\n    #Re-direct Back to the Questions page. Either : list of questions for nonseq. type and current question for seq. type event.\n    redirect(\'questions?question_no=0&event_id=\'+str(event_id)+"&message="+response_dict[\'status\']) \n    return dict(text=ret_val)\n\n\n\ndef scoreboard():\n    event_id = request.get_vars[\'event_id\']\n    scorers = db(db.event_user.event_id == event_id).select(orderby=db.event_user.score)\n    tabs = db((db.event_tab.id>0) & (db.event_tab.event_id==event_id)).select()\n    return dict(scoreboard = scorers, tabs = tabs, event_id= event_id)\n\n\n\ndef user():\n    """\n    exposes:\n    http://..../[app]/default/user/login\n    http://..../[app]/default/user/logout\n    http://..../[app]/default/user/register\n    http://..../[app]/default/user/profile\n    http://..../[app]/default/user/retrieve_password\n    http://..../[app]/default/user/change_password\n    use @auth.requires_login()\n        @auth.requires_membership(\'group name\')\n        @auth.requires_permission(\'read\',\'table name\',record_id)\n    to decorate functions that need access control\n    """\n    return dict(form=auth())\n\n\ndef download():\n    """\n    allows downloading of uploaded files\n    http://..../[app]/default/download/[filename]\n    """\n    return response.download(request,db)\n\n\ndef call():\n    """\n    exposes services. for example:\n    http://..../[app]/default/call/jsonrpc\n    decorate with @services.jsonrpc the functions to expose\n    supports xml, json, xmlrpc, jsonrpc, amfrpc, rss, csv\n    """\n    return service()\n\n\n@auth.requires_signature()\ndef data():\n    """\n    http://..../[app]/default/data/tables\n    http://..../[app]/default/data/create/[table]\n    http://..../[app]/default/data/read/[table]/[id]\n    http://..../[app]/default/data/update/[table]/[id]\n    http://..../[app]/default/data/delete/[table]/[id]\n    http://..../[app]/default/data/select/[table]\n    http://..../[app]/default/data/search/[table]\n    but URLs must be signed, i.e. linked with\n      A(\'table\',_href=URL(\'data/tables\',user_signature=True))\n    or with the signed load operator\n      LOAD(\'default\',\'data.load\',args=\'tables\',ajax=True,user_signature=True)\n    """\n    return dict(form=crud())\n\n\nresponse._vars=response._caller(judge)\n'
p7
sS'snapshot'
p8
(dp9
S'exception'
p10
(dp11
S'__module__'
p12
S"'pycurl'"
p13
sS'__getslice__'
p14
S"<method-wrapper '__getslice__' of error object>"
p15
sS'__str__'
p16
S"<method-wrapper '__str__' of error object>"
p17
sS'__reduce__'
p18
S'<built-in method __reduce__ of error object>'
p19
sS'__dict__'
p20
S'{}'
p21
sS'__sizeof__'
p22
S'<built-in method __sizeof__ of error object>'
p23
sS'__weakref__'
p24
S'None'
p25
sS'__init__'
p26
S"<method-wrapper '__init__' of error object>"
p27
sS'__setattr__'
p28
S"<method-wrapper '__setattr__' of error object>"
p29
sS'__reduce_ex__'
p30
S'<built-in method __reduce_ex__ of error object>'
p31
sS'__new__'
p32
S'<built-in method __new__ of type object>'
p33
sS'__format__'
p34
S'<built-in method __format__ of error object>'
p35
sS'__class__'
p36
S"<class 'pycurl.error'>"
p37
sS'__doc__'
p38
S'None'
p39
sS'__getitem__'
p40
S"<method-wrapper '__getitem__' of error object>"
p41
sS'__setstate__'
p42
S'<built-in method __setstate__ of error object>'
p43
sS'__getattribute__'
p44
S"<method-wrapper '__getattribute__' of error object>"
p45
sS'args'
p46
S'(7, "couldn\'t connect to host")'
p47
sS'__subclasshook__'
p48
S'<built-in method __subclasshook__ of type object>'
p49
sS'__unicode__'
p50
S'<built-in method __unicode__ of error object>'
p51
sS'__delattr__'
p52
S"<method-wrapper '__delattr__' of error object>"
p53
sS'__repr__'
p54
S"<method-wrapper '__repr__' of error object>"
p55
sS'__hash__'
p56
S"<method-wrapper '__hash__' of error object>"
p57
ssS'evalue'
p58
S'(7, "couldn\'t connect to host")'
p59
sS'request'
p60
ccopy_reg
_reconstructor
p61
(cgluon.html
BEAUTIFY
p62
c__builtin__
object
p63
NtRp64
(dp65
S'attributes'
p66
(dp67
sS'components'
p68
(lp69
g61
(cgluon.html
TABLE
p70
g63
NtRp71
(dp72
g66
(dp73
S'level'
p74
I5
ssS'parent'
p75
Nsg68
(lp76
g61
(cgluon.html
TR
p77
g63
NtRp78
(dp79
g66
(dp80
sg75
g71
sg68
(lp81
g61
(cgluon.html
TD
p82
g63
NtRp83
(dp84
g66
(dp85
S'_style'
p86
S'font-weight:bold;vertical-align:top'
p87
ssg75
g78
sg68
(lp88
S'ajax'
p89
asbag61
(g82
g63
NtRp90
(dp91
g66
(dp92
S'_valign'
p93
S'top'
p94
ssg75
g78
sg68
(lp95
S':'
asbag61
(g82
g63
NtRp96
(dp97
g66
(dp98
sg75
g78
sg68
(lp99
g61
(g62
g63
NtRp100
(dp101
g66
(dp102
g74
I5
ssg75
g96
sg68
(lp103
S'False'
p104
asbasbasbag61
(g77
g63
NtRp105
(dp106
g66
(dp107
sg75
g71
sg68
(lp108
g61
(g82
g63
NtRp109
(dp110
g66
(dp111
g86
g87
ssg75
g105
sg68
(lp112
S'application'
p113
asbag61
(g82
g63
NtRp114
(dp115
g66
(dp116
g93
g94
ssg75
g105
sg68
(lp117
S':'
asbag61
(g82
g63
NtRp118
(dp119
g66
(dp120
sg75
g105
sg68
(lp121
g61
(g62
g63
NtRp122
(dp123
g66
(dp124
g74
I5
ssg75
g118
sg68
(lp125
S'Threads_Beta'
p126
asbasbasbag61
(g77
g63
NtRp127
(dp128
g66
(dp129
sg75
g71
sg68
(lp130
g61
(g82
g63
NtRp131
(dp132
g66
(dp133
g86
g87
ssg75
g127
sg68
(lp134
g46
asbag61
(g82
g63
NtRp135
(dp136
g66
(dp137
g93
g94
ssg75
g127
sg68
(lp138
S':'
asbag61
(g82
g63
NtRp139
(dp140
g66
(dp141
sg75
g127
sg68
(lp142
g61
(g62
g63
NtRp143
(dp144
g66
(dp145
g74
I5
ssg75
g139
sg68
(lp146
g61
(g70
g63
NtRp147
(dp148
g66
(dp149
g74
I4
ssg75
Nsg68
(lp150
sbasbasbasbag61
(g77
g63
NtRp151
(dp152
g66
(dp153
sg75
g71
sg68
(lp154
g61
(g82
g63
NtRp155
(dp156
g66
(dp157
g86
g87
ssg75
g151
sg68
(lp158
S'body'
p159
asbag61
(g82
g63
NtRp160
(dp161
g66
(dp162
g93
g94
ssg75
g151
sg68
(lp163
S':'
asbag61
(g82
g63
NtRp164
(dp165
g66
(dp166
sg75
g151
sg68
(lp167
g61
(g62
g63
NtRp168
(dp169
g66
(dp170
g74
I5
ssg75
g164
sg68
(lp171
S"<open file '<fdopen>', mode 'w+b' at 0x7fba20673540>"
p172
asbasbasbag61
(g77
g63
NtRp173
(dp174
g66
(dp175
sg75
g71
sg68
(lp176
g61
(g82
g63
NtRp177
(dp178
g66
(dp179
g86
g87
ssg75
g173
sg68
(lp180
S'client'
p181
asbag61
(g82
g63
NtRp182
(dp183
g66
(dp184
g93
g94
ssg75
g173
sg68
(lp185
S':'
asbag61
(g82
g63
NtRp186
(dp187
g66
(dp188
sg75
g173
sg68
(lp189
g61
(g62
g63
NtRp190
(dp191
g66
(dp192
g74
I5
ssg75
g186
sg68
(lp193
S'10.1.34.61'
p194
asbasbasbag61
(g77
g63
NtRp195
(dp196
g66
(dp197
sg75
g71
sg68
(lp198
g61
(g82
g63
NtRp199
(dp200
g66
(dp201
g86
g87
ssg75
g195
sg68
(lp202
S'controller'
p203
asbag61
(g82
g63
NtRp204
(dp205
g66
(dp206
g93
g94
ssg75
g195
sg68
(lp207
S':'
asbag61
(g82
g63
NtRp208
(dp209
g66
(dp210
sg75
g195
sg68
(lp211
g61
(g62
g63
NtRp212
(dp213
g66
(dp214
g74
I5
ssg75
g208
sg68
(lp215
S'default'
p216
asbasbasbag61
(g77
g63
NtRp217
(dp218
g66
(dp219
sg75
g71
sg68
(lp220
g61
(g82
g63
NtRp221
(dp222
g66
(dp223
g86
g87
ssg75
g217
sg68
(lp224
S'cookies'
p225
asbag61
(g82
g63
NtRp226
(dp227
g66
(dp228
g93
g94
ssg75
g217
sg68
(lp229
S':'
asbag61
(g82
g63
NtRp230
(dp231
g66
(dp232
sg75
g217
sg68
(lp233
g61
(g62
g63
NtRp234
(dp235
g66
(dp236
g74
I5
ssg75
g230
sg68
(lp237
g61
(g70
g63
NtRp238
(dp239
g66
(dp240
g74
I4
ssg75
Nsg68
(lp241
g61
(g77
g63
NtRp242
(dp243
g66
(dp244
sg75
g238
sg68
(lp245
g61
(g82
g63
NtRp246
(dp247
g66
(dp248
g86
g87
ssg75
g242
sg68
(lp249
S'session_id_threads_beta'
p250
asbag61
(g82
g63
NtRp251
(dp252
g66
(dp253
g93
g94
ssg75
g242
sg68
(lp254
S':'
asbag61
(g82
g63
NtRp255
(dp256
g66
(dp257
sg75
g242
sg68
(lp258
g61
(g62
g63
NtRp259
(dp260
g66
(dp261
g74
I4
ssg75
g255
sg68
(lp262
g61
(g70
g63
NtRp263
(dp264
g66
(dp265
g74
I3
ssg75
Nsg68
(lp266
g61
(g77
g63
NtRp267
(dp268
g66
(dp269
sg75
g263
sg68
(lp270
g61
(g82
g63
NtRp271
(dp272
g66
(dp273
g86
g87
ssg75
g267
sg68
(lp274
S'comment'
p275
asbag61
(g82
g63
NtRp276
(dp277
g66
(dp278
g93
g94
ssg75
g267
sg68
(lp279
S':'
asbag61
(g82
g63
NtRp280
(dp281
g66
(dp282
sg75
g267
sg68
(lp283
g61
(g62
g63
NtRp284
(dp285
g66
(dp286
g74
I3
ssg75
g280
sg68
(lp287
S''
asbasbasbag61
(g77
g63
NtRp288
(dp289
g66
(dp290
sg75
g263
sg68
(lp291
g61
(g82
g63
NtRp292
(dp293
g66
(dp294
g86
g87
ssg75
g288
sg68
(lp295
S'domain'
p296
asbag61
(g82
g63
NtRp297
(dp298
g66
(dp299
g93
g94
ssg75
g288
sg68
(lp300
S':'
asbag61
(g82
g63
NtRp301
(dp302
g66
(dp303
sg75
g288
sg68
(lp304
g61
(g62
g63
NtRp305
(dp306
g66
(dp307
g74
I3
ssg75
g301
sg68
(lp308
S''
asbasbasbag61
(g77
g63
NtRp309
(dp310
g66
(dp311
sg75
g263
sg68
(lp312
g61
(g82
g63
NtRp313
(dp314
g66
(dp315
g86
g87
ssg75
g309
sg68
(lp316
S'expires'
p317
asbag61
(g82
g63
NtRp318
(dp319
g66
(dp320
g93
g94
ssg75
g309
sg68
(lp321
S':'
asbag61
(g82
g63
NtRp322
(dp323
g66
(dp324
sg75
g309
sg68
(lp325
g61
(g62
g63
NtRp326
(dp327
g66
(dp328
g74
I3
ssg75
g322
sg68
(lp329
S''
asbasbasbag61
(g77
g63
NtRp330
(dp331
g66
(dp332
sg75
g263
sg68
(lp333
g61
(g82
g63
NtRp334
(dp335
g66
(dp336
g86
g87
ssg75
g330
sg68
(lp337
S'httponly'
p338
asbag61
(g82
g63
NtRp339
(dp340
g66
(dp341
g93
g94
ssg75
g330
sg68
(lp342
S':'
asbag61
(g82
g63
NtRp343
(dp344
g66
(dp345
sg75
g330
sg68
(lp346
g61
(g62
g63
NtRp347
(dp348
g66
(dp349
g74
I3
ssg75
g343
sg68
(lp350
S''
asbasbasbag61
(g77
g63
NtRp351
(dp352
g66
(dp353
sg75
g263
sg68
(lp354
g61
(g82
g63
NtRp355
(dp356
g66
(dp357
g86
g87
ssg75
g351
sg68
(lp358
S'max-age'
p359
asbag61
(g82
g63
NtRp360
(dp361
g66
(dp362
g93
g94
ssg75
g351
sg68
(lp363
S':'
asbag61
(g82
g63
NtRp364
(dp365
g66
(dp366
sg75
g351
sg68
(lp367
g61
(g62
g63
NtRp368
(dp369
g66
(dp370
g74
I3
ssg75
g364
sg68
(lp371
S''
asbasbasbag61
(g77
g63
NtRp372
(dp373
g66
(dp374
sg75
g263
sg68
(lp375
g61
(g82
g63
NtRp376
(dp377
g66
(dp378
g86
g87
ssg75
g372
sg68
(lp379
S'path'
p380
asbag61
(g82
g63
NtRp381
(dp382
g66
(dp383
g93
g94
ssg75
g372
sg68
(lp384
S':'
asbag61
(g82
g63
NtRp385
(dp386
g66
(dp387
sg75
g372
sg68
(lp388
g61
(g62
g63
NtRp389
(dp390
g66
(dp391
g74
I3
ssg75
g385
sg68
(lp392
S''
asbasbasbag61
(g77
g63
NtRp393
(dp394
g66
(dp395
sg75
g263
sg68
(lp396
g61
(g82
g63
NtRp397
(dp398
g66
(dp399
g86
g87
ssg75
g393
sg68
(lp400
S'secure'
p401
asbag61
(g82
g63
NtRp402
(dp403
g66
(dp404
g93
g94
ssg75
g393
sg68
(lp405
S':'
asbag61
(g82
g63
NtRp406
(dp407
g66
(dp408
sg75
g393
sg68
(lp409
g61
(g62
g63
NtRp410
(dp411
g66
(dp412
g74
I3
ssg75
g406
sg68
(lp413
S''
asbasbasbag61
(g77
g63
NtRp414
(dp415
g66
(dp416
sg75
g263
sg68
(lp417
g61
(g82
g63
NtRp418
(dp419
g66
(dp420
g86
g87
ssg75
g414
sg68
(lp421
S'version'
p422
asbag61
(g82
g63
NtRp423
(dp424
g66
(dp425
g93
g94
ssg75
g414
sg68
(lp426
S':'
asbag61
(g82
g63
NtRp427
(dp428
g66
(dp429
sg75
g414
sg68
(lp430
g61
(g62
g63
NtRp431
(dp432
g66
(dp433
g74
I3
ssg75
g427
sg68
(lp434
S''
asbasbasbasbasbasbasbasbasbasbasbag61
(g77
g63
NtRp435
(dp436
g66
(dp437
sg75
g71
sg68
(lp438
g61
(g82
g63
NtRp439
(dp440
g66
(dp441
g86
g87
ssg75
g435
sg68
(lp442
S'env'
p443
asbag61
(g82
g63
NtRp444
(dp445
g66
(dp446
g93
g94
ssg75
g435
sg68
(lp447
S':'
asbag61
(g82
g63
NtRp448
(dp449
g66
(dp450
sg75
g435
sg68
(lp451
g61
(g62
g63
NtRp452
(dp453
g66
(dp454
g74
I5
ssg75
g448
sg68
(lp455
g61
(g70
g63
NtRp456
(dp457
g66
(dp458
g74
I4
ssg75
Nsg68
(lp459
g61
(g77
g63
NtRp460
(dp461
g66
(dp462
sg75
g456
sg68
(lp463
g61
(g82
g63
NtRp464
(dp465
g66
(dp466
g86
g87
ssg75
g460
sg68
(lp467
S'app_folders'
p468
asbag61
(g82
g63
NtRp469
(dp470
g66
(dp471
g93
g94
ssg75
g460
sg68
(lp472
S':'
asbag61
(g82
g63
NtRp473
(dp474
g66
(dp475
sg75
g460
sg68
(lp476
g61
(g62
g63
NtRp477
(dp478
g66
(dp479
g74
I4
ssg75
g473
sg68
(lp480
S"set(['/var/www/web2py/applications/Threads_Beta/', '/var/www/web2py/applications/welcome/', '/var/www/web2py/applications/ChatBot_V4/', '/var/www/web2py/applications/admin/'])"
p481
asbasbasbag61
(g77
g63
NtRp482
(dp483
g66
(dp484
sg75
g456
sg68
(lp485
g61
(g82
g63
NtRp486
(dp487
g66
(dp488
g86
g87
ssg75
g482
sg68
(lp489
S'applications_parent'
p490
asbag61
(g82
g63
NtRp491
(dp492
g66
(dp493
g93
g94
ssg75
g482
sg68
(lp494
S':'
asbag61
(g82
g63
NtRp495
(dp496
g66
(dp497
sg75
g482
sg68
(lp498
g61
(g62
g63
NtRp499
(dp500
g66
(dp501
g74
I4
ssg75
g495
sg68
(lp502
S'/var/www/web2py'
p503
asbasbasbag61
(g77
g63
NtRp504
(dp505
g66
(dp506
sg75
g456
sg68
(lp507
g61
(g82
g63
NtRp508
(dp509
g66
(dp510
g86
g87
ssg75
g504
sg68
(lp511
S'content_length'
p512
asbag61
(g82
g63
NtRp513
(dp514
g66
(dp515
g93
g94
ssg75
g504
sg68
(lp516
S':'
asbag61
(g82
g63
NtRp517
(dp518
g66
(dp519
sg75
g504
sg68
(lp520
g61
(g62
g63
NtRp521
(dp522
g66
(dp523
g74
I4
ssg75
g517
sg68
(lp524
S'326'
p525
asbasbasbag61
(g77
g63
NtRp526
(dp527
g66
(dp528
sg75
g456
sg68
(lp529
g61
(g82
g63
NtRp530
(dp531
g66
(dp532
g86
g87
ssg75
g526
sg68
(lp533
S'content_type'
p534
asbag61
(g82
g63
NtRp535
(dp536
g66
(dp537
g93
g94
ssg75
g526
sg68
(lp538
S':'
asbag61
(g82
g63
NtRp539
(dp540
g66
(dp541
sg75
g526
sg68
(lp542
g61
(g62
g63
NtRp543
(dp544
g66
(dp545
g74
I4
ssg75
g539
sg68
(lp546
S'multipart/form-data; boundary=---------------------------463626233863783827461203587'
p547
asbasbasbag61
(g77
g63
NtRp548
(dp549
g66
(dp550
sg75
g456
sg68
(lp551
g61
(g82
g63
NtRp552
(dp553
g66
(dp554
g86
g87
ssg75
g548
sg68
(lp555
S'db_sessions'
p556
asbag61
(g82
g63
NtRp557
(dp558
g66
(dp559
g93
g94
ssg75
g548
sg68
(lp560
S':'
asbag61
(g82
g63
NtRp561
(dp562
g66
(dp563
sg75
g548
sg68
(lp564
g61
(g62
g63
NtRp565
(dp566
g66
(dp567
g74
I4
ssg75
g561
sg68
(lp568
S'set([])'
p569
asbasbasbag61
(g77
g63
NtRp570
(dp571
g66
(dp572
sg75
g456
sg68
(lp573
g61
(g82
g63
NtRp574
(dp575
g66
(dp576
g86
g87
ssg75
g570
sg68
(lp577
S'debugging'
p578
asbag61
(g82
g63
NtRp579
(dp580
g66
(dp581
g93
g94
ssg75
g570
sg68
(lp582
S':'
asbag61
(g82
g63
NtRp583
(dp584
g66
(dp585
sg75
g570
sg68
(lp586
g61
(g62
g63
NtRp587
(dp588
g66
(dp589
g74
I4
ssg75
g583
sg68
(lp590
g104
asbasbasbag61
(g77
g63
NtRp591
(dp592
g66
(dp593
sg75
g456
sg68
(lp594
g61
(g82
g63
NtRp595
(dp596
g66
(dp597
g86
g87
ssg75
g591
sg68
(lp598
S'document_root'
p599
asbag61
(g82
g63
NtRp600
(dp601
g66
(dp602
g93
g94
ssg75
g591
sg68
(lp603
S':'
asbag61
(g82
g63
NtRp604
(dp605
g66
(dp606
sg75
g591
sg68
(lp607
g61
(g62
g63
NtRp608
(dp609
g66
(dp610
g74
I4
ssg75
g604
sg68
(lp611
S'/var/www/html'
p612
asbasbasbag61
(g77
g63
NtRp613
(dp614
g66
(dp615
sg75
g456
sg68
(lp616
g61
(g82
g63
NtRp617
(dp618
g66
(dp619
g86
g87
ssg75
g613
sg68
(lp620
S'gateway_interface'
p621
asbag61
(g82
g63
NtRp622
(dp623
g66
(dp624
g93
g94
ssg75
g613
sg68
(lp625
S':'
asbag61
(g82
g63
NtRp626
(dp627
g66
(dp628
sg75
g613
sg68
(lp629
g61
(g62
g63
NtRp630
(dp631
g66
(dp632
g74
I4
ssg75
g626
sg68
(lp633
S'CGI/1.1'
p634
asbasbasbag61
(g77
g63
NtRp635
(dp636
g66
(dp637
sg75
g456
sg68
(lp638
g61
(g82
g63
NtRp639
(dp640
g66
(dp641
g86
g87
ssg75
g635
sg68
(lp642
S'gluon_parent'
p643
asbag61
(g82
g63
NtRp644
(dp645
g66
(dp646
g93
g94
ssg75
g635
sg68
(lp647
S':'
asbag61
(g82
g63
NtRp648
(dp649
g66
(dp650
sg75
g635
sg68
(lp651
g61
(g62
g63
NtRp652
(dp653
g66
(dp654
g74
I4
ssg75
g648
sg68
(lp655
g503
asbasbasbag61
(g77
g63
NtRp656
(dp657
g66
(dp658
sg75
g456
sg68
(lp659
g61
(g82
g63
NtRp660
(dp661
g66
(dp662
g86
g87
ssg75
g656
sg68
(lp663
S'http_accept'
p664
asbag61
(g82
g63
NtRp665
(dp666
g66
(dp667
g93
g94
ssg75
g656
sg68
(lp668
S':'
asbag61
(g82
g63
NtRp669
(dp670
g66
(dp671
sg75
g656
sg68
(lp672
g61
(g62
g63
NtRp673
(dp674
g66
(dp675
g74
I4
ssg75
g669
sg68
(lp676
S'text/html,application/xhtml+xml,application/xml;q=0.9,*/*;q=0.8'
p677
asbasbasbag61
(g77
g63
NtRp678
(dp679
g66
(dp680
sg75
g456
sg68
(lp681
g61
(g82
g63
NtRp682
(dp683
g66
(dp684
g86
g87
ssg75
g678
sg68
(lp685
S'http_accept_encoding'
p686
asbag61
(g82
g63
NtRp687
(dp688
g66
(dp689
g93
g94
ssg75
g678
sg68
(lp690
S':'
asbag61
(g82
g63
NtRp691
(dp692
g66
(dp693
sg75
g678
sg68
(lp694
g61
(g62
g63
NtRp695
(dp696
g66
(dp697
g74
I4
ssg75
g691
sg68
(lp698
S'gzip, deflate'
p699
asbasbasbag61
(g77
g63
NtRp700
(dp701
g66
(dp702
sg75
g456
sg68
(lp703
g61
(g82
g63
NtRp704
(dp705
g66
(dp706
g86
g87
ssg75
g700
sg68
(lp707
S'http_accept_language'
p708
asbag61
(g82
g63
NtRp709
(dp710
g66
(dp711
g93
g94
ssg75
g700
sg68
(lp712
S':'
asbag61
(g82
g63
NtRp713
(dp714
g66
(dp715
sg75
g700
sg68
(lp716
g61
(g62
g63
NtRp717
(dp718
g66
(dp719
g74
I4
ssg75
g713
sg68
(lp720
S'en-us,en;q=0.5'
p721
asbasbasbag61
(g77
g63
NtRp722
(dp723
g66
(dp724
sg75
g456
sg68
(lp725
g61
(g82
g63
NtRp726
(dp727
g66
(dp728
g86
g87
ssg75
g722
sg68
(lp729
S'http_connection'
p730
asbag61
(g82
g63
NtRp731
(dp732
g66
(dp733
g93
g94
ssg75
g722
sg68
(lp734
S':'
asbag61
(g82
g63
NtRp735
(dp736
g66
(dp737
sg75
g722
sg68
(lp738
g61
(g62
g63
NtRp739
(dp740
g66
(dp741
g74
I4
ssg75
g735
sg68
(lp742
S'keep-alive'
p743
asbasbasbag61
(g77
g63
NtRp744
(dp745
g66
(dp746
sg75
g456
sg68
(lp747
g61
(g82
g63
NtRp748
(dp749
g66
(dp750
g86
g87
ssg75
g744
sg68
(lp751
S'http_cookie'
p752
asbag61
(g82
g63
NtRp753
(dp754
g66
(dp755
g93
g94
ssg75
g744
sg68
(lp756
S':'
asbag61
(g82
g63
NtRp757
(dp758
g66
(dp759
sg75
g744
sg68
(lp760
g61
(g62
g63
NtRp761
(dp762
g66
(dp763
g74
I4
ssg75
g757
sg68
(lp764
S'session_id_threads_beta=10.1.34.61-3114cc7b-425a-4da5-9d92-36a7f5bc0cd8; __utma=47423280.1696301220.1353671655.1353671655.1353675902.2; __utmc=47423280; __utmz=47423280.1353671655.1.1.utmcsr=(direct)|utmccn=(direct)|utmcmd=(none); __utmb=47423280.10.10.1353675902'
p765
asbasbasbag61
(g77
g63
NtRp766
(dp767
g66
(dp768
sg75
g456
sg68
(lp769
g61
(g82
g63
NtRp770
(dp771
g66
(dp772
g86
g87
ssg75
g766
sg68
(lp773
S'http_host'
p774
asbag61
(g82
g63
NtRp775
(dp776
g66
(dp777
g93
g94
ssg75
g766
sg68
(lp778
S':'
asbag61
(g82
g63
NtRp779
(dp780
g66
(dp781
sg75
g766
sg68
(lp782
g61
(g62
g63
NtRp783
(dp784
g66
(dp785
g74
I4
ssg75
g779
sg68
(lp786
S'felicity.iiit.ac.in'
p787
asbasbasbag61
(g77
g63
NtRp788
(dp789
g66
(dp790
sg75
g456
sg68
(lp791
g61
(g82
g63
NtRp792
(dp793
g66
(dp794
g86
g87
ssg75
g788
sg68
(lp795
S'http_referer'
p796
asbag61
(g82
g63
NtRp797
(dp798
g66
(dp799
g93
g94
ssg75
g788
sg68
(lp800
S':'
asbag61
(g82
g63
NtRp801
(dp802
g66
(dp803
sg75
g788
sg68
(lp804
g61
(g62
g63
NtRp805
(dp806
g66
(dp807
g74
I4
ssg75
g801
sg68
(lp808
S'http://felicity.iiit.ac.in/web2py/Threads_Beta/default/questions?question_no=0&event_id=1&message=Bad%20Going!'
p809
asbasbasbag61
(g77
g63
NtRp810
(dp811
g66
(dp812
sg75
g456
sg68
(lp813
g61
(g82
g63
NtRp814
(dp815
g66
(dp816
g86
g87
ssg75
g810
sg68
(lp817
S'http_user_agent'
p818
asbag61
(g82
g63
NtRp819
(dp820
g66
(dp821
g93
g94
ssg75
g810
sg68
(lp822
S':'
asbag61
(g82
g63
NtRp823
(dp824
g66
(dp825
sg75
g810
sg68
(lp826
g61
(g62
g63
NtRp827
(dp828
g66
(dp829
g74
I4
ssg75
g823
sg68
(lp830
S'Mozilla/5.0 (X11; Linux x86_64; rv:10.0.10) Gecko/20121027 Firefox/10.0.10'
p831
asbasbasbag61
(g77
g63
NtRp832
(dp833
g66
(dp834
sg75
g456
sg68
(lp835
g61
(g82
g63
NtRp836
(dp837
g66
(dp838
g86
g87
ssg75
g832
sg68
(lp839
S'is_jython'
p840
asbag61
(g82
g63
NtRp841
(dp842
g66
(dp843
g93
g94
ssg75
g832
sg68
(lp844
S':'
asbag61
(g82
g63
NtRp845
(dp846
g66
(dp847
sg75
g832
sg68
(lp848
g61
(g62
g63
NtRp849
(dp850
g66
(dp851
g74
I4
ssg75
g845
sg68
(lp852
g104
asbasbasbag61
(g77
g63
NtRp853
(dp854
g66
(dp855
sg75
g456
sg68
(lp856
g61
(g82
g63
NtRp857
(dp858
g66
(dp859
g86
g87
ssg75
g853
sg68
(lp860
S'is_pypy'
p861
asbag61
(g82
g63
NtRp862
(dp863
g66
(dp864
g93
g94
ssg75
g853
sg68
(lp865
S':'
asbag61
(g82
g63
NtRp866
(dp867
g66
(dp868
sg75
g853
sg68
(lp869
g61
(g62
g63
NtRp870
(dp871
g66
(dp872
g74
I4
ssg75
g866
sg68
(lp873
g104
asbasbasbag61
(g77
g63
NtRp874
(dp875
g66
(dp876
sg75
g456
sg68
(lp877
g61
(g82
g63
NtRp878
(dp879
g66
(dp880
g86
g87
ssg75
g874
sg68
(lp881
S'mod_wsgi_application_group'
p882
asbag61
(g82
g63
NtRp883
(dp884
g66
(dp885
g93
g94
ssg75
g874
sg68
(lp886
S':'
asbag61
(g82
g63
NtRp887
(dp888
g66
(dp889
sg75
g874
sg68
(lp890
g61
(g62
g63
NtRp891
(dp892
g66
(dp893
g74
I4
ssg75
g887
sg68
(lp894
S'felicity.iiit.ac.in|/web2py'
p895
asbasbasbag61
(g77
g63
NtRp896
(dp897
g66
(dp898
sg75
g456
sg68
(lp899
g61
(g82
g63
NtRp900
(dp901
g66
(dp902
g86
g87
ssg75
g896
sg68
(lp903
S'mod_wsgi_callable_object'
p904
asbag61
(g82
g63
NtRp905
(dp906
g66
(dp907
g93
g94
ssg75
g896
sg68
(lp908
S':'
asbag61
(g82
g63
NtRp909
(dp910
g66
(dp911
sg75
g896
sg68
(lp912
g61
(g62
g63
NtRp913
(dp914
g66
(dp915
g74
I4
ssg75
g909
sg68
(lp916
S'application'
p917
asbasbasbag61
(g77
g63
NtRp918
(dp919
g66
(dp920
sg75
g456
sg68
(lp921
g61
(g82
g63
NtRp922
(dp923
g66
(dp924
g86
g87
ssg75
g918
sg68
(lp925
S'mod_wsgi_handler_script'
p926
asbag61
(g82
g63
NtRp927
(dp928
g66
(dp929
g93
g94
ssg75
g918
sg68
(lp930
S':'
asbag61
(g82
g63
NtRp931
(dp932
g66
(dp933
sg75
g918
sg68
(lp934
g61
(g62
g63
NtRp935
(dp936
g66
(dp937
g74
I4
ssg75
g931
sg68
(lp938
S''
asbasbasbag61
(g77
g63
NtRp939
(dp940
g66
(dp941
sg75
g456
sg68
(lp942
g61
(g82
g63
NtRp943
(dp944
g66
(dp945
g86
g87
ssg75
g939
sg68
(lp946
S'mod_wsgi_input_chunked'
p947
asbag61
(g82
g63
NtRp948
(dp949
g66
(dp950
g93
g94
ssg75
g939
sg68
(lp951
S':'
asbag61
(g82
g63
NtRp952
(dp953
g66
(dp954
sg75
g939
sg68
(lp955
g61
(g62
g63
NtRp956
(dp957
g66
(dp958
g74
I4
ssg75
g952
sg68
(lp959
S'0'
asbasbasbag61
(g77
g63
NtRp960
(dp961
g66
(dp962
sg75
g456
sg68
(lp963
g61
(g82
g63
NtRp964
(dp965
g66
(dp966
g86
g87
ssg75
g960
sg68
(lp967
S'mod_wsgi_listener_host'
p968
asbag61
(g82
g63
NtRp969
(dp970
g66
(dp971
g93
g94
ssg75
g960
sg68
(lp972
S':'
asbag61
(g82
g63
NtRp973
(dp974
g66
(dp975
sg75
g960
sg68
(lp976
g61
(g62
g63
NtRp977
(dp978
g66
(dp979
g74
I4
ssg75
g973
sg68
(lp980
S''
asbasbasbag61
(g77
g63
NtRp981
(dp982
g66
(dp983
sg75
g456
sg68
(lp984
g61
(g82
g63
NtRp985
(dp986
g66
(dp987
g86
g87
ssg75
g981
sg68
(lp988
S'mod_wsgi_listener_port'
p989
asbag61
(g82
g63
NtRp990
(dp991
g66
(dp992
g93
g94
ssg75
g981
sg68
(lp993
S':'
asbag61
(g82
g63
NtRp994
(dp995
g66
(dp996
sg75
g981
sg68
(lp997
g61
(g62
g63
NtRp998
(dp999
g66
(dp1000
g74
I4
ssg75
g994
sg68
(lp1001
S'80'
p1002
asbasbasbag61
(g77
g63
NtRp1003
(dp1004
g66
(dp1005
sg75
g456
sg68
(lp1006
g61
(g82
g63
NtRp1007
(dp1008
g66
(dp1009
g86
g87
ssg75
g1003
sg68
(lp1010
S'mod_wsgi_process_group'
p1011
asbag61
(g82
g63
NtRp1012
(dp1013
g66
(dp1014
g93
g94
ssg75
g1003
sg68
(lp1015
S':'
asbag61
(g82
g63
NtRp1016
(dp1017
g66
(dp1018
sg75
g1003
sg68
(lp1019
g61
(g62
g63
NtRp1020
(dp1021
g66
(dp1022
g74
I4
ssg75
g1016
sg68
(lp1023
S'web2py'
p1024
asbasbasbag61
(g77
g63
NtRp1025
(dp1026
g66
(dp1027
sg75
g456
sg68
(lp1028
g61
(g82
g63
NtRp1029
(dp1030
g66
(dp1031
g86
g87
ssg75
g1025
sg68
(lp1032
S'mod_wsgi_request_handler'
p1033
asbag61
(g82
g63
NtRp1034
(dp1035
g66
(dp1036
g93
g94
ssg75
g1025
sg68
(lp1037
S':'
asbag61
(g82
g63
NtRp1038
(dp1039
g66
(dp1040
sg75
g1025
sg68
(lp1041
g61
(g62
g63
NtRp1042
(dp1043
g66
(dp1044
g74
I4
ssg75
g1038
sg68
(lp1045
S'wsgi-script'
p1046
asbasbasbag61
(g77
g63
NtRp1047
(dp1048
g66
(dp1049
sg75
g456
sg68
(lp1050
g61
(g82
g63
NtRp1051
(dp1052
g66
(dp1053
g86
g87
ssg75
g1047
sg68
(lp1054
S'mod_wsgi_script_reloading'
p1055
asbag61
(g82
g63
NtRp1056
(dp1057
g66
(dp1058
g93
g94
ssg75
g1047
sg68
(lp1059
S':'
asbag61
(g82
g63
NtRp1060
(dp1061
g66
(dp1062
sg75
g1047
sg68
(lp1063
g61
(g62
g63
NtRp1064
(dp1065
g66
(dp1066
g74
I4
ssg75
g1060
sg68
(lp1067
S'1'
asbasbasbag61
(g77
g63
NtRp1068
(dp1069
g66
(dp1070
sg75
g456
sg68
(lp1071
g61
(g82
g63
NtRp1072
(dp1073
g66
(dp1074
g86
g87
ssg75
g1068
sg68
(lp1075
S'mod_wsgi_version'
p1076
asbag61
(g82
g63
NtRp1077
(dp1078
g66
(dp1079
g93
g94
ssg75
g1068
sg68
(lp1080
S':'
asbag61
(g82
g63
NtRp1081
(dp1082
g66
(dp1083
sg75
g1068
sg68
(lp1084
g61
(g62
g63
NtRp1085
(dp1086
g66
(dp1087
g74
I4
ssg75
g1081
sg68
(lp1088
g61
(g70
g63
NtRp1089
(dp1090
g66
(dp1091
g74
I3
ssg75
Nsg68
(lp1092
g61
(g77
g63
NtRp1093
(dp1094
g66
(dp1095
sg75
g1089
sg68
(lp1096
g61
(g82
g63
NtRp1097
(dp1098
g66
(dp1099
sg75
g1093
sg68
(lp1100
g61
(g62
g63
NtRp1101
(dp1102
g66
(dp1103
g74
I3
ssg75
g1097
sg68
(lp1104
S'3'
asbasbasbag61
(g77
g63
NtRp1105
(dp1106
g66
(dp1107
sg75
g1089
sg68
(lp1108
g61
(g82
g63
NtRp1109
(dp1110
g66
(dp1111
sg75
g1105
sg68
(lp1112
g61
(g62
g63
NtRp1113
(dp1114
g66
(dp1115
g74
I3
ssg75
g1109
sg68
(lp1116
S'2'
asbasbasbasbasbasbasbag61
(g77
g63
NtRp1117
(dp1118
g66
(dp1119
sg75
g456
sg68
(lp1120
g61
(g82
g63
NtRp1121
(dp1122
g66
(dp1123
g86
g87
ssg75
g1117
sg68
(lp1124
S'path_info'
p1125
asbag61
(g82
g63
NtRp1126
(dp1127
g66
(dp1128
g93
g94
ssg75
g1117
sg68
(lp1129
S':'
asbag61
(g82
g63
NtRp1130
(dp1131
g66
(dp1132
sg75
g1117
sg68
(lp1133
g61
(g62
g63
NtRp1134
(dp1135
g66
(dp1136
g74
I4
ssg75
g1130
sg68
(lp1137
S'/Threads_Beta/default/judge'
p1138
asbasbasbag61
(g77
g63
NtRp1139
(dp1140
g66
(dp1141
sg75
g456
sg68
(lp1142
g61
(g82
g63
NtRp1143
(dp1144
g66
(dp1145
g86
g87
ssg75
g1139
sg68
(lp1146
S'path_translated'
p1147
asbag61
(g82
g63
NtRp1148
(dp1149
g66
(dp1150
g93
g94
ssg75
g1139
sg68
(lp1151
S':'
asbag61
(g82
g63
NtRp1152
(dp1153
g66
(dp1154
sg75
g1139
sg68
(lp1155
g61
(g62
g63
NtRp1156
(dp1157
g66
(dp1158
g74
I4
ssg75
g1152
sg68
(lp1159
S'/var/www/html/Threads_Beta/default/judge'
p1160
asbasbasbag61
(g77
g63
NtRp1161
(dp1162
g66
(dp1163
sg75
g456
sg68
(lp1164
g61
(g82
g63
NtRp1165
(dp1166
g66
(dp1167
g86
g87
ssg75
g1161
sg68
(lp1168
S'query_string'
p1169
asbag61
(g82
g63
NtRp1170
(dp1171
g66
(dp1172
g93
g94
ssg75
g1161
sg68
(lp1173
S':'
asbag61
(g82
g63
NtRp1174
(dp1175
g66
(dp1176
sg75
g1161
sg68
(lp1177
g61
(g62
g63
NtRp1178
(dp1179
g66
(dp1180
g74
I4
ssg75
g1174
sg68
(lp1181
S'event_id=1&question_no=3'
p1182
asbasbasbag61
(g77
g63
NtRp1183
(dp1184
g66
(dp1185
sg75
g456
sg68
(lp1186
g61
(g82
g63
NtRp1187
(dp1188
g66
(dp1189
g86
g87
ssg75
g1183
sg68
(lp1190
S'remote_addr'
p1191
asbag61
(g82
g63
NtRp1192
(dp1193
g66
(dp1194
g93
g94
ssg75
g1183
sg68
(lp1195
S':'
asbag61
(g82
g63
NtRp1196
(dp1197
g66
(dp1198
sg75
g1183
sg68
(lp1199
g61
(g62
g63
NtRp1200
(dp1201
g66
(dp1202
g74
I4
ssg75
g1196
sg68
(lp1203
g194
asbasbasbag61
(g77
g63
NtRp1204
(dp1205
g66
(dp1206
sg75
g456
sg68
(lp1207
g61
(g82
g63
NtRp1208
(dp1209
g66
(dp1210
g86
g87
ssg75
g1204
sg68
(lp1211
S'remote_port'
p1212
asbag61
(g82
g63
NtRp1213
(dp1214
g66
(dp1215
g93
g94
ssg75
g1204
sg68
(lp1216
S':'
asbag61
(g82
g63
NtRp1217
(dp1218
g66
(dp1219
sg75
g1204
sg68
(lp1220
g61
(g62
g63
NtRp1221
(dp1222
g66
(dp1223
g74
I4
ssg75
g1217
sg68
(lp1224
S'38676'
p1225
asbasbasbag61
(g77
g63
NtRp1226
(dp1227
g66
(dp1228
sg75
g456
sg68
(lp1229
g61
(g82
g63
NtRp1230
(dp1231
g66
(dp1232
g86
g87
ssg75
g1226
sg68
(lp1233
S'request_method'
p1234
asbag61
(g82
g63
NtRp1235
(dp1236
g66
(dp1237
g93
g94
ssg75
g1226
sg68
(lp1238
S':'
asbag61
(g82
g63
NtRp1239
(dp1240
g66
(dp1241
sg75
g1226
sg68
(lp1242
g61
(g62
g63
NtRp1243
(dp1244
g66
(dp1245
g74
I4
ssg75
g1239
sg68
(lp1246
S'POST'
p1247
asbasbasbag61
(g77
g63
NtRp1248
(dp1249
g66
(dp1250
sg75
g456
sg68
(lp1251
g61
(g82
g63
NtRp1252
(dp1253
g66
(dp1254
g86
g87
ssg75
g1248
sg68
(lp1255
S'request_uri'
p1256
asbag61
(g82
g63
NtRp1257
(dp1258
g66
(dp1259
g93
g94
ssg75
g1248
sg68
(lp1260
S':'
asbag61
(g82
g63
NtRp1261
(dp1262
g66
(dp1263
sg75
g1248
sg68
(lp1264
g61
(g62
g63
NtRp1265
(dp1266
g66
(dp1267
g74
I4
ssg75
g1261
sg68
(lp1268
S'/Threads_Beta/default/judge?event_id=1&question_no=3'
p1269
asbasbasbag61
(g77
g63
NtRp1270
(dp1271
g66
(dp1272
sg75
g456
sg68
(lp1273
g61
(g82
g63
NtRp1274
(dp1275
g66
(dp1276
g86
g87
ssg75
g1270
sg68
(lp1277
S'script_filename'
p1278
asbag61
(g82
g63
NtRp1279
(dp1280
g66
(dp1281
g93
g94
ssg75
g1270
sg68
(lp1282
S':'
asbag61
(g82
g63
NtRp1283
(dp1284
g66
(dp1285
sg75
g1270
sg68
(lp1286
g61
(g62
g63
NtRp1287
(dp1288
g66
(dp1289
g74
I4
ssg75
g1283
sg68
(lp1290
S'/var/www/web2py/wsgihandler.py'
p1291
asbasbasbag61
(g77
g63
NtRp1292
(dp1293
g66
(dp1294
sg75
g456
sg68
(lp1295
g61
(g82
g63
NtRp1296
(dp1297
g66
(dp1298
g86
g87
ssg75
g1292
sg68
(lp1299
S'script_name'
p1300
asbag61
(g82
g63
NtRp1301
(dp1302
g66
(dp1303
g93
g94
ssg75
g1292
sg68
(lp1304
S':'
asbag61
(g82
g63
NtRp1305
(dp1306
g66
(dp1307
sg75
g1292
sg68
(lp1308
g61
(g62
g63
NtRp1309
(dp1310
g66
(dp1311
g74
I4
ssg75
g1305
sg68
(lp1312
S'/web2py'
p1313
asbasbasbag61
(g77
g63
NtRp1314
(dp1315
g66
(dp1316
sg75
g456
sg68
(lp1317
g61
(g82
g63
NtRp1318
(dp1319
g66
(dp1320
g86
g87
ssg75
g1314
sg68
(lp1321
S'server_addr'
p1322
asbag61
(g82
g63
NtRp1323
(dp1324
g66
(dp1325
g93
g94
ssg75
g1314
sg68
(lp1326
S':'
asbag61
(g82
g63
NtRp1327
(dp1328
g66
(dp1329
sg75
g1314
sg68
(lp1330
g61
(g62
g63
NtRp1331
(dp1332
g66
(dp1333
g74
I4
ssg75
g1327
sg68
(lp1334
S'10.4.3.65'
p1335
asbasbasbag61
(g77
g63
NtRp1336
(dp1337
g66
(dp1338
sg75
g456
sg68
(lp1339
g61
(g82
g63
NtRp1340
(dp1341
g66
(dp1342
g86
g87
ssg75
g1336
sg68
(lp1343
S'server_admin'
p1344
asbag61
(g82
g63
NtRp1345
(dp1346
g66
(dp1347
g93
g94
ssg75
g1336
sg68
(lp1348
S':'
asbag61
(g82
g63
NtRp1349
(dp1350
g66
(dp1351
sg75
g1336
sg68
(lp1352
g61
(g62
g63
NtRp1353
(dp1354
g66
(dp1355
g74
I4
ssg75
g1349
sg68
(lp1356
S'madhavan[dot]chetlur[at]students.iiit.ac.in'
p1357
asbasbasbag61
(g77
g63
NtRp1358
(dp1359
g66
(dp1360
sg75
g456
sg68
(lp1361
g61
(g82
g63
NtRp1362
(dp1363
g66
(dp1364
g86
g87
ssg75
g1358
sg68
(lp1365
S'server_name'
p1366
asbag61
(g82
g63
NtRp1367
(dp1368
g66
(dp1369
g93
g94
ssg75
g1358
sg68
(lp1370
S':'
asbag61
(g82
g63
NtRp1371
(dp1372
g66
(dp1373
sg75
g1358
sg68
(lp1374
g61
(g62
g63
NtRp1375
(dp1376
g66
(dp1377
g74
I4
ssg75
g1371
sg68
(lp1378
S'felicity.iiit.ac.in'
p1379
asbasbasbag61
(g77
g63
NtRp1380
(dp1381
g66
(dp1382
sg75
g456
sg68
(lp1383
g61
(g82
g63
NtRp1384
(dp1385
g66
(dp1386
g86
g87
ssg75
g1380
sg68
(lp1387
S'server_port'
p1388
asbag61
(g82
g63
NtRp1389
(dp1390
g66
(dp1391
g93
g94
ssg75
g1380
sg68
(lp1392
S':'
asbag61
(g82
g63
NtRp1393
(dp1394
g66
(dp1395
sg75
g1380
sg68
(lp1396
g61
(g62
g63
NtRp1397
(dp1398
g66
(dp1399
g74
I4
ssg75
g1393
sg68
(lp1400
S'80'
p1401
asbasbasbag61
(g77
g63
NtRp1402
(dp1403
g66
(dp1404
sg75
g456
sg68
(lp1405
g61
(g82
g63
NtRp1406
(dp1407
g66
(dp1408
g86
g87
ssg75
g1402
sg68
(lp1409
S'server_protocol'
p1410
asbag61
(g82
g63
NtRp1411
(dp1412
g66
(dp1413
g93
g94
ssg75
g1402
sg68
(lp1414
S':'
asbag61
(g82
g63
NtRp1415
(dp1416
g66
(dp1417
sg75
g1402
sg68
(lp1418
g61
(g62
g63
NtRp1419
(dp1420
g66
(dp1421
g74
I4
ssg75
g1415
sg68
(lp1422
S'HTTP/1.1'
p1423
asbasbasbag61
(g77
g63
NtRp1424
(dp1425
g66
(dp1426
sg75
g456
sg68
(lp1427
g61
(g82
g63
NtRp1428
(dp1429
g66
(dp1430
g86
g87
ssg75
g1424
sg68
(lp1431
S'server_signature'
p1432
asbag61
(g82
g63
NtRp1433
(dp1434
g66
(dp1435
g93
g94
ssg75
g1424
sg68
(lp1436
S':'
asbag61
(g82
g63
NtRp1437
(dp1438
g66
(dp1439
sg75
g1424
sg68
(lp1440
g61
(g62
g63
NtRp1441
(dp1442
g66
(dp1443
g74
I4
ssg75
g1437
sg68
(lp1444
S''
asbasbasbag61
(g77
g63
NtRp1445
(dp1446
g66
(dp1447
sg75
g456
sg68
(lp1448
g61
(g82
g63
NtRp1449
(dp1450
g66
(dp1451
g86
g87
ssg75
g1445
sg68
(lp1452
S'server_software'
p1453
asbag61
(g82
g63
NtRp1454
(dp1455
g66
(dp1456
g93
g94
ssg75
g1445
sg68
(lp1457
S':'
asbag61
(g82
g63
NtRp1458
(dp1459
g66
(dp1460
sg75
g1445
sg68
(lp1461
g61
(g62
g63
NtRp1462
(dp1463
g66
(dp1464
g74
I4
ssg75
g1458
sg68
(lp1465
S'Apache'
p1466
asbasbasbag61
(g77
g63
NtRp1467
(dp1468
g66
(dp1469
sg75
g456
sg68
(lp1470
g61
(g82
g63
NtRp1471
(dp1472
g66
(dp1473
g86
g87
ssg75
g1467
sg68
(lp1474
S'web2py_original_uri'
p1475
asbag61
(g82
g63
NtRp1476
(dp1477
g66
(dp1478
g93
g94
ssg75
g1467
sg68
(lp1479
S':'
asbag61
(g82
g63
NtRp1480
(dp1481
g66
(dp1482
sg75
g1467
sg68
(lp1483
g61
(g62
g63
NtRp1484
(dp1485
g66
(dp1486
g74
I4
ssg75
g1480
sg68
(lp1487
S'/Threads_Beta/default/judge?event_id=1&question_no=3'
p1488
asbasbasbag61
(g77
g63
NtRp1489
(dp1490
g66
(dp1491
sg75
g456
sg68
(lp1492
g61
(g82
g63
NtRp1493
(dp1494
g66
(dp1495
g86
g87
ssg75
g1489
sg68
(lp1496
S'web2py_path'
p1497
asbag61
(g82
g63
NtRp1498
(dp1499
g66
(dp1500
g93
g94
ssg75
g1489
sg68
(lp1501
S':'
asbag61
(g82
g63
NtRp1502
(dp1503
g66
(dp1504
sg75
g1489
sg68
(lp1505
g61
(g62
g63
NtRp1506
(dp1507
g66
(dp1508
g74
I4
ssg75
g1502
sg68
(lp1509
g503
asbasbasbag61
(g77
g63
NtRp1510
(dp1511
g66
(dp1512
sg75
g456
sg68
(lp1513
g61
(g82
g63
NtRp1514
(dp1515
g66
(dp1516
g86
g87
ssg75
g1510
sg68
(lp1517
S'web2py_version'
p1518
asbag61
(g82
g63
NtRp1519
(dp1520
g66
(dp1521
g93
g94
ssg75
g1510
sg68
(lp1522
S':'
asbag61
(g82
g63
NtRp1523
(dp1524
g66
(dp1525
sg75
g1510
sg68
(lp1526
g61
(g62
g63
NtRp1527
(dp1528
g66
(dp1529
g74
I4
ssg75
g1523
sg68
(lp1530
g61
(g70
g63
NtRp1531
(dp1532
g66
(dp1533
g74
I3
ssg75
Nsg68
(lp1534
g61
(g77
g63
NtRp1535
(dp1536
g66
(dp1537
sg75
g1531
sg68
(lp1538
g61
(g82
g63
NtRp1539
(dp1540
g66
(dp1541
sg75
g1535
sg68
(lp1542
g61
(g62
g63
NtRp1543
(dp1544
g66
(dp1545
g74
I3
ssg75
g1539
sg68
(lp1546
S'1'
asbasbasbag61
(g77
g63
NtRp1547
(dp1548
g66
(dp1549
sg75
g1531
sg68
(lp1550
g61
(g82
g63
NtRp1551
(dp1552
g66
(dp1553
sg75
g1547
sg68
(lp1554
g61
(g62
g63
NtRp1555
(dp1556
g66
(dp1557
g74
I3
ssg75
g1551
sg68
(lp1558
S'99'
p1559
asbasbasbag61
(g77
g63
NtRp1560
(dp1561
g66
(dp1562
sg75
g1531
sg68
(lp1563
g61
(g82
g63
NtRp1564
(dp1565
g66
(dp1566
sg75
g1560
sg68
(lp1567
g61
(g62
g63
NtRp1568
(dp1569
g66
(dp1570
g74
I3
ssg75
g1564
sg68
(lp1571
S'4'
asbasbasbag61
(g77
g63
NtRp1572
(dp1573
g66
(dp1574
sg75
g1531
sg68
(lp1575
g61
(g82
g63
NtRp1576
(dp1577
g66
(dp1578
sg75
g1572
sg68
(lp1579
g61
(g62
g63
NtRp1580
(dp1581
g66
(dp1582
g74
I3
ssg75
g1576
sg68
(lp1583
S'datetime.datetime(2011, 12, 14, 14, 46, 14)'
p1584
asbasbasbag61
(g77
g63
NtRp1585
(dp1586
g66
(dp1587
sg75
g1531
sg68
(lp1588
g61
(g82
g63
NtRp1589
(dp1590
g66
(dp1591
sg75
g1585
sg68
(lp1592
g61
(g62
g63
NtRp1593
(dp1594
g66
(dp1595
g74
I3
ssg75
g1589
sg68
(lp1596
S'stable'
p1597
asbasbasbasbasbasbasbag61
(g77
g63
NtRp1598
(dp1599
g66
(dp1600
sg75
g456
sg68
(lp1601
g61
(g82
g63
NtRp1602
(dp1603
g66
(dp1604
g86
g87
ssg75
g1598
sg68
(lp1605
S'wsgi_errors'
p1606
asbag61
(g82
g63
NtRp1607
(dp1608
g66
(dp1609
g93
g94
ssg75
g1598
sg68
(lp1610
S':'
asbag61
(g82
g63
NtRp1611
(dp1612
g66
(dp1613
sg75
g1598
sg68
(lp1614
g61
(g62
g63
NtRp1615
(dp1616
g66
(dp1617
g74
I4
ssg75
g1611
sg68
(lp1618
S'<mod_wsgi.Log object at 0x7fba2066e930>'
p1619
asbasbasbag61
(g77
g63
NtRp1620
(dp1621
g66
(dp1622
sg75
g456
sg68
(lp1623
g61
(g82
g63
NtRp1624
(dp1625
g66
(dp1626
g86
g87
ssg75
g1620
sg68
(lp1627
S'wsgi_file_wrapper'
p1628
asbag61
(g82
g63
NtRp1629
(dp1630
g66
(dp1631
g93
g94
ssg75
g1620
sg68
(lp1632
S':'
asbag61
(g82
g63
NtRp1633
(dp1634
g66
(dp1635
sg75
g1620
sg68
(lp1636
g61
(g62
g63
NtRp1637
(dp1638
g66
(dp1639
g74
I4
ssg75
g1633
sg68
(lp1640
S'<built-in method file_wrapper of mod_wsgi.Adapter object at 0x7fba2069c7b0>'
p1641
asbasbasbag61
(g77
g63
NtRp1642
(dp1643
g66
(dp1644
sg75
g456
sg68
(lp1645
g61
(g82
g63
NtRp1646
(dp1647
g66
(dp1648
g86
g87
ssg75
g1642
sg68
(lp1649
S'wsgi_input'
p1650
asbag61
(g82
g63
NtRp1651
(dp1652
g66
(dp1653
g93
g94
ssg75
g1642
sg68
(lp1654
S':'
asbag61
(g82
g63
NtRp1655
(dp1656
g66
(dp1657
sg75
g1642
sg68
(lp1658
g61
(g62
g63
NtRp1659
(dp1660
g66
(dp1661
g74
I4
ssg75
g1655
sg68
(lp1662
S'<mod_wsgi.Input object at 0x7fba2066e6f0>'
p1663
asbasbasbag61
(g77
g63
NtRp1664
(dp1665
g66
(dp1666
sg75
g456
sg68
(lp1667
g61
(g82
g63
NtRp1668
(dp1669
g66
(dp1670
g86
g87
ssg75
g1664
sg68
(lp1671
S'wsgi_multiprocess'
p1672
asbag61
(g82
g63
NtRp1673
(dp1674
g66
(dp1675
g93
g94
ssg75
g1664
sg68
(lp1676
S':'
asbag61
(g82
g63
NtRp1677
(dp1678
g66
(dp1679
sg75
g1664
sg68
(lp1680
g61
(g62
g63
NtRp1681
(dp1682
g66
(dp1683
g74
I4
ssg75
g1677
sg68
(lp1684
g104
asbasbasbag61
(g77
g63
NtRp1685
(dp1686
g66
(dp1687
sg75
g456
sg68
(lp1688
g61
(g82
g63
NtRp1689
(dp1690
g66
(dp1691
g86
g87
ssg75
g1685
sg68
(lp1692
S'wsgi_multithread'
p1693
asbag61
(g82
g63
NtRp1694
(dp1695
g66
(dp1696
g93
g94
ssg75
g1685
sg68
(lp1697
S':'
asbag61
(g82
g63
NtRp1698
(dp1699
g66
(dp1700
sg75
g1685
sg68
(lp1701
g61
(g62
g63
NtRp1702
(dp1703
g66
(dp1704
g74
I4
ssg75
g1698
sg68
(lp1705
S'True'
p1706
asbasbasbag61
(g77
g63
NtRp1707
(dp1708
g66
(dp1709
sg75
g456
sg68
(lp1710
g61
(g82
g63
NtRp1711
(dp1712
g66
(dp1713
g86
g87
ssg75
g1707
sg68
(lp1714
S'wsgi_run_once'
p1715
asbag61
(g82
g63
NtRp1716
(dp1717
g66
(dp1718
g93
g94
ssg75
g1707
sg68
(lp1719
S':'
asbag61
(g82
g63
NtRp1720
(dp1721
g66
(dp1722
sg75
g1707
sg68
(lp1723
g61
(g62
g63
NtRp1724
(dp1725
g66
(dp1726
g74
I4
ssg75
g1720
sg68
(lp1727
g104
asbasbasbag61
(g77
g63
NtRp1728
(dp1729
g66
(dp1730
sg75
g456
sg68
(lp1731
g61
(g82
g63
NtRp1732
(dp1733
g66
(dp1734
g86
g87
ssg75
g1728
sg68
(lp1735
S'wsgi_url_scheme'
p1736
asbag61
(g82
g63
NtRp1737
(dp1738
g66
(dp1739
g93
g94
ssg75
g1728
sg68
(lp1740
S':'
asbag61
(g82
g63
NtRp1741
(dp1742
g66
(dp1743
sg75
g1728
sg68
(lp1744
g61
(g62
g63
NtRp1745
(dp1746
g66
(dp1747
g74
I4
ssg75
g1741
sg68
(lp1748
S'http'
p1749
asbasbasbag61
(g77
g63
NtRp1750
(dp1751
g66
(dp1752
sg75
g456
sg68
(lp1753
g61
(g82
g63
NtRp1754
(dp1755
g66
(dp1756
g86
g87
ssg75
g1750
sg68
(lp1757
S'wsgi_version'
p1758
asbag61
(g82
g63
NtRp1759
(dp1760
g66
(dp1761
g93
g94
ssg75
g1750
sg68
(lp1762
S':'
asbag61
(g82
g63
NtRp1763
(dp1764
g66
(dp1765
sg75
g1750
sg68
(lp1766
g61
(g62
g63
NtRp1767
(dp1768
g66
(dp1769
g74
I4
ssg75
g1763
sg68
(lp1770
g61
(g70
g63
NtRp1771
(dp1772
g66
(dp1773
g74
I3
ssg75
Nsg68
(lp1774
g61
(g77
g63
NtRp1775
(dp1776
g66
(dp1777
sg75
g1771
sg68
(lp1778
g61
(g82
g63
NtRp1779
(dp1780
g66
(dp1781
sg75
g1775
sg68
(lp1782
g61
(g62
g63
NtRp1783
(dp1784
g66
(dp1785
g74
I3
ssg75
g1779
sg68
(lp1786
S'1'
asbasbasbag61
(g77
g63
NtRp1787
(dp1788
g66
(dp1789
sg75
g1771
sg68
(lp1790
g61
(g82
g63
NtRp1791
(dp1792
g66
(dp1793
sg75
g1787
sg68
(lp1794
g61
(g62
g63
NtRp1795
(dp1796
g66
(dp1797
g74
I3
ssg75
g1791
sg68
(lp1798
S'1'
asbasbasbasbasbasbasbasbasbasbasbag61
(g77
g63
NtRp1799
(dp1800
g66
(dp1801
sg75
g71
sg68
(lp1802
g61
(g82
g63
NtRp1803
(dp1804
g66
(dp1805
g86
g87
ssg75
g1799
sg68
(lp1806
S'extension'
p1807
asbag61
(g82
g63
NtRp1808
(dp1809
g66
(dp1810
g93
g94
ssg75
g1799
sg68
(lp1811
S':'
asbag61
(g82
g63
NtRp1812
(dp1813
g66
(dp1814
sg75
g1799
sg68
(lp1815
g61
(g62
g63
NtRp1816
(dp1817
g66
(dp1818
g74
I5
ssg75
g1812
sg68
(lp1819
S'html'
p1820
asbasbasbag61
(g77
g63
NtRp1821
(dp1822
g66
(dp1823
sg75
g71
sg68
(lp1824
g61
(g82
g63
NtRp1825
(dp1826
g66
(dp1827
g86
g87
ssg75
g1821
sg68
(lp1828
S'folder'
p1829
asbag61
(g82
g63
NtRp1830
(dp1831
g66
(dp1832
g93
g94
ssg75
g1821
sg68
(lp1833
S':'
asbag61
(g82
g63
NtRp1834
(dp1835
g66
(dp1836
sg75
g1821
sg68
(lp1837
g61
(g62
g63
NtRp1838
(dp1839
g66
(dp1840
g74
I5
ssg75
g1834
sg68
(lp1841
S'/var/www/web2py/applications/Threads_Beta/'
p1842
asbasbasbag61
(g77
g63
NtRp1843
(dp1844
g66
(dp1845
sg75
g71
sg68
(lp1846
g61
(g82
g63
NtRp1847
(dp1848
g66
(dp1849
g86
g87
ssg75
g1843
sg68
(lp1850
S'function'
p1851
asbag61
(g82
g63
NtRp1852
(dp1853
g66
(dp1854
g93
g94
ssg75
g1843
sg68
(lp1855
S':'
asbag61
(g82
g63
NtRp1856
(dp1857
g66
(dp1858
sg75
g1843
sg68
(lp1859
g61
(g62
g63
NtRp1860
(dp1861
g66
(dp1862
g74
I5
ssg75
g1856
sg68
(lp1863
S'judge'
p1864
asbasbasbag61
(g77
g63
NtRp1865
(dp1866
g66
(dp1867
sg75
g71
sg68
(lp1868
g61
(g82
g63
NtRp1869
(dp1870
g66
(dp1871
g86
g87
ssg75
g1865
sg68
(lp1872
S'get_vars'
p1873
asbag61
(g82
g63
NtRp1874
(dp1875
g66
(dp1876
g93
g94
ssg75
g1865
sg68
(lp1877
S':'
asbag61
(g82
g63
NtRp1878
(dp1879
g66
(dp1880
sg75
g1865
sg68
(lp1881
g61
(g62
g63
NtRp1882
(dp1883
g66
(dp1884
g74
I5
ssg75
g1878
sg68
(lp1885
g61
(g70
g63
NtRp1886
(dp1887
g66
(dp1888
g74
I4
ssg75
Nsg68
(lp1889
g61
(g77
g63
NtRp1890
(dp1891
g66
(dp1892
sg75
g1886
sg68
(lp1893
g61
(g82
g63
NtRp1894
(dp1895
g66
(dp1896
g86
g87
ssg75
g1890
sg68
(lp1897
S'event_id'
p1898
asbag61
(g82
g63
NtRp1899
(dp1900
g66
(dp1901
g93
g94
ssg75
g1890
sg68
(lp1902
S':'
asbag61
(g82
g63
NtRp1903
(dp1904
g66
(dp1905
sg75
g1890
sg68
(lp1906
g61
(g62
g63
NtRp1907
(dp1908
g66
(dp1909
g74
I4
ssg75
g1903
sg68
(lp1910
S'1'
asbasbasbag61
(g77
g63
NtRp1911
(dp1912
g66
(dp1913
sg75
g1886
sg68
(lp1914
g61
(g82
g63
NtRp1915
(dp1916
g66
(dp1917
g86
g87
ssg75
g1911
sg68
(lp1918
S'question_no'
p1919
asbag61
(g82
g63
NtRp1920
(dp1921
g66
(dp1922
g93
g94
ssg75
g1911
sg68
(lp1923
S':'
asbag61
(g82
g63
NtRp1924
(dp1925
g66
(dp1926
sg75
g1911
sg68
(lp1927
g61
(g62
g63
NtRp1928
(dp1929
g66
(dp1930
g74
I4
ssg75
g1924
sg68
(lp1931
S'3'
asbasbasbasbasbasbasbag61
(g77
g63
NtRp1932
(dp1933
g66
(dp1934
sg75
g71
sg68
(lp1935
g61
(g82
g63
NtRp1936
(dp1937
g66
(dp1938
g86
g87
ssg75
g1932
sg68
(lp1939
S'global_settings'
p1940
asbag61
(g82
g63
NtRp1941
(dp1942
g66
(dp1943
g93
g94
ssg75
g1932
sg68
(lp1944
S':'
asbag61
(g82
g63
NtRp1945
(dp1946
g66
(dp1947
sg75
g1932
sg68
(lp1948
g61
(g62
g63
NtRp1949
(dp1950
g66
(dp1951
g74
I5
ssg75
g1945
sg68
(lp1952
g61
(g70
g63
NtRp1953
(dp1954
g66
(dp1955
g74
I4
ssg75
Nsg68
(lp1956
g61
(g77
g63
NtRp1957
(dp1958
g66
(dp1959
sg75
g1953
sg68
(lp1960
g61
(g82
g63
NtRp1961
(dp1962
g66
(dp1963
g86
g87
ssg75
g1957
sg68
(lp1964
g468
asbag61
(g82
g63
NtRp1965
(dp1966
g66
(dp1967
g93
g94
ssg75
g1957
sg68
(lp1968
S':'
asbag61
(g82
g63
NtRp1969
(dp1970
g66
(dp1971
sg75
g1957
sg68
(lp1972
g61
(g62
g63
NtRp1973
(dp1974
g66
(dp1975
g74
I4
ssg75
g1969
sg68
(lp1976
S"set(['/var/www/web2py/applications/Threads_Beta/', '/var/www/web2py/applications/welcome/', '/var/www/web2py/applications/ChatBot_V4/', '/var/www/web2py/applications/admin/'])"
p1977
asbasbasbag61
(g77
g63
NtRp1978
(dp1979
g66
(dp1980
sg75
g1953
sg68
(lp1981
g61
(g82
g63
NtRp1982
(dp1983
g66
(dp1984
g86
g87
ssg75
g1978
sg68
(lp1985
g490
asbag61
(g82
g63
NtRp1986
(dp1987
g66
(dp1988
g93
g94
ssg75
g1978
sg68
(lp1989
S':'
asbag61
(g82
g63
NtRp1990
(dp1991
g66
(dp1992
sg75
g1978
sg68
(lp1993
g61
(g62
g63
NtRp1994
(dp1995
g66
(dp1996
g74
I4
ssg75
g1990
sg68
(lp1997
g503
asbasbasbag61
(g77
g63
NtRp1998
(dp1999
g66
(dp2000
sg75
g1953
sg68
(lp2001
g61
(g82
g63
NtRp2002
(dp2003
g66
(dp2004
g86
g87
ssg75
g1998
sg68
(lp2005
g556
asbag61
(g82
g63
NtRp2006
(dp2007
g66
(dp2008
g93
g94
ssg75
g1998
sg68
(lp2009
S':'
asbag61
(g82
g63
NtRp2010
(dp2011
g66
(dp2012
sg75
g1998
sg68
(lp2013
g61
(g62
g63
NtRp2014
(dp2015
g66
(dp2016
g74
I4
ssg75
g2010
sg68
(lp2017
S'set([])'
p2018
asbasbasbag61
(g77
g63
NtRp2019
(dp2020
g66
(dp2021
sg75
g1953
sg68
(lp2022
g61
(g82
g63
NtRp2023
(dp2024
g66
(dp2025
g86
g87
ssg75
g2019
sg68
(lp2026
g578
asbag61
(g82
g63
NtRp2027
(dp2028
g66
(dp2029
g93
g94
ssg75
g2019
sg68
(lp2030
S':'
asbag61
(g82
g63
NtRp2031
(dp2032
g66
(dp2033
sg75
g2019
sg68
(lp2034
g61
(g62
g63
NtRp2035
(dp2036
g66
(dp2037
g74
I4
ssg75
g2031
sg68
(lp2038
g104
asbasbasbag61
(g77
g63
NtRp2039
(dp2040
g66
(dp2041
sg75
g1953
sg68
(lp2042
g61
(g82
g63
NtRp2043
(dp2044
g66
(dp2045
g86
g87
ssg75
g2039
sg68
(lp2046
g643
asbag61
(g82
g63
NtRp2047
(dp2048
g66
(dp2049
g93
g94
ssg75
g2039
sg68
(lp2050
S':'
asbag61
(g82
g63
NtRp2051
(dp2052
g66
(dp2053
sg75
g2039
sg68
(lp2054
g61
(g62
g63
NtRp2055
(dp2056
g66
(dp2057
g74
I4
ssg75
g2051
sg68
(lp2058
g503
asbasbasbag61
(g77
g63
NtRp2059
(dp2060
g66
(dp2061
sg75
g1953
sg68
(lp2062
g61
(g82
g63
NtRp2063
(dp2064
g66
(dp2065
g86
g87
ssg75
g2059
sg68
(lp2066
g840
asbag61
(g82
g63
NtRp2067
(dp2068
g66
(dp2069
g93
g94
ssg75
g2059
sg68
(lp2070
S':'
asbag61
(g82
g63
NtRp2071
(dp2072
g66
(dp2073
sg75
g2059
sg68
(lp2074
g61
(g62
g63
NtRp2075
(dp2076
g66
(dp2077
g74
I4
ssg75
g2071
sg68
(lp2078
g104
asbasbasbag61
(g77
g63
NtRp2079
(dp2080
g66
(dp2081
sg75
g1953
sg68
(lp2082
g61
(g82
g63
NtRp2083
(dp2084
g66
(dp2085
g86
g87
ssg75
g2079
sg68
(lp2086
g861
asbag61
(g82
g63
NtRp2087
(dp2088
g66
(dp2089
g93
g94
ssg75
g2079
sg68
(lp2090
S':'
asbag61
(g82
g63
NtRp2091
(dp2092
g66
(dp2093
sg75
g2079
sg68
(lp2094
g61
(g62
g63
NtRp2095
(dp2096
g66
(dp2097
g74
I4
ssg75
g2091
sg68
(lp2098
g104
asbasbasbag61
(g77
g63
NtRp2099
(dp2100
g66
(dp2101
sg75
g1953
sg68
(lp2102
g61
(g82
g63
NtRp2103
(dp2104
g66
(dp2105
g86
g87
ssg75
g2099
sg68
(lp2106
g1518
asbag61
(g82
g63
NtRp2107
(dp2108
g66
(dp2109
g93
g94
ssg75
g2099
sg68
(lp2110
S':'
asbag61
(g82
g63
NtRp2111
(dp2112
g66
(dp2113
sg75
g2099
sg68
(lp2114
g61
(g62
g63
NtRp2115
(dp2116
g66
(dp2117
g74
I4
ssg75
g2111
sg68
(lp2118
g61
(g70
g63
NtRp2119
(dp2120
g66
(dp2121
g74
I3
ssg75
Nsg68
(lp2122
g61
(g77
g63
NtRp2123
(dp2124
g66
(dp2125
sg75
g2119
sg68
(lp2126
g61
(g82
g63
NtRp2127
(dp2128
g66
(dp2129
sg75
g2123
sg68
(lp2130
g61
(g62
g63
NtRp2131
(dp2132
g66
(dp2133
g74
I3
ssg75
g2127
sg68
(lp2134
S'1'
asbasbasbag61
(g77
g63
NtRp2135
(dp2136
g66
(dp2137
sg75
g2119
sg68
(lp2138
g61
(g82
g63
NtRp2139
(dp2140
g66
(dp2141
sg75
g2135
sg68
(lp2142
g61
(g62
g63
NtRp2143
(dp2144
g66
(dp2145
g74
I3
ssg75
g2139
sg68
(lp2146
S'99'
p2147
asbasbasbag61
(g77
g63
NtRp2148
(dp2149
g66
(dp2150
sg75
g2119
sg68
(lp2151
g61
(g82
g63
NtRp2152
(dp2153
g66
(dp2154
sg75
g2148
sg68
(lp2155
g61
(g62
g63
NtRp2156
(dp2157
g66
(dp2158
g74
I3
ssg75
g2152
sg68
(lp2159
S'4'
asbasbasbag61
(g77
g63
NtRp2160
(dp2161
g66
(dp2162
sg75
g2119
sg68
(lp2163
g61
(g82
g63
NtRp2164
(dp2165
g66
(dp2166
sg75
g2160
sg68
(lp2167
g61
(g62
g63
NtRp2168
(dp2169
g66
(dp2170
g74
I3
ssg75
g2164
sg68
(lp2171
S'datetime.datetime(2011, 12, 14, 14, 46, 14)'
p2172
asbasbasbag61
(g77
g63
NtRp2173
(dp2174
g66
(dp2175
sg75
g2119
sg68
(lp2176
g61
(g82
g63
NtRp2177
(dp2178
g66
(dp2179
sg75
g2173
sg68
(lp2180
g61
(g62
g63
NtRp2181
(dp2182
g66
(dp2183
g74
I3
ssg75
g2177
sg68
(lp2184
g1597
asbasbasbasbasbasbasbasbasbasbasbag61
(g77
g63
NtRp2185
(dp2186
g66
(dp2187
sg75
g71
sg68
(lp2188
g61
(g82
g63
NtRp2189
(dp2190
g66
(dp2191
g86
g87
ssg75
g2185
sg68
(lp2192
S'is_https'
p2193
asbag61
(g82
g63
NtRp2194
(dp2195
g66
(dp2196
g93
g94
ssg75
g2185
sg68
(lp2197
S':'
asbag61
(g82
g63
NtRp2198
(dp2199
g66
(dp2200
sg75
g2185
sg68
(lp2201
g61
(g62
g63
NtRp2202
(dp2203
g66
(dp2204
g74
I5
ssg75
g2198
sg68
(lp2205
g104
asbasbasbag61
(g77
g63
NtRp2206
(dp2207
g66
(dp2208
sg75
g71
sg68
(lp2209
g61
(g82
g63
NtRp2210
(dp2211
g66
(dp2212
g86
g87
ssg75
g2206
sg68
(lp2213
S'is_local'
p2214
asbag61
(g82
g63
NtRp2215
(dp2216
g66
(dp2217
g93
g94
ssg75
g2206
sg68
(lp2218
S':'
asbag61
(g82
g63
NtRp2219
(dp2220
g66
(dp2221
sg75
g2206
sg68
(lp2222
g61
(g62
g63
NtRp2223
(dp2224
g66
(dp2225
g74
I5
ssg75
g2219
sg68
(lp2226
g104
asbasbasbag61
(g77
g63
NtRp2227
(dp2228
g66
(dp2229
sg75
g71
sg68
(lp2230
g61
(g82
g63
NtRp2231
(dp2232
g66
(dp2233
g86
g87
ssg75
g2227
sg68
(lp2234
S'is_restful'
p2235
asbag61
(g82
g63
NtRp2236
(dp2237
g66
(dp2238
g93
g94
ssg75
g2227
sg68
(lp2239
S':'
asbag61
(g82
g63
NtRp2240
(dp2241
g66
(dp2242
sg75
g2227
sg68
(lp2243
g61
(g62
g63
NtRp2244
(dp2245
g66
(dp2246
g74
I5
ssg75
g2240
sg68
(lp2247
g104
asbasbasbag61
(g77
g63
NtRp2248
(dp2249
g66
(dp2250
sg75
g71
sg68
(lp2251
g61
(g82
g63
NtRp2252
(dp2253
g66
(dp2254
g86
g87
ssg75
g2248
sg68
(lp2255
S'now'
p2256
asbag61
(g82
g63
NtRp2257
(dp2258
g66
(dp2259
g93
g94
ssg75
g2248
sg68
(lp2260
S':'
asbag61
(g82
g63
NtRp2261
(dp2262
g66
(dp2263
sg75
g2248
sg68
(lp2264
g61
(g62
g63
NtRp2265
(dp2266
g66
(dp2267
g74
I5
ssg75
g2261
sg68
(lp2268
S'datetime.datetime(2012, 11, 23, 19, 10, 3, 917447)'
p2269
asbasbasbag61
(g77
g63
NtRp2270
(dp2271
g66
(dp2272
sg75
g71
sg68
(lp2273
g61
(g82
g63
NtRp2274
(dp2275
g66
(dp2276
g86
g87
ssg75
g2270
sg68
(lp2277
S'post_vars'
p2278
asbag61
(g82
g63
NtRp2279
(dp2280
g66
(dp2281
g93
g94
ssg75
g2270
sg68
(lp2282
S':'
asbag61
(g82
g63
NtRp2283
(dp2284
g66
(dp2285
sg75
g2270
sg68
(lp2286
g61
(g62
g63
NtRp2287
(dp2288
g66
(dp2289
g74
I5
ssg75
g2283
sg68
(lp2290
g61
(g70
g63
NtRp2291
(dp2292
g66
(dp2293
g74
I4
ssg75
Nsg68
(lp2294
g61
(g77
g63
NtRp2295
(dp2296
g66
(dp2297
sg75
g2291
sg68
(lp2298
g61
(g82
g63
NtRp2299
(dp2300
g66
(dp2301
g86
g87
ssg75
g2295
sg68
(lp2302
S'file'
p2303
asbag61
(g82
g63
NtRp2304
(dp2305
g66
(dp2306
g93
g94
ssg75
g2295
sg68
(lp2307
S':'
asbag61
(g82
g63
NtRp2308
(dp2309
g66
(dp2310
sg75
g2295
sg68
(lp2311
g61
(g62
g63
NtRp2312
(dp2313
g66
(dp2314
g74
I4
ssg75
g2308
sg68
(lp2315
S'FieldStorage object'
p2316
asbasbasbasbasbasbasbag61
(g77
g63
NtRp2317
(dp2318
g66
(dp2319
sg75
g71
sg68
(lp2320
g61
(g82
g63
NtRp2321
(dp2322
g66
(dp2323
g86
g87
ssg75
g2317
sg68
(lp2324
S'url'
p2325
asbag61
(g82
g63
NtRp2326
(dp2327
g66
(dp2328
g93
g94
ssg75
g2317
sg68
(lp2329
S':'
asbag61
(g82
g63
NtRp2330
(dp2331
g66
(dp2332
sg75
g2317
sg68
(lp2333
g61
(g62
g63
NtRp2334
(dp2335
g66
(dp2336
g74
I5
ssg75
g2330
sg68
(lp2337
S'/web2py/Threads_Beta/default/judge'
p2338
asbasbasbag61
(g77
g63
NtRp2339
(dp2340
g66
(dp2341
sg75
g71
sg68
(lp2342
g61
(g82
g63
NtRp2343
(dp2344
g66
(dp2345
g86
g87
ssg75
g2339
sg68
(lp2346
S'utcnow'
p2347
asbag61
(g82
g63
NtRp2348
(dp2349
g66
(dp2350
g93
g94
ssg75
g2339
sg68
(lp2351
S':'
asbag61
(g82
g63
NtRp2352
(dp2353
g66
(dp2354
sg75
g2339
sg68
(lp2355
g61
(g62
g63
NtRp2356
(dp2357
g66
(dp2358
g74
I5
ssg75
g2352
sg68
(lp2359
S'datetime.datetime(2012, 11, 23, 13, 40, 3, 917466)'
p2360
asbasbasbag61
(g77
g63
NtRp2361
(dp2362
g66
(dp2363
sg75
g71
sg68
(lp2364
g61
(g82
g63
NtRp2365
(dp2366
g66
(dp2367
g86
g87
ssg75
g2361
sg68
(lp2368
S'uuid'
p2369
asbag61
(g82
g63
NtRp2370
(dp2371
g66
(dp2372
g93
g94
ssg75
g2361
sg68
(lp2373
S':'
asbag61
(g82
g63
NtRp2374
(dp2375
g66
(dp2376
sg75
g2361
sg68
(lp2377
g61
(g62
g63
NtRp2378
(dp2379
g66
(dp2380
g74
I5
ssg75
g2374
sg68
(lp2381
S'Threads_Beta/10.1.34.61.2012-11-23.19-10-03.81fb6290-c947-4fd5-a3e3-542fe266dfe7'
p2382
asbasbasbag61
(g77
g63
NtRp2383
(dp2384
g66
(dp2385
sg75
g71
sg68
(lp2386
g61
(g82
g63
NtRp2387
(dp2388
g66
(dp2389
g86
g87
ssg75
g2383
sg68
(lp2390
S'vars'
p2391
asbag61
(g82
g63
NtRp2392
(dp2393
g66
(dp2394
g93
g94
ssg75
g2383
sg68
(lp2395
S':'
asbag61
(g82
g63
NtRp2396
(dp2397
g66
(dp2398
sg75
g2383
sg68
(lp2399
g61
(g62
g63
NtRp2400
(dp2401
g66
(dp2402
g74
I5
ssg75
g2396
sg68
(lp2403
g61
(g70
g63
NtRp2404
(dp2405
g66
(dp2406
g74
I4
ssg75
Nsg68
(lp2407
g61
(g77
g63
NtRp2408
(dp2409
g66
(dp2410
sg75
g2404
sg68
(lp2411
g61
(g82
g63
NtRp2412
(dp2413
g66
(dp2414
g86
g87
ssg75
g2408
sg68
(lp2415
g1898
asbag61
(g82
g63
NtRp2416
(dp2417
g66
(dp2418
g93
g94
ssg75
g2408
sg68
(lp2419
S':'
asbag61
(g82
g63
NtRp2420
(dp2421
g66
(dp2422
sg75
g2408
sg68
(lp2423
g61
(g62
g63
NtRp2424
(dp2425
g66
(dp2426
g74
I4
ssg75
g2420
sg68
(lp2427
S'1'
asbasbasbag61
(g77
g63
NtRp2428
(dp2429
g66
(dp2430
sg75
g2404
sg68
(lp2431
g61
(g82
g63
NtRp2432
(dp2433
g66
(dp2434
g86
g87
ssg75
g2428
sg68
(lp2435
g2303
asbag61
(g82
g63
NtRp2436
(dp2437
g66
(dp2438
g93
g94
ssg75
g2428
sg68
(lp2439
S':'
asbag61
(g82
g63
NtRp2440
(dp2441
g66
(dp2442
sg75
g2428
sg68
(lp2443
g61
(g62
g63
NtRp2444
(dp2445
g66
(dp2446
g74
I4
ssg75
g2440
sg68
(lp2447
g2316
asbasbasbag61
(g77
g63
NtRp2448
(dp2449
g66
(dp2450
sg75
g2404
sg68
(lp2451
g61
(g82
g63
NtRp2452
(dp2453
g66
(dp2454
g86
g87
ssg75
g2448
sg68
(lp2455
g1919
asbag61
(g82
g63
NtRp2456
(dp2457
g66
(dp2458
g93
g94
ssg75
g2448
sg68
(lp2459
S':'
asbag61
(g82
g63
NtRp2460
(dp2461
g66
(dp2462
sg75
g2448
sg68
(lp2463
g61
(g62
g63
NtRp2464
(dp2465
g66
(dp2466
g74
I4
ssg75
g2460
sg68
(lp2467
S'3'
asbasbasbasbasbasbasbag61
(g77
g63
NtRp2468
(dp2469
g66
(dp2470
sg75
g71
sg68
(lp2471
g61
(g82
g63
NtRp2472
(dp2473
g66
(dp2474
g86
g87
ssg75
g2468
sg68
(lp2475
S'wsgi'
p2476
asbag61
(g82
g63
NtRp2477
(dp2478
g66
(dp2479
g93
g94
ssg75
g2468
sg68
(lp2480
S':'
asbag61
(g82
g63
NtRp2481
(dp2482
g66
(dp2483
sg75
g2468
sg68
(lp2484
g61
(g62
g63
NtRp2485
(dp2486
g66
(dp2487
g74
I5
ssg75
g2481
sg68
(lp2488
g61
(g70
g63
NtRp2489
(dp2490
g66
(dp2491
g74
I4
ssg75
Nsg68
(lp2492
g61
(g77
g63
NtRp2493
(dp2494
g66
(dp2495
sg75
g2489
sg68
(lp2496
g61
(g82
g63
NtRp2497
(dp2498
g66
(dp2499
g86
g87
ssg75
g2493
sg68
(lp2500
S'environ'
p2501
asbag61
(g82
g63
NtRp2502
(dp2503
g66
(dp2504
g93
g94
ssg75
g2493
sg68
(lp2505
S':'
asbag61
(g82
g63
NtRp2506
(dp2507
g66
(dp2508
sg75
g2493
sg68
(lp2509
g61
(g62
g63
NtRp2510
(dp2511
g66
(dp2512
g74
I4
ssg75
g2506
sg68
(lp2513
g61
(g70
g63
NtRp2514
(dp2515
g66
(dp2516
g74
I3
ssg75
Nsg68
(lp2517
g61
(g77
g63
NtRp2518
(dp2519
g66
(dp2520
sg75
g2514
sg68
(lp2521
g61
(g82
g63
NtRp2522
(dp2523
g66
(dp2524
g86
g87
ssg75
g2518
sg68
(lp2525
S'CONTENT_LENGTH'
p2526
asbag61
(g82
g63
NtRp2527
(dp2528
g66
(dp2529
g93
g94
ssg75
g2518
sg68
(lp2530
S':'
asbag61
(g82
g63
NtRp2531
(dp2532
g66
(dp2533
sg75
g2518
sg68
(lp2534
g61
(g62
g63
NtRp2535
(dp2536
g66
(dp2537
g74
I3
ssg75
g2531
sg68
(lp2538
g525
asbasbasbag61
(g77
g63
NtRp2539
(dp2540
g66
(dp2541
sg75
g2514
sg68
(lp2542
g61
(g82
g63
NtRp2543
(dp2544
g66
(dp2545
g86
g87
ssg75
g2539
sg68
(lp2546
S'CONTENT_TYPE'
p2547
asbag61
(g82
g63
NtRp2548
(dp2549
g66
(dp2550
g93
g94
ssg75
g2539
sg68
(lp2551
S':'
asbag61
(g82
g63
NtRp2552
(dp2553
g66
(dp2554
sg75
g2539
sg68
(lp2555
g61
(g62
g63
NtRp2556
(dp2557
g66
(dp2558
g74
I3
ssg75
g2552
sg68
(lp2559
g547
asbasbasbag61
(g77
g63
NtRp2560
(dp2561
g66
(dp2562
sg75
g2514
sg68
(lp2563
g61
(g82
g63
NtRp2564
(dp2565
g66
(dp2566
g86
g87
ssg75
g2560
sg68
(lp2567
S'DOCUMENT_ROOT'
p2568
asbag61
(g82
g63
NtRp2569
(dp2570
g66
(dp2571
g93
g94
ssg75
g2560
sg68
(lp2572
S':'
asbag61
(g82
g63
NtRp2573
(dp2574
g66
(dp2575
sg75
g2560
sg68
(lp2576
g61
(g62
g63
NtRp2577
(dp2578
g66
(dp2579
g74
I3
ssg75
g2573
sg68
(lp2580
g612
asbasbasbag61
(g77
g63
NtRp2581
(dp2582
g66
(dp2583
sg75
g2514
sg68
(lp2584
g61
(g82
g63
NtRp2585
(dp2586
g66
(dp2587
g86
g87
ssg75
g2581
sg68
(lp2588
S'GATEWAY_INTERFACE'
p2589
asbag61
(g82
g63
NtRp2590
(dp2591
g66
(dp2592
g93
g94
ssg75
g2581
sg68
(lp2593
S':'
asbag61
(g82
g63
NtRp2594
(dp2595
g66
(dp2596
sg75
g2581
sg68
(lp2597
g61
(g62
g63
NtRp2598
(dp2599
g66
(dp2600
g74
I3
ssg75
g2594
sg68
(lp2601
g634
asbasbasbag61
(g77
g63
NtRp2602
(dp2603
g66
(dp2604
sg75
g2514
sg68
(lp2605
g61
(g82
g63
NtRp2606
(dp2607
g66
(dp2608
g86
g87
ssg75
g2602
sg68
(lp2609
S'HTTP_ACCEPT'
p2610
asbag61
(g82
g63
NtRp2611
(dp2612
g66
(dp2613
g93
g94
ssg75
g2602
sg68
(lp2614
S':'
asbag61
(g82
g63
NtRp2615
(dp2616
g66
(dp2617
sg75
g2602
sg68
(lp2618
g61
(g62
g63
NtRp2619
(dp2620
g66
(dp2621
g74
I3
ssg75
g2615
sg68
(lp2622
g677
asbasbasbag61
(g77
g63
NtRp2623
(dp2624
g66
(dp2625
sg75
g2514
sg68
(lp2626
g61
(g82
g63
NtRp2627
(dp2628
g66
(dp2629
g86
g87
ssg75
g2623
sg68
(lp2630
S'HTTP_ACCEPT_ENCODING'
p2631
asbag61
(g82
g63
NtRp2632
(dp2633
g66
(dp2634
g93
g94
ssg75
g2623
sg68
(lp2635
S':'
asbag61
(g82
g63
NtRp2636
(dp2637
g66
(dp2638
sg75
g2623
sg68
(lp2639
g61
(g62
g63
NtRp2640
(dp2641
g66
(dp2642
g74
I3
ssg75
g2636
sg68
(lp2643
g699
asbasbasbag61
(g77
g63
NtRp2644
(dp2645
g66
(dp2646
sg75
g2514
sg68
(lp2647
g61
(g82
g63
NtRp2648
(dp2649
g66
(dp2650
g86
g87
ssg75
g2644
sg68
(lp2651
S'HTTP_ACCEPT_LANGUAGE'
p2652
asbag61
(g82
g63
NtRp2653
(dp2654
g66
(dp2655
g93
g94
ssg75
g2644
sg68
(lp2656
S':'
asbag61
(g82
g63
NtRp2657
(dp2658
g66
(dp2659
sg75
g2644
sg68
(lp2660
g61
(g62
g63
NtRp2661
(dp2662
g66
(dp2663
g74
I3
ssg75
g2657
sg68
(lp2664
g721
asbasbasbag61
(g77
g63
NtRp2665
(dp2666
g66
(dp2667
sg75
g2514
sg68
(lp2668
g61
(g82
g63
NtRp2669
(dp2670
g66
(dp2671
g86
g87
ssg75
g2665
sg68
(lp2672
S'HTTP_CONNECTION'
p2673
asbag61
(g82
g63
NtRp2674
(dp2675
g66
(dp2676
g93
g94
ssg75
g2665
sg68
(lp2677
S':'
asbag61
(g82
g63
NtRp2678
(dp2679
g66
(dp2680
sg75
g2665
sg68
(lp2681
g61
(g62
g63
NtRp2682
(dp2683
g66
(dp2684
g74
I3
ssg75
g2678
sg68
(lp2685
g743
asbasbasbag61
(g77
g63
NtRp2686
(dp2687
g66
(dp2688
sg75
g2514
sg68
(lp2689
g61
(g82
g63
NtRp2690
(dp2691
g66
(dp2692
g86
g87
ssg75
g2686
sg68
(lp2693
S'HTTP_COOKIE'
p2694
asbag61
(g82
g63
NtRp2695
(dp2696
g66
(dp2697
g93
g94
ssg75
g2686
sg68
(lp2698
S':'
asbag61
(g82
g63
NtRp2699
(dp2700
g66
(dp2701
sg75
g2686
sg68
(lp2702
g61
(g62
g63
NtRp2703
(dp2704
g66
(dp2705
g74
I3
ssg75
g2699
sg68
(lp2706
g765
asbasbasbag61
(g77
g63
NtRp2707
(dp2708
g66
(dp2709
sg75
g2514
sg68
(lp2710
g61
(g82
g63
NtRp2711
(dp2712
g66
(dp2713
g86
g87
ssg75
g2707
sg68
(lp2714
S'HTTP_HOST'
p2715
asbag61
(g82
g63
NtRp2716
(dp2717
g66
(dp2718
g93
g94
ssg75
g2707
sg68
(lp2719
S':'
asbag61
(g82
g63
NtRp2720
(dp2721
g66
(dp2722
sg75
g2707
sg68
(lp2723
g61
(g62
g63
NtRp2724
(dp2725
g66
(dp2726
g74
I3
ssg75
g2720
sg68
(lp2727
g787
asbasbasbag61
(g77
g63
NtRp2728
(dp2729
g66
(dp2730
sg75
g2514
sg68
(lp2731
g61
(g82
g63
NtRp2732
(dp2733
g66
(dp2734
g86
g87
ssg75
g2728
sg68
(lp2735
S'HTTP_REFERER'
p2736
asbag61
(g82
g63
NtRp2737
(dp2738
g66
(dp2739
g93
g94
ssg75
g2728
sg68
(lp2740
S':'
asbag61
(g82
g63
NtRp2741
(dp2742
g66
(dp2743
sg75
g2728
sg68
(lp2744
g61
(g62
g63
NtRp2745
(dp2746
g66
(dp2747
g74
I3
ssg75
g2741
sg68
(lp2748
g809
asbasbasbag61
(g77
g63
NtRp2749
(dp2750
g66
(dp2751
sg75
g2514
sg68
(lp2752
g61
(g82
g63
NtRp2753
(dp2754
g66
(dp2755
g86
g87
ssg75
g2749
sg68
(lp2756
S'HTTP_USER_AGENT'
p2757
asbag61
(g82
g63
NtRp2758
(dp2759
g66
(dp2760
g93
g94
ssg75
g2749
sg68
(lp2761
S':'
asbag61
(g82
g63
NtRp2762
(dp2763
g66
(dp2764
sg75
g2749
sg68
(lp2765
g61
(g62
g63
NtRp2766
(dp2767
g66
(dp2768
g74
I3
ssg75
g2762
sg68
(lp2769
g831
asbasbasbag61
(g77
g63
NtRp2770
(dp2771
g66
(dp2772
sg75
g2514
sg68
(lp2773
g61
(g82
g63
NtRp2774
(dp2775
g66
(dp2776
g86
g87
ssg75
g2770
sg68
(lp2777
S'PATH_INFO'
p2778
asbag61
(g82
g63
NtRp2779
(dp2780
g66
(dp2781
g93
g94
ssg75
g2770
sg68
(lp2782
S':'
asbag61
(g82
g63
NtRp2783
(dp2784
g66
(dp2785
sg75
g2770
sg68
(lp2786
g61
(g62
g63
NtRp2787
(dp2788
g66
(dp2789
g74
I3
ssg75
g2783
sg68
(lp2790
g1138
asbasbasbag61
(g77
g63
NtRp2791
(dp2792
g66
(dp2793
sg75
g2514
sg68
(lp2794
g61
(g82
g63
NtRp2795
(dp2796
g66
(dp2797
g86
g87
ssg75
g2791
sg68
(lp2798
S'PATH_TRANSLATED'
p2799
asbag61
(g82
g63
NtRp2800
(dp2801
g66
(dp2802
g93
g94
ssg75
g2791
sg68
(lp2803
S':'
asbag61
(g82
g63
NtRp2804
(dp2805
g66
(dp2806
sg75
g2791
sg68
(lp2807
g61
(g62
g63
NtRp2808
(dp2809
g66
(dp2810
g74
I3
ssg75
g2804
sg68
(lp2811
g1160
asbasbasbag61
(g77
g63
NtRp2812
(dp2813
g66
(dp2814
sg75
g2514
sg68
(lp2815
g61
(g82
g63
NtRp2816
(dp2817
g66
(dp2818
g86
g87
ssg75
g2812
sg68
(lp2819
S'QUERY_STRING'
p2820
asbag61
(g82
g63
NtRp2821
(dp2822
g66
(dp2823
g93
g94
ssg75
g2812
sg68
(lp2824
S':'
asbag61
(g82
g63
NtRp2825
(dp2826
g66
(dp2827
sg75
g2812
sg68
(lp2828
g61
(g62
g63
NtRp2829
(dp2830
g66
(dp2831
g74
I3
ssg75
g2825
sg68
(lp2832
g1182
asbasbasbag61
(g77
g63
NtRp2833
(dp2834
g66
(dp2835
sg75
g2514
sg68
(lp2836
g61
(g82
g63
NtRp2837
(dp2838
g66
(dp2839
g86
g87
ssg75
g2833
sg68
(lp2840
S'REMOTE_ADDR'
p2841
asbag61
(g82
g63
NtRp2842
(dp2843
g66
(dp2844
g93
g94
ssg75
g2833
sg68
(lp2845
S':'
asbag61
(g82
g63
NtRp2846
(dp2847
g66
(dp2848
sg75
g2833
sg68
(lp2849
g61
(g62
g63
NtRp2850
(dp2851
g66
(dp2852
g74
I3
ssg75
g2846
sg68
(lp2853
g194
asbasbasbag61
(g77
g63
NtRp2854
(dp2855
g66
(dp2856
sg75
g2514
sg68
(lp2857
g61
(g82
g63
NtRp2858
(dp2859
g66
(dp2860
g86
g87
ssg75
g2854
sg68
(lp2861
S'REMOTE_PORT'
p2862
asbag61
(g82
g63
NtRp2863
(dp2864
g66
(dp2865
g93
g94
ssg75
g2854
sg68
(lp2866
S':'
asbag61
(g82
g63
NtRp2867
(dp2868
g66
(dp2869
sg75
g2854
sg68
(lp2870
g61
(g62
g63
NtRp2871
(dp2872
g66
(dp2873
g74
I3
ssg75
g2867
sg68
(lp2874
g1225
asbasbasbag61
(g77
g63
NtRp2875
(dp2876
g66
(dp2877
sg75
g2514
sg68
(lp2878
g61
(g82
g63
NtRp2879
(dp2880
g66
(dp2881
g86
g87
ssg75
g2875
sg68
(lp2882
S'REQUEST_METHOD'
p2883
asbag61
(g82
g63
NtRp2884
(dp2885
g66
(dp2886
g93
g94
ssg75
g2875
sg68
(lp2887
S':'
asbag61
(g82
g63
NtRp2888
(dp2889
g66
(dp2890
sg75
g2875
sg68
(lp2891
g61
(g62
g63
NtRp2892
(dp2893
g66
(dp2894
g74
I3
ssg75
g2888
sg68
(lp2895
g1247
asbasbasbag61
(g77
g63
NtRp2896
(dp2897
g66
(dp2898
sg75
g2514
sg68
(lp2899
g61
(g82
g63
NtRp2900
(dp2901
g66
(dp2902
g86
g87
ssg75
g2896
sg68
(lp2903
S'REQUEST_URI'
p2904
asbag61
(g82
g63
NtRp2905
(dp2906
g66
(dp2907
g93
g94
ssg75
g2896
sg68
(lp2908
S':'
asbag61
(g82
g63
NtRp2909
(dp2910
g66
(dp2911
sg75
g2896
sg68
(lp2912
g61
(g62
g63
NtRp2913
(dp2914
g66
(dp2915
g74
I3
ssg75
g2909
sg68
(lp2916
g1269
asbasbasbag61
(g77
g63
NtRp2917
(dp2918
g66
(dp2919
sg75
g2514
sg68
(lp2920
g61
(g82
g63
NtRp2921
(dp2922
g66
(dp2923
g86
g87
ssg75
g2917
sg68
(lp2924
S'SCRIPT_FILENAME'
p2925
asbag61
(g82
g63
NtRp2926
(dp2927
g66
(dp2928
g93
g94
ssg75
g2917
sg68
(lp2929
S':'
asbag61
(g82
g63
NtRp2930
(dp2931
g66
(dp2932
sg75
g2917
sg68
(lp2933
g61
(g62
g63
NtRp2934
(dp2935
g66
(dp2936
g74
I3
ssg75
g2930
sg68
(lp2937
g1291
asbasbasbag61
(g77
g63
NtRp2938
(dp2939
g66
(dp2940
sg75
g2514
sg68
(lp2941
g61
(g82
g63
NtRp2942
(dp2943
g66
(dp2944
g86
g87
ssg75
g2938
sg68
(lp2945
S'SCRIPT_NAME'
p2946
asbag61
(g82
g63
NtRp2947
(dp2948
g66
(dp2949
g93
g94
ssg75
g2938
sg68
(lp2950
S':'
asbag61
(g82
g63
NtRp2951
(dp2952
g66
(dp2953
sg75
g2938
sg68
(lp2954
g61
(g62
g63
NtRp2955
(dp2956
g66
(dp2957
g74
I3
ssg75
g2951
sg68
(lp2958
g1313
asbasbasbag61
(g77
g63
NtRp2959
(dp2960
g66
(dp2961
sg75
g2514
sg68
(lp2962
g61
(g82
g63
NtRp2963
(dp2964
g66
(dp2965
g86
g87
ssg75
g2959
sg68
(lp2966
S'SERVER_ADDR'
p2967
asbag61
(g82
g63
NtRp2968
(dp2969
g66
(dp2970
g93
g94
ssg75
g2959
sg68
(lp2971
S':'
asbag61
(g82
g63
NtRp2972
(dp2973
g66
(dp2974
sg75
g2959
sg68
(lp2975
g61
(g62
g63
NtRp2976
(dp2977
g66
(dp2978
g74
I3
ssg75
g2972
sg68
(lp2979
g1335
asbasbasbag61
(g77
g63
NtRp2980
(dp2981
g66
(dp2982
sg75
g2514
sg68
(lp2983
g61
(g82
g63
NtRp2984
(dp2985
g66
(dp2986
g86
g87
ssg75
g2980
sg68
(lp2987
S'SERVER_ADMIN'
p2988
asbag61
(g82
g63
NtRp2989
(dp2990
g66
(dp2991
g93
g94
ssg75
g2980
sg68
(lp2992
S':'
asbag61
(g82
g63
NtRp2993
(dp2994
g66
(dp2995
sg75
g2980
sg68
(lp2996
g61
(g62
g63
NtRp2997
(dp2998
g66
(dp2999
g74
I3
ssg75
g2993
sg68
(lp3000
g1357
asbasbasbag61
(g77
g63
NtRp3001
(dp3002
g66
(dp3003
sg75
g2514
sg68
(lp3004
g61
(g82
g63
NtRp3005
(dp3006
g66
(dp3007
g86
g87
ssg75
g3001
sg68
(lp3008
S'SERVER_NAME'
p3009
asbag61
(g82
g63
NtRp3010
(dp3011
g66
(dp3012
g93
g94
ssg75
g3001
sg68
(lp3013
S':'
asbag61
(g82
g63
NtRp3014
(dp3015
g66
(dp3016
sg75
g3001
sg68
(lp3017
g61
(g62
g63
NtRp3018
(dp3019
g66
(dp3020
g74
I3
ssg75
g3014
sg68
(lp3021
g1379
asbasbasbag61
(g77
g63
NtRp3022
(dp3023
g66
(dp3024
sg75
g2514
sg68
(lp3025
g61
(g82
g63
NtRp3026
(dp3027
g66
(dp3028
g86
g87
ssg75
g3022
sg68
(lp3029
S'SERVER_PORT'
p3030
asbag61
(g82
g63
NtRp3031
(dp3032
g66
(dp3033
g93
g94
ssg75
g3022
sg68
(lp3034
S':'
asbag61
(g82
g63
NtRp3035
(dp3036
g66
(dp3037
sg75
g3022
sg68
(lp3038
g61
(g62
g63
NtRp3039
(dp3040
g66
(dp3041
g74
I3
ssg75
g3035
sg68
(lp3042
g1401
asbasbasbag61
(g77
g63
NtRp3043
(dp3044
g66
(dp3045
sg75
g2514
sg68
(lp3046
g61
(g82
g63
NtRp3047
(dp3048
g66
(dp3049
g86
g87
ssg75
g3043
sg68
(lp3050
S'SERVER_PROTOCOL'
p3051
asbag61
(g82
g63
NtRp3052
(dp3053
g66
(dp3054
g93
g94
ssg75
g3043
sg68
(lp3055
S':'
asbag61
(g82
g63
NtRp3056
(dp3057
g66
(dp3058
sg75
g3043
sg68
(lp3059
g61
(g62
g63
NtRp3060
(dp3061
g66
(dp3062
g74
I3
ssg75
g3056
sg68
(lp3063
g1423
asbasbasbag61
(g77
g63
NtRp3064
(dp3065
g66
(dp3066
sg75
g2514
sg68
(lp3067
g61
(g82
g63
NtRp3068
(dp3069
g66
(dp3070
g86
g87
ssg75
g3064
sg68
(lp3071
S'SERVER_SIGNATURE'
p3072
asbag61
(g82
g63
NtRp3073
(dp3074
g66
(dp3075
g93
g94
ssg75
g3064
sg68
(lp3076
S':'
asbag61
(g82
g63
NtRp3077
(dp3078
g66
(dp3079
sg75
g3064
sg68
(lp3080
g61
(g62
g63
NtRp3081
(dp3082
g66
(dp3083
g74
I3
ssg75
g3077
sg68
(lp3084
S''
asbasbasbag61
(g77
g63
NtRp3085
(dp3086
g66
(dp3087
sg75
g2514
sg68
(lp3088
g61
(g82
g63
NtRp3089
(dp3090
g66
(dp3091
g86
g87
ssg75
g3085
sg68
(lp3092
S'SERVER_SOFTWARE'
p3093
asbag61
(g82
g63
NtRp3094
(dp3095
g66
(dp3096
g93
g94
ssg75
g3085
sg68
(lp3097
S':'
asbag61
(g82
g63
NtRp3098
(dp3099
g66
(dp3100
sg75
g3085
sg68
(lp3101
g61
(g62
g63
NtRp3102
(dp3103
g66
(dp3104
g74
I3
ssg75
g3098
sg68
(lp3105
g1466
asbasbasbag61
(g77
g63
NtRp3106
(dp3107
g66
(dp3108
sg75
g2514
sg68
(lp3109
g61
(g82
g63
NtRp3110
(dp3111
g66
(dp3112
g86
g87
ssg75
g3106
sg68
(lp3113
S'WEB2PY_ORIGINAL_URI'
p3114
asbag61
(g82
g63
NtRp3115
(dp3116
g66
(dp3117
g93
g94
ssg75
g3106
sg68
(lp3118
S':'
asbag61
(g82
g63
NtRp3119
(dp3120
g66
(dp3121
sg75
g3106
sg68
(lp3122
g61
(g62
g63
NtRp3123
(dp3124
g66
(dp3125
g74
I3
ssg75
g3119
sg68
(lp3126
g1488
asbasbasbag61
(g77
g63
NtRp3127
(dp3128
g66
(dp3129
sg75
g2514
sg68
(lp3130
g61
(g82
g63
NtRp3131
(dp3132
g66
(dp3133
g86
g87
ssg75
g3127
sg68
(lp3134
S'mod_wsgi.application_group'
p3135
asbag61
(g82
g63
NtRp3136
(dp3137
g66
(dp3138
g93
g94
ssg75
g3127
sg68
(lp3139
S':'
asbag61
(g82
g63
NtRp3140
(dp3141
g66
(dp3142
sg75
g3127
sg68
(lp3143
g61
(g62
g63
NtRp3144
(dp3145
g66
(dp3146
g74
I3
ssg75
g3140
sg68
(lp3147
g895
asbasbasbag61
(g77
g63
NtRp3148
(dp3149
g66
(dp3150
sg75
g2514
sg68
(lp3151
g61
(g82
g63
NtRp3152
(dp3153
g66
(dp3154
g86
g87
ssg75
g3148
sg68
(lp3155
S'mod_wsgi.callable_object'
p3156
asbag61
(g82
g63
NtRp3157
(dp3158
g66
(dp3159
g93
g94
ssg75
g3148
sg68
(lp3160
S':'
asbag61
(g82
g63
NtRp3161
(dp3162
g66
(dp3163
sg75
g3148
sg68
(lp3164
g61
(g62
g63
NtRp3165
(dp3166
g66
(dp3167
g74
I3
ssg75
g3161
sg68
(lp3168
g917
asbasbasbag61
(g77
g63
NtRp3169
(dp3170
g66
(dp3171
sg75
g2514
sg68
(lp3172
g61
(g82
g63
NtRp3173
(dp3174
g66
(dp3175
g86
g87
ssg75
g3169
sg68
(lp3176
S'mod_wsgi.handler_script'
p3177
asbag61
(g82
g63
NtRp3178
(dp3179
g66
(dp3180
g93
g94
ssg75
g3169
sg68
(lp3181
S':'
asbag61
(g82
g63
NtRp3182
(dp3183
g66
(dp3184
sg75
g3169
sg68
(lp3185
g61
(g62
g63
NtRp3186
(dp3187
g66
(dp3188
g74
I3
ssg75
g3182
sg68
(lp3189
S''
asbasbasbag61
(g77
g63
NtRp3190
(dp3191
g66
(dp3192
sg75
g2514
sg68
(lp3193
g61
(g82
g63
NtRp3194
(dp3195
g66
(dp3196
g86
g87
ssg75
g3190
sg68
(lp3197
S'mod_wsgi.input_chunked'
p3198
asbag61
(g82
g63
NtRp3199
(dp3200
g66
(dp3201
g93
g94
ssg75
g3190
sg68
(lp3202
S':'
asbag61
(g82
g63
NtRp3203
(dp3204
g66
(dp3205
sg75
g3190
sg68
(lp3206
g61
(g62
g63
NtRp3207
(dp3208
g66
(dp3209
g74
I3
ssg75
g3203
sg68
(lp3210
S'0'
asbasbasbag61
(g77
g63
NtRp3211
(dp3212
g66
(dp3213
sg75
g2514
sg68
(lp3214
g61
(g82
g63
NtRp3215
(dp3216
g66
(dp3217
g86
g87
ssg75
g3211
sg68
(lp3218
S'mod_wsgi.listener_host'
p3219
asbag61
(g82
g63
NtRp3220
(dp3221
g66
(dp3222
g93
g94
ssg75
g3211
sg68
(lp3223
S':'
asbag61
(g82
g63
NtRp3224
(dp3225
g66
(dp3226
sg75
g3211
sg68
(lp3227
g61
(g62
g63
NtRp3228
(dp3229
g66
(dp3230
g74
I3
ssg75
g3224
sg68
(lp3231
S''
asbasbasbag61
(g77
g63
NtRp3232
(dp3233
g66
(dp3234
sg75
g2514
sg68
(lp3235
g61
(g82
g63
NtRp3236
(dp3237
g66
(dp3238
g86
g87
ssg75
g3232
sg68
(lp3239
S'mod_wsgi.listener_port'
p3240
asbag61
(g82
g63
NtRp3241
(dp3242
g66
(dp3243
g93
g94
ssg75
g3232
sg68
(lp3244
S':'
asbag61
(g82
g63
NtRp3245
(dp3246
g66
(dp3247
sg75
g3232
sg68
(lp3248
g61
(g62
g63
NtRp3249
(dp3250
g66
(dp3251
g74
I3
ssg75
g3245
sg68
(lp3252
g1002
asbasbasbag61
(g77
g63
NtRp3253
(dp3254
g66
(dp3255
sg75
g2514
sg68
(lp3256
g61
(g82
g63
NtRp3257
(dp3258
g66
(dp3259
g86
g87
ssg75
g3253
sg68
(lp3260
S'mod_wsgi.process_group'
p3261
asbag61
(g82
g63
NtRp3262
(dp3263
g66
(dp3264
g93
g94
ssg75
g3253
sg68
(lp3265
S':'
asbag61
(g82
g63
NtRp3266
(dp3267
g66
(dp3268
sg75
g3253
sg68
(lp3269
g61
(g62
g63
NtRp3270
(dp3271
g66
(dp3272
g74
I3
ssg75
g3266
sg68
(lp3273
g1024
asbasbasbag61
(g77
g63
NtRp3274
(dp3275
g66
(dp3276
sg75
g2514
sg68
(lp3277
g61
(g82
g63
NtRp3278
(dp3279
g66
(dp3280
g86
g87
ssg75
g3274
sg68
(lp3281
S'mod_wsgi.request_handler'
p3282
asbag61
(g82
g63
NtRp3283
(dp3284
g66
(dp3285
g93
g94
ssg75
g3274
sg68
(lp3286
S':'
asbag61
(g82
g63
NtRp3287
(dp3288
g66
(dp3289
sg75
g3274
sg68
(lp3290
g61
(g62
g63
NtRp3291
(dp3292
g66
(dp3293
g74
I3
ssg75
g3287
sg68
(lp3294
g1046
asbasbasbag61
(g77
g63
NtRp3295
(dp3296
g66
(dp3297
sg75
g2514
sg68
(lp3298
g61
(g82
g63
NtRp3299
(dp3300
g66
(dp3301
g86
g87
ssg75
g3295
sg68
(lp3302
S'mod_wsgi.script_reloading'
p3303
asbag61
(g82
g63
NtRp3304
(dp3305
g66
(dp3306
g93
g94
ssg75
g3295
sg68
(lp3307
S':'
asbag61
(g82
g63
NtRp3308
(dp3309
g66
(dp3310
sg75
g3295
sg68
(lp3311
g61
(g62
g63
NtRp3312
(dp3313
g66
(dp3314
g74
I3
ssg75
g3308
sg68
(lp3315
S'1'
asbasbasbag61
(g77
g63
NtRp3316
(dp3317
g66
(dp3318
sg75
g2514
sg68
(lp3319
g61
(g82
g63
NtRp3320
(dp3321
g66
(dp3322
g86
g87
ssg75
g3316
sg68
(lp3323
S'mod_wsgi.version'
p3324
asbag61
(g82
g63
NtRp3325
(dp3326
g66
(dp3327
g93
g94
ssg75
g3316
sg68
(lp3328
S':'
asbag61
(g82
g63
NtRp3329
(dp3330
g66
(dp3331
sg75
g3316
sg68
(lp3332
g61
(g62
g63
NtRp3333
(dp3334
g66
(dp3335
g74
I3
ssg75
g3329
sg68
(lp3336
g61
(g70
g63
NtRp3337
(dp3338
g66
(dp3339
g74
I2
ssg75
Nsg68
(lp3340
g61
(g77
g63
NtRp3341
(dp3342
g66
(dp3343
sg75
g3337
sg68
(lp3344
g61
(g82
g63
NtRp3345
(dp3346
g66
(dp3347
sg75
g3341
sg68
(lp3348
g61
(g62
g63
NtRp3349
(dp3350
g66
(dp3351
g74
I2
ssg75
g3345
sg68
(lp3352
S'3'
asbasbasbag61
(g77
g63
NtRp3353
(dp3354
g66
(dp3355
sg75
g3337
sg68
(lp3356
g61
(g82
g63
NtRp3357
(dp3358
g66
(dp3359
sg75
g3353
sg68
(lp3360
g61
(g62
g63
NtRp3361
(dp3362
g66
(dp3363
g74
I2
ssg75
g3357
sg68
(lp3364
S'2'
asbasbasbasbasbasbasbag61
(g77
g63
NtRp3365
(dp3366
g66
(dp3367
sg75
g2514
sg68
(lp3368
g61
(g82
g63
NtRp3369
(dp3370
g66
(dp3371
g86
g87
ssg75
g3365
sg68
(lp3372
S'wsgi.errors'
p3373
asbag61
(g82
g63
NtRp3374
(dp3375
g66
(dp3376
g93
g94
ssg75
g3365
sg68
(lp3377
S':'
asbag61
(g82
g63
NtRp3378
(dp3379
g66
(dp3380
sg75
g3365
sg68
(lp3381
g61
(g62
g63
NtRp3382
(dp3383
g66
(dp3384
g74
I3
ssg75
g3378
sg68
(lp3385
S'<mod_wsgi.Log object at 0x7fba2066e930>'
p3386
asbasbasbag61
(g77
g63
NtRp3387
(dp3388
g66
(dp3389
sg75
g2514
sg68
(lp3390
g61
(g82
g63
NtRp3391
(dp3392
g66
(dp3393
g86
g87
ssg75
g3387
sg68
(lp3394
S'wsgi.file_wrapper'
p3395
asbag61
(g82
g63
NtRp3396
(dp3397
g66
(dp3398
g93
g94
ssg75
g3387
sg68
(lp3399
S':'
asbag61
(g82
g63
NtRp3400
(dp3401
g66
(dp3402
sg75
g3387
sg68
(lp3403
g61
(g62
g63
NtRp3404
(dp3405
g66
(dp3406
g74
I3
ssg75
g3400
sg68
(lp3407
S'<built-in method file_wrapper of mod_wsgi.Adapter object at 0x7fba2069c7b0>'
p3408
asbasbasbag61
(g77
g63
NtRp3409
(dp3410
g66
(dp3411
sg75
g2514
sg68
(lp3412
g61
(g82
g63
NtRp3413
(dp3414
g66
(dp3415
g86
g87
ssg75
g3409
sg68
(lp3416
S'wsgi.input'
p3417
asbag61
(g82
g63
NtRp3418
(dp3419
g66
(dp3420
g93
g94
ssg75
g3409
sg68
(lp3421
S':'
asbag61
(g82
g63
NtRp3422
(dp3423
g66
(dp3424
sg75
g3409
sg68
(lp3425
g61
(g62
g63
NtRp3426
(dp3427
g66
(dp3428
g74
I3
ssg75
g3422
sg68
(lp3429
S"<open file '<fdopen>', mode 'w+b' at 0x7fba20673540>"
p3430
asbasbasbag61
(g77
g63
NtRp3431
(dp3432
g66
(dp3433
sg75
g2514
sg68
(lp3434
g61
(g82
g63
NtRp3435
(dp3436
g66
(dp3437
g86
g87
ssg75
g3431
sg68
(lp3438
S'wsgi.multiprocess'
p3439
asbag61
(g82
g63
NtRp3440
(dp3441
g66
(dp3442
g93
g94
ssg75
g3431
sg68
(lp3443
S':'
asbag61
(g82
g63
NtRp3444
(dp3445
g66
(dp3446
sg75
g3431
sg68
(lp3447
g61
(g62
g63
NtRp3448
(dp3449
g66
(dp3450
g74
I3
ssg75
g3444
sg68
(lp3451
g104
asbasbasbag61
(g77
g63
NtRp3452
(dp3453
g66
(dp3454
sg75
g2514
sg68
(lp3455
g61
(g82
g63
NtRp3456
(dp3457
g66
(dp3458
g86
g87
ssg75
g3452
sg68
(lp3459
S'wsgi.multithread'
p3460
asbag61
(g82
g63
NtRp3461
(dp3462
g66
(dp3463
g93
g94
ssg75
g3452
sg68
(lp3464
S':'
asbag61
(g82
g63
NtRp3465
(dp3466
g66
(dp3467
sg75
g3452
sg68
(lp3468
g61
(g62
g63
NtRp3469
(dp3470
g66
(dp3471
g74
I3
ssg75
g3465
sg68
(lp3472
g1706
asbasbasbag61
(g77
g63
NtRp3473
(dp3474
g66
(dp3475
sg75
g2514
sg68
(lp3476
g61
(g82
g63
NtRp3477
(dp3478
g66
(dp3479
g86
g87
ssg75
g3473
sg68
(lp3480
S'wsgi.run_once'
p3481
asbag61
(g82
g63
NtRp3482
(dp3483
g66
(dp3484
g93
g94
ssg75
g3473
sg68
(lp3485
S':'
asbag61
(g82
g63
NtRp3486
(dp3487
g66
(dp3488
sg75
g3473
sg68
(lp3489
g61
(g62
g63
NtRp3490
(dp3491
g66
(dp3492
g74
I3
ssg75
g3486
sg68
(lp3493
g104
asbasbasbag61
(g77
g63
NtRp3494
(dp3495
g66
(dp3496
sg75
g2514
sg68
(lp3497
g61
(g82
g63
NtRp3498
(dp3499
g66
(dp3500
g86
g87
ssg75
g3494
sg68
(lp3501
S'wsgi.url_scheme'
p3502
asbag61
(g82
g63
NtRp3503
(dp3504
g66
(dp3505
g93
g94
ssg75
g3494
sg68
(lp3506
S':'
asbag61
(g82
g63
NtRp3507
(dp3508
g66
(dp3509
sg75
g3494
sg68
(lp3510
g61
(g62
g63
NtRp3511
(dp3512
g66
(dp3513
g74
I3
ssg75
g3507
sg68
(lp3514
g1749
asbasbasbag61
(g77
g63
NtRp3515
(dp3516
g66
(dp3517
sg75
g2514
sg68
(lp3518
g61
(g82
g63
NtRp3519
(dp3520
g66
(dp3521
g86
g87
ssg75
g3515
sg68
(lp3522
S'wsgi.version'
p3523
asbag61
(g82
g63
NtRp3524
(dp3525
g66
(dp3526
g93
g94
ssg75
g3515
sg68
(lp3527
S':'
asbag61
(g82
g63
NtRp3528
(dp3529
g66
(dp3530
sg75
g3515
sg68
(lp3531
g61
(g62
g63
NtRp3532
(dp3533
g66
(dp3534
g74
I3
ssg75
g3528
sg68
(lp3535
S'1'
asbasbasbasbasbasbasbasbasbasbasbasbasbsS'frames'
p3536
(lp3537
(dp3538
S'file'
p3539
S'/var/www/web2py/gluon/restricted.py'
p3540
sS'dump'
p3541
(dp3542
S'environment'
p3543
S"{'A': <class 'gluon.html.A'>, 'Auth': <class 'gluon.tools.Auth'>, 'B': <class 'gluon.html.B'>, 'BEAUTIFY': <class 'gluon.html.BEAUTIFY'>, 'BODY': <class 'gluon.html.BODY'>, 'BR': <class 'gluon.html.BR'>, 'BUTTON': <class 'gluon.html.BUTTON'>, 'CAT': <class 'gluon.html.CAT'>, 'CENTER': <class 'gluon.html.CENTER'>, 'CLEANUP': <class 'gluon.validators.CLEANUP'>, ...}"
p3544
sS'ccode'
p3545
S'<code object <module> at 0x7fba31e8f300, file "/...ns/Threads_Beta/controllers/default.py", line 11>'
p3546
ssS'lnum'
p3547
I204
sS'lines'
p3548
(dp3549
I199
S'    try:'
p3550
sI200
S'        if type(code) == types.CodeType:'
p3551
sI201
S'            ccode = code'
p3552
sI202
S'        else:'
p3553
sI203
S'            ccode = compile2(code,layer)'
p3554
sI204
S'        exec ccode in environment'
p3555
sI205
S'    except HTTP:'
p3556
sI206
S'        raise'
p3557
sI207
S'    except RestrictedError:'
p3558
sI208
S'        # do not encapsulate (obfuscate) the original RestrictedError'
p3559
ssS'call'
p3560
S"(code='# -*- coding: utf-8 -*-\\n# this file is released ...crud())\\n\\n\\nresponse._vars=response._caller(judge)\\n', environment={'A': <class 'gluon.html.A'>, 'Auth': <class 'gluon.tools.Auth'>, 'B': <class 'gluon.html.B'>, 'BEAUTIFY': <class 'gluon.html.BEAUTIFY'>, 'BODY': <class 'gluon.html.BODY'>, 'BR': <class 'gluon.html.BR'>, 'BUTTON': <class 'gluon.html.BUTTON'>, 'CAT': <class 'gluon.html.CAT'>, 'CENTER': <class 'gluon.html.CENTER'>, 'CLEANUP': <class 'gluon.validators.CLEANUP'>, ...}, layer='/var/www/web2py/applications/Threads_Beta/controllers/default.py')"
p3561
sS'func'
p3562
S'restricted'
p3563
sa(dp3564
g3539
S'/var/www/web2py/applications/Threads_Beta/controllers/default.py'
p3565
sg3541
(dp3566
sg3547
I236
sg3548
(dp3567
I225
S'    http://..../[app]/default/data/delete/[table]/[id]'
p3568
sI226
S'    http://..../[app]/default/data/select/[table]'
p3569
sI227
S'    http://..../[app]/default/data/search/[table]'
p3570
sI228
S'    but URLs must be signed, i.e. linked with'
p3571
sI229
S"      A('table',_href=URL('data/tables',user_signature=True))"
p3572
sI230
S'    or with the signed load operator'
p3573
sI231
S"      LOAD('default','data.load',args='tables',ajax=True,user_signature=True)"
p3574
sI232
S'    """'
p3575
sI233
S'    return dict(form=crud())'
p3576
sI234
S''
ssg3560
S'()'
p3577
sg3562
S'<module>'
p3578
sa(dp3579
g3539
S'/var/www/web2py/gluon/globals.py'
p3580
sg3541
(dp3581
S'self'
p3582
S'undefined'
p3583
sS'f'
S'<function judge>'
p3584
ssg3547
I172
sg3548
(dp3585
I167
S'        self.meta = Storage()      # used by web2py_ajax.html'
p3586
sI168
S'        self.menu = []             # used by the default view layout'
p3587
sI169
S'        self.files = []            # used by web2py_ajax.html'
p3588
sI170
S'        self.generic_patterns = [] # patterns to allow generic views'
p3589
sI171
S'        self._vars = None'
p3590
sI172
S'        self._caller = lambda f: f()'
p3591
sI173
S'        self._view_environment = None'
p3592
sI174
S'        self._custom_commit = None'
p3593
sI175
S'        self._custom_rollback = None'
p3594
sI176
S''
ssg3560
S'(f=<function judge>)'
p3595
sg3562
S'<lambda>'
p3596
sa(dp3597
g3539
S'/var/www/web2py/gluon/tools.py'
p3598
sg3541
(dp3599
S'action'
p3600
S'<function judge>'
p3601
sS'a'
S'()'
p3602
sS'b'
g21
ssg3547
I2533
sg3548
(dp3603
I2528
S'                # otherwise case 3 would be ok.'
p3604
sI2529
S'                if not (callable(condition) and condition() == True) and not condition == True:'
p3605
sI2530
S'                    current.session.flash = self.messages.access_denied'
p3606
sI2531
S'                    return call_or_redirect('
p3607
sI2532
S'                        self.settings.on_failed_authorization)'
p3608
sI2533
S'                return action(*a, **b)'
p3609
sI2534
S'            f.__doc__ = action.__doc__'
p3610
sI2535
S'            f.__name__ = action.__name__'
p3611
sI2536
S'            f.__dict__.update(action.__dict__)'
p3612
sI2537
S'            return f'
p3613
ssg3560
S'(*a=(), **b={})'
p3614
sg3562
S'f'
sa(dp3615
g3539
S'/var/www/web2py/applications/Threads_Beta/controllers/default.py'
p3616
sg3541
(dp3617
S'c'
S'<pycurl.Curl object>'
p3618
sS'c.perform'
p3619
S'<built-in method perform of pycurl.Curl object>'
p3620
ssg3547
I154
sg3548
(dp3621
I149
S'    curl_request = "http://localhost:10001"'
p3622
sI150
S'    c.setopt(pycurl.URL, curl_request)'
p3623
sI151
S'    c.setopt(pycurl.POST,1)'
p3624
sI152
S'    c.setopt(pycurl.POSTFIELDS, data_post)'
p3625
sI153
S'    c.setopt(pycurl.WRITEFUNCTION, buf.write)'
p3626
sI154
S'    c.perform()'
p3627
sI155
S'    ret_val = buf.getvalue()'
p3628
sI156
S'    buf.close()'
p3629
sI157
S'    #End of communication'
p3630
sI158
S''
ssg3560
S'()'
p3631
sg3562
S'judge'
p3632
sasS'pyver'
p3633
S'Python 2.6.6: /usr/bin/python'
p3634
sS'session'
p3635
g61
(g62
g63
NtRp3636
(dp3637
g66
(dp3638
sg68
(lp3639
g61
(g70
g63
NtRp3640
(dp3641
g66
(dp3642
g74
I5
ssg75
Nsg68
(lp3643
g61
(g77
g63
NtRp3644
(dp3645
g66
(dp3646
sg75
g3640
sg68
(lp3647
g61
(g82
g63
NtRp3648
(dp3649
g66
(dp3650
g86
g87
ssg75
g3644
sg68
(lp3651
S'auth'
p3652
asbag61
(g82
g63
NtRp3653
(dp3654
g66
(dp3655
g93
g94
ssg75
g3644
sg68
(lp3656
S':'
asbag61
(g82
g63
NtRp3657
(dp3658
g66
(dp3659
sg75
g3644
sg68
(lp3660
g61
(g62
g63
NtRp3661
(dp3662
g66
(dp3663
g74
I5
ssg75
g3657
sg68
(lp3664
g61
(g70
g63
NtRp3665
(dp3666
g66
(dp3667
g74
I4
ssg75
Nsg68
(lp3668
g61
(g77
g63
NtRp3669
(dp3670
g66
(dp3671
sg75
g3665
sg68
(lp3672
g61
(g82
g63
NtRp3673
(dp3674
g66
(dp3675
g86
g87
ssg75
g3669
sg68
(lp3676
S'expiration'
p3677
asbag61
(g82
g63
NtRp3678
(dp3679
g66
(dp3680
g93
g94
ssg75
g3669
sg68
(lp3681
S':'
asbag61
(g82
g63
NtRp3682
(dp3683
g66
(dp3684
sg75
g3669
sg68
(lp3685
g61
(g62
g63
NtRp3686
(dp3687
g66
(dp3688
g74
I4
ssg75
g3682
sg68
(lp3689
S'2592000'
p3690
asbasbasbag61
(g77
g63
NtRp3691
(dp3692
g66
(dp3693
sg75
g3665
sg68
(lp3694
g61
(g82
g63
NtRp3695
(dp3696
g66
(dp3697
g86
g87
ssg75
g3691
sg68
(lp3698
S'hmac_key'
p3699
asbag61
(g82
g63
NtRp3700
(dp3701
g66
(dp3702
g93
g94
ssg75
g3691
sg68
(lp3703
S':'
asbag61
(g82
g63
NtRp3704
(dp3705
g66
(dp3706
sg75
g3691
sg68
(lp3707
g61
(g62
g63
NtRp3708
(dp3709
g66
(dp3710
g74
I4
ssg75
g3704
sg68
(lp3711
S'a5a44f2c-f23d-4a51-93f9-76b99ac8fcf4'
p3712
asbasbasbag61
(g77
g63
NtRp3713
(dp3714
g66
(dp3715
sg75
g3665
sg68
(lp3716
g61
(g82
g63
NtRp3717
(dp3718
g66
(dp3719
g86
g87
ssg75
g3713
sg68
(lp3720
S'last_visit'
p3721
asbag61
(g82
g63
NtRp3722
(dp3723
g66
(dp3724
g93
g94
ssg75
g3713
sg68
(lp3725
S':'
asbag61
(g82
g63
NtRp3726
(dp3727
g66
(dp3728
sg75
g3713
sg68
(lp3729
g61
(g62
g63
NtRp3730
(dp3731
g66
(dp3732
g74
I4
ssg75
g3726
sg68
(lp3733
S'datetime.datetime(2012, 11, 23, 17, 14, 41, 677528)'
p3734
asbasbasbag61
(g77
g63
NtRp3735
(dp3736
g66
(dp3737
sg75
g3665
sg68
(lp3738
g61
(g82
g63
NtRp3739
(dp3740
g66
(dp3741
g86
g87
ssg75
g3735
sg68
(lp3742
S'remember'
p3743
asbag61
(g82
g63
NtRp3744
(dp3745
g66
(dp3746
g93
g94
ssg75
g3735
sg68
(lp3747
S':'
asbag61
(g82
g63
NtRp3748
(dp3749
g66
(dp3750
sg75
g3735
sg68
(lp3751
g61
(g62
g63
NtRp3752
(dp3753
g66
(dp3754
g74
I4
ssg75
g3748
sg68
(lp3755
g104
asbasbasbag61
(g77
g63
NtRp3756
(dp3757
g66
(dp3758
sg75
g3665
sg68
(lp3759
g61
(g82
g63
NtRp3760
(dp3761
g66
(dp3762
g86
g87
ssg75
g3756
sg68
(lp3763
S'user'
p3764
asbag61
(g82
g63
NtRp3765
(dp3766
g66
(dp3767
g93
g94
ssg75
g3756
sg68
(lp3768
S':'
asbag61
(g82
g63
NtRp3769
(dp3770
g66
(dp3771
sg75
g3756
sg68
(lp3772
g61
(g62
g63
NtRp3773
(dp3774
g66
(dp3775
g74
I4
ssg75
g3769
sg68
(lp3776
g61
(g70
g63
NtRp3777
(dp3778
g66
(dp3779
g74
I3
ssg75
Nsg68
(lp3780
g61
(g77
g63
NtRp3781
(dp3782
g66
(dp3783
sg75
g3777
sg68
(lp3784
g61
(g82
g63
NtRp3785
(dp3786
g66
(dp3787
g86
g87
ssg75
g3781
sg68
(lp3788
S'about'
p3789
asbag61
(g82
g63
NtRp3790
(dp3791
g66
(dp3792
g93
g94
ssg75
g3781
sg68
(lp3793
S':'
asbag61
(g82
g63
NtRp3794
(dp3795
g66
(dp3796
sg75
g3781
sg68
(lp3797
g61
(g62
g63
NtRp3798
(dp3799
g66
(dp3800
g74
I3
ssg75
g3794
sg68
(lp3801
S'I made this portal'
p3802
asbasbasbag61
(g77
g63
NtRp3803
(dp3804
g66
(dp3805
sg75
g3777
sg68
(lp3806
g61
(g82
g63
NtRp3807
(dp3808
g66
(dp3809
g86
g87
ssg75
g3803
sg68
(lp3810
S'contact'
p3811
asbag61
(g82
g63
NtRp3812
(dp3813
g66
(dp3814
g93
g94
ssg75
g3803
sg68
(lp3815
S':'
asbag61
(g82
g63
NtRp3816
(dp3817
g66
(dp3818
sg75
g3803
sg68
(lp3819
g61
(g62
g63
NtRp3820
(dp3821
g66
(dp3822
g74
I3
ssg75
g3816
sg68
(lp3823
S'None'
p3824
asbasbasbag61
(g77
g63
NtRp3825
(dp3826
g66
(dp3827
sg75
g3777
sg68
(lp3828
g61
(g82
g63
NtRp3829
(dp3830
g66
(dp3831
g86
g87
ssg75
g3825
sg68
(lp3832
S'email'
p3833
asbag61
(g82
g63
NtRp3834
(dp3835
g66
(dp3836
g93
g94
ssg75
g3825
sg68
(lp3837
S':'
asbag61
(g82
g63
NtRp3838
(dp3839
g66
(dp3840
sg75
g3825
sg68
(lp3841
g61
(g62
g63
NtRp3842
(dp3843
g66
(dp3844
g74
I3
ssg75
g3838
sg68
(lp3845
S'madhavan@felicity.iiit.ac.in'
p3846
asbasbasbag61
(g77
g63
NtRp3847
(dp3848
g66
(dp3849
sg75
g3777
sg68
(lp3850
g61
(g82
g63
NtRp3851
(dp3852
g66
(dp3853
g86
g87
ssg75
g3847
sg68
(lp3854
S'first_name'
p3855
asbag61
(g82
g63
NtRp3856
(dp3857
g66
(dp3858
g93
g94
ssg75
g3847
sg68
(lp3859
S':'
asbag61
(g82
g63
NtRp3860
(dp3861
g66
(dp3862
sg75
g3847
sg68
(lp3863
g61
(g62
g63
NtRp3864
(dp3865
g66
(dp3866
g74
I3
ssg75
g3860
sg68
(lp3867
S'Madhavan'
p3868
asbasbasbag61
(g77
g63
NtRp3869
(dp3870
g66
(dp3871
sg75
g3777
sg68
(lp3872
g61
(g82
g63
NtRp3873
(dp3874
g66
(dp3875
g86
g87
ssg75
g3869
sg68
(lp3876
S'handle'
p3877
asbag61
(g82
g63
NtRp3878
(dp3879
g66
(dp3880
g93
g94
ssg75
g3869
sg68
(lp3881
S':'
asbag61
(g82
g63
NtRp3882
(dp3883
g66
(dp3884
sg75
g3869
sg68
(lp3885
g61
(g62
g63
NtRp3886
(dp3887
g66
(dp3888
g74
I3
ssg75
g3882
sg68
(lp3889
S'Maddy'
p3890
asbasbasbag61
(g77
g63
NtRp3891
(dp3892
g66
(dp3893
sg75
g3777
sg68
(lp3894
g61
(g82
g63
NtRp3895
(dp3896
g66
(dp3897
g86
g87
ssg75
g3891
sg68
(lp3898
S'id'
p3899
asbag61
(g82
g63
NtRp3900
(dp3901
g66
(dp3902
g93
g94
ssg75
g3891
sg68
(lp3903
S':'
asbag61
(g82
g63
NtRp3904
(dp3905
g66
(dp3906
sg75
g3891
sg68
(lp3907
g61
(g62
g63
NtRp3908
(dp3909
g66
(dp3910
g74
I3
ssg75
g3904
sg68
(lp3911
S'1'
asbasbasbag61
(g77
g63
NtRp3912
(dp3913
g66
(dp3914
sg75
g3777
sg68
(lp3915
g61
(g82
g63
NtRp3916
(dp3917
g66
(dp3918
g86
g87
ssg75
g3912
sg68
(lp3919
S'last_name'
p3920
asbag61
(g82
g63
NtRp3921
(dp3922
g66
(dp3923
g93
g94
ssg75
g3912
sg68
(lp3924
S':'
asbag61
(g82
g63
NtRp3925
(dp3926
g66
(dp3927
sg75
g3912
sg68
(lp3928
g61
(g62
g63
NtRp3929
(dp3930
g66
(dp3931
g74
I3
ssg75
g3925
sg68
(lp3932
S'Malolan'
p3933
asbasbasbag61
(g77
g63
NtRp3934
(dp3935
g66
(dp3936
sg75
g3777
sg68
(lp3937
g61
(g82
g63
NtRp3938
(dp3939
g66
(dp3940
g86
g87
ssg75
g3934
sg68
(lp3941
S'password'
p3942
asbag61
(g82
g63
NtRp3943
(dp3944
g66
(dp3945
g93
g94
ssg75
g3934
sg68
(lp3946
S':'
asbag61
(g82
g63
NtRp3947
(dp3948
g66
(dp3949
sg75
g3934
sg68
(lp3950
g61
(g62
g63
NtRp3951
(dp3952
g66
(dp3953
g74
I3
ssg75
g3947
sg68
(lp3954
S'3e7dcbfef4ccdcc3bc90aa39b8721c0d'
p3955
asbasbasbag61
(g77
g63
NtRp3956
(dp3957
g66
(dp3958
sg75
g3777
sg68
(lp3959
g61
(g82
g63
NtRp3960
(dp3961
g66
(dp3962
g86
g87
ssg75
g3956
sg68
(lp3963
S'profile_pic'
p3964
asbag61
(g82
g63
NtRp3965
(dp3966
g66
(dp3967
g93
g94
ssg75
g3956
sg68
(lp3968
S':'
asbag61
(g82
g63
NtRp3969
(dp3970
g66
(dp3971
sg75
g3956
sg68
(lp3972
g61
(g62
g63
NtRp3973
(dp3974
g66
(dp3975
g74
I3
ssg75
g3969
sg68
(lp3976
S'auth_user.profile_pic.bcae818b083bbf8e.53637265656e73686f742d312e706e67.png'
p3977
asbasbasbag61
(g77
g63
NtRp3978
(dp3979
g66
(dp3980
sg75
g3777
sg68
(lp3981
g61
(g82
g63
NtRp3982
(dp3983
g66
(dp3984
g86
g87
ssg75
g3978
sg68
(lp3985
S'registration_id'
p3986
asbag61
(g82
g63
NtRp3987
(dp3988
g66
(dp3989
g93
g94
ssg75
g3978
sg68
(lp3990
S':'
asbag61
(g82
g63
NtRp3991
(dp3992
g66
(dp3993
sg75
g3978
sg68
(lp3994
g61
(g62
g63
NtRp3995
(dp3996
g66
(dp3997
g74
I3
ssg75
g3991
sg68
(lp3998
S''
asbasbasbag61
(g77
g63
NtRp3999
(dp4000
g66
(dp4001
sg75
g3777
sg68
(lp4002
g61
(g82
g63
NtRp4003
(dp4004
g66
(dp4005
g86
g87
ssg75
g3999
sg68
(lp4006
S'registration_key'
p4007
asbag61
(g82
g63
NtRp4008
(dp4009
g66
(dp4010
g93
g94
ssg75
g3999
sg68
(lp4011
S':'
asbag61
(g82
g63
NtRp4012
(dp4013
g66
(dp4014
sg75
g3999
sg68
(lp4015
g61
(g62
g63
NtRp4016
(dp4017
g66
(dp4018
g74
I3
ssg75
g4012
sg68
(lp4019
S''
asbasbasbag61
(g77
g63
NtRp4020
(dp4021
g66
(dp4022
sg75
g3777
sg68
(lp4023
g61
(g82
g63
NtRp4024
(dp4025
g66
(dp4026
g86
g87
ssg75
g4020
sg68
(lp4027
S'reset_password_key'
p4028
asbag61
(g82
g63
NtRp4029
(dp4030
g66
(dp4031
g93
g94
ssg75
g4020
sg68
(lp4032
S':'
asbag61
(g82
g63
NtRp4033
(dp4034
g66
(dp4035
sg75
g4020
sg68
(lp4036
g61
(g62
g63
NtRp4037
(dp4038
g66
(dp4039
g74
I3
ssg75
g4033
sg68
(lp4040
S''
asbasbasbasbasbasbasbasbasbasbasbasbasbsS'etype'
p4041
S"<class 'pycurl.error'>"
p4042
sS'date'
p4043
S'Fri Nov 23 19:10:04 2012'
p4044
sS'response'
p4045
g61
(g62
g63
NtRp4046
(dp4047
g66
(dp4048
sg68
(lp4049
g61
(g70
g63
NtRp4050
(dp4051
g66
(dp4052
g74
I5
ssg75
Nsg68
(lp4053
g61
(g77
g63
NtRp4054
(dp4055
g66
(dp4056
sg75
g4050
sg68
(lp4057
g61
(g82
g63
NtRp4058
(dp4059
g66
(dp4060
g86
g87
ssg75
g4054
sg68
(lp4061
g159
asbag61
(g82
g63
NtRp4062
(dp4063
g66
(dp4064
g93
g94
ssg75
g4054
sg68
(lp4065
S':'
asbag61
(g82
g63
NtRp4066
(dp4067
g66
(dp4068
sg75
g4054
sg68
(lp4069
g61
(g62
g63
NtRp4070
(dp4071
g66
(dp4072
g74
I5
ssg75
g4066
sg68
(lp4073
S'<cStringIO.StringO object at 0x7fba20684ab0>'
p4074
asbasbasbag61
(g77
g63
NtRp4075
(dp4076
g66
(dp4077
sg75
g4050
sg68
(lp4078
g61
(g82
g63
NtRp4079
(dp4080
g66
(dp4081
g86
g87
ssg75
g4075
sg68
(lp4082
g225
asbag61
(g82
g63
NtRp4083
(dp4084
g66
(dp4085
g93
g94
ssg75
g4075
sg68
(lp4086
S':'
asbag61
(g82
g63
NtRp4087
(dp4088
g66
(dp4089
sg75
g4075
sg68
(lp4090
g61
(g62
g63
NtRp4091
(dp4092
g66
(dp4093
g74
I5
ssg75
g4087
sg68
(lp4094
g61
(g70
g63
NtRp4095
(dp4096
g66
(dp4097
g74
I4
ssg75
Nsg68
(lp4098
g61
(g77
g63
NtRp4099
(dp4100
g66
(dp4101
sg75
g4095
sg68
(lp4102
g61
(g82
g63
NtRp4103
(dp4104
g66
(dp4105
g86
g87
ssg75
g4099
sg68
(lp4106
S'session_id_threads_beta'
p4107
asbag61
(g82
g63
NtRp4108
(dp4109
g66
(dp4110
g93
g94
ssg75
g4099
sg68
(lp4111
S':'
asbag61
(g82
g63
NtRp4112
(dp4113
g66
(dp4114
sg75
g4099
sg68
(lp4115
g61
(g62
g63
NtRp4116
(dp4117
g66
(dp4118
g74
I4
ssg75
g4112
sg68
(lp4119
g61
(g70
g63
NtRp4120
(dp4121
g66
(dp4122
g74
I3
ssg75
Nsg68
(lp4123
g61
(g77
g63
NtRp4124
(dp4125
g66
(dp4126
sg75
g4120
sg68
(lp4127
g61
(g82
g63
NtRp4128
(dp4129
g66
(dp4130
g86
g87
ssg75
g4124
sg68
(lp4131
g275
asbag61
(g82
g63
NtRp4132
(dp4133
g66
(dp4134
g93
g94
ssg75
g4124
sg68
(lp4135
S':'
asbag61
(g82
g63
NtRp4136
(dp4137
g66
(dp4138
sg75
g4124
sg68
(lp4139
g61
(g62
g63
NtRp4140
(dp4141
g66
(dp4142
g74
I3
ssg75
g4136
sg68
(lp4143
S''
asbasbasbag61
(g77
g63
NtRp4144
(dp4145
g66
(dp4146
sg75
g4120
sg68
(lp4147
g61
(g82
g63
NtRp4148
(dp4149
g66
(dp4150
g86
g87
ssg75
g4144
sg68
(lp4151
g296
asbag61
(g82
g63
NtRp4152
(dp4153
g66
(dp4154
g93
g94
ssg75
g4144
sg68
(lp4155
S':'
asbag61
(g82
g63
NtRp4156
(dp4157
g66
(dp4158
sg75
g4144
sg68
(lp4159
g61
(g62
g63
NtRp4160
(dp4161
g66
(dp4162
g74
I3
ssg75
g4156
sg68
(lp4163
S''
asbasbasbag61
(g77
g63
NtRp4164
(dp4165
g66
(dp4166
sg75
g4120
sg68
(lp4167
g61
(g82
g63
NtRp4168
(dp4169
g66
(dp4170
g86
g87
ssg75
g4164
sg68
(lp4171
g317
asbag61
(g82
g63
NtRp4172
(dp4173
g66
(dp4174
g93
g94
ssg75
g4164
sg68
(lp4175
S':'
asbag61
(g82
g63
NtRp4176
(dp4177
g66
(dp4178
sg75
g4164
sg68
(lp4179
g61
(g62
g63
NtRp4180
(dp4181
g66
(dp4182
g74
I3
ssg75
g4176
sg68
(lp4183
S''
asbasbasbag61
(g77
g63
NtRp4184
(dp4185
g66
(dp4186
sg75
g4120
sg68
(lp4187
g61
(g82
g63
NtRp4188
(dp4189
g66
(dp4190
g86
g87
ssg75
g4184
sg68
(lp4191
g338
asbag61
(g82
g63
NtRp4192
(dp4193
g66
(dp4194
g93
g94
ssg75
g4184
sg68
(lp4195
S':'
asbag61
(g82
g63
NtRp4196
(dp4197
g66
(dp4198
sg75
g4184
sg68
(lp4199
g61
(g62
g63
NtRp4200
(dp4201
g66
(dp4202
g74
I3
ssg75
g4196
sg68
(lp4203
S''
asbasbasbag61
(g77
g63
NtRp4204
(dp4205
g66
(dp4206
sg75
g4120
sg68
(lp4207
g61
(g82
g63
NtRp4208
(dp4209
g66
(dp4210
g86
g87
ssg75
g4204
sg68
(lp4211
g359
asbag61
(g82
g63
NtRp4212
(dp4213
g66
(dp4214
g93
g94
ssg75
g4204
sg68
(lp4215
S':'
asbag61
(g82
g63
NtRp4216
(dp4217
g66
(dp4218
sg75
g4204
sg68
(lp4219
g61
(g62
g63
NtRp4220
(dp4221
g66
(dp4222
g74
I3
ssg75
g4216
sg68
(lp4223
S''
asbasbasbag61
(g77
g63
NtRp4224
(dp4225
g66
(dp4226
sg75
g4120
sg68
(lp4227
g61
(g82
g63
NtRp4228
(dp4229
g66
(dp4230
g86
g87
ssg75
g4224
sg68
(lp4231
g380
asbag61
(g82
g63
NtRp4232
(dp4233
g66
(dp4234
g93
g94
ssg75
g4224
sg68
(lp4235
S':'
asbag61
(g82
g63
NtRp4236
(dp4237
g66
(dp4238
sg75
g4224
sg68
(lp4239
g61
(g62
g63
NtRp4240
(dp4241
g66
(dp4242
g74
I3
ssg75
g4236
sg68
(lp4243
S'/'
asbasbasbag61
(g77
g63
NtRp4244
(dp4245
g66
(dp4246
sg75
g4120
sg68
(lp4247
g61
(g82
g63
NtRp4248
(dp4249
g66
(dp4250
g86
g87
ssg75
g4244
sg68
(lp4251
g401
asbag61
(g82
g63
NtRp4252
(dp4253
g66
(dp4254
g93
g94
ssg75
g4244
sg68
(lp4255
S':'
asbag61
(g82
g63
NtRp4256
(dp4257
g66
(dp4258
sg75
g4244
sg68
(lp4259
g61
(g62
g63
NtRp4260
(dp4261
g66
(dp4262
g74
I3
ssg75
g4256
sg68
(lp4263
S''
asbasbasbag61
(g77
g63
NtRp4264
(dp4265
g66
(dp4266
sg75
g4120
sg68
(lp4267
g61
(g82
g63
NtRp4268
(dp4269
g66
(dp4270
g86
g87
ssg75
g4264
sg68
(lp4271
g422
asbag61
(g82
g63
NtRp4272
(dp4273
g66
(dp4274
g93
g94
ssg75
g4264
sg68
(lp4275
S':'
asbag61
(g82
g63
NtRp4276
(dp4277
g66
(dp4278
sg75
g4264
sg68
(lp4279
g61
(g62
g63
NtRp4280
(dp4281
g66
(dp4282
g74
I3
ssg75
g4276
sg68
(lp4283
S''
asbasbasbasbasbasbasbasbasbasbasbag61
(g77
g63
NtRp4284
(dp4285
g66
(dp4286
sg75
g4050
sg68
(lp4287
g61
(g82
g63
NtRp4288
(dp4289
g66
(dp4290
g86
g87
ssg75
g4284
sg68
(lp4291
S'files'
p4292
asbag61
(g82
g63
NtRp4293
(dp4294
g66
(dp4295
g93
g94
ssg75
g4284
sg68
(lp4296
S':'
asbag61
(g82
g63
NtRp4297
(dp4298
g66
(dp4299
sg75
g4284
sg68
(lp4300
g61
(g62
g63
NtRp4301
(dp4302
g66
(dp4303
g74
I5
ssg75
g4297
sg68
(lp4304
g61
(g70
g63
NtRp4305
(dp4306
g66
(dp4307
g74
I4
ssg75
Nsg68
(lp4308
sbasbasbasbag61
(g77
g63
NtRp4309
(dp4310
g66
(dp4311
sg75
g4050
sg68
(lp4312
g61
(g82
g63
NtRp4313
(dp4314
g66
(dp4315
g86
g87
ssg75
g4309
sg68
(lp4316
S'flash'
p4317
asbag61
(g82
g63
NtRp4318
(dp4319
g66
(dp4320
g93
g94
ssg75
g4309
sg68
(lp4321
S':'
asbag61
(g82
g63
NtRp4322
(dp4323
g66
(dp4324
sg75
g4309
sg68
(lp4325
g61
(g62
g63
NtRp4326
(dp4327
g66
(dp4328
g74
I5
ssg75
g4322
sg68
(lp4329
S''
asbasbasbag61
(g77
g63
NtRp4330
(dp4331
g66
(dp4332
sg75
g4050
sg68
(lp4333
g61
(g82
g63
NtRp4334
(dp4335
g66
(dp4336
g86
g87
ssg75
g4330
sg68
(lp4337
S'generic_patterns'
p4338
asbag61
(g82
g63
NtRp4339
(dp4340
g66
(dp4341
g93
g94
ssg75
g4330
sg68
(lp4342
S':'
asbag61
(g82
g63
NtRp4343
(dp4344
g66
(dp4345
sg75
g4330
sg68
(lp4346
g61
(g62
g63
NtRp4347
(dp4348
g66
(dp4349
g74
I5
ssg75
g4343
sg68
(lp4350
g61
(g70
g63
NtRp4351
(dp4352
g66
(dp4353
g74
I4
ssg75
Nsg68
(lp4354
sbasbasbasbag61
(g77
g63
NtRp4355
(dp4356
g66
(dp4357
sg75
g4050
sg68
(lp4358
g61
(g82
g63
NtRp4359
(dp4360
g66
(dp4361
g86
g87
ssg75
g4355
sg68
(lp4362
S'headers'
p4363
asbag61
(g82
g63
NtRp4364
(dp4365
g66
(dp4366
g93
g94
ssg75
g4355
sg68
(lp4367
S':'
asbag61
(g82
g63
NtRp4368
(dp4369
g66
(dp4370
sg75
g4355
sg68
(lp4371
g61
(g62
g63
NtRp4372
(dp4373
g66
(dp4374
g74
I5
ssg75
g4368
sg68
(lp4375
g61
(g70
g63
NtRp4376
(dp4377
g66
(dp4378
g74
I4
ssg75
Nsg68
(lp4379
g61
(g77
g63
NtRp4380
(dp4381
g66
(dp4382
sg75
g4376
sg68
(lp4383
g61
(g82
g63
NtRp4384
(dp4385
g66
(dp4386
g86
g87
ssg75
g4380
sg68
(lp4387
S'Cache-Control'
p4388
asbag61
(g82
g63
NtRp4389
(dp4390
g66
(dp4391
g93
g94
ssg75
g4380
sg68
(lp4392
S':'
asbag61
(g82
g63
NtRp4393
(dp4394
g66
(dp4395
sg75
g4380
sg68
(lp4396
g61
(g62
g63
NtRp4397
(dp4398
g66
(dp4399
g74
I4
ssg75
g4393
sg68
(lp4400
S'no-store, no-cache, must-revalidate, post-check=0, pre-check=0'
p4401
asbasbasbag61
(g77
g63
NtRp4402
(dp4403
g66
(dp4404
sg75
g4376
sg68
(lp4405
g61
(g82
g63
NtRp4406
(dp4407
g66
(dp4408
g86
g87
ssg75
g4402
sg68
(lp4409
S'Content-Type'
p4410
asbag61
(g82
g63
NtRp4411
(dp4412
g66
(dp4413
g93
g94
ssg75
g4402
sg68
(lp4414
S':'
asbag61
(g82
g63
NtRp4415
(dp4416
g66
(dp4417
sg75
g4402
sg68
(lp4418
g61
(g62
g63
NtRp4419
(dp4420
g66
(dp4421
g74
I4
ssg75
g4415
sg68
(lp4422
S'text/html; charset=utf-8'
p4423
asbasbasbag61
(g77
g63
NtRp4424
(dp4425
g66
(dp4426
sg75
g4376
sg68
(lp4427
g61
(g82
g63
NtRp4428
(dp4429
g66
(dp4430
g86
g87
ssg75
g4424
sg68
(lp4431
S'Expires'
p4432
asbag61
(g82
g63
NtRp4433
(dp4434
g66
(dp4435
g93
g94
ssg75
g4424
sg68
(lp4436
S':'
asbag61
(g82
g63
NtRp4437
(dp4438
g66
(dp4439
sg75
g4424
sg68
(lp4440
g61
(g62
g63
NtRp4441
(dp4442
g66
(dp4443
g74
I4
ssg75
g4437
sg68
(lp4444
S'Fri, 23 Nov 2012 13:40:03 GMT'
p4445
asbasbasbag61
(g77
g63
NtRp4446
(dp4447
g66
(dp4448
sg75
g4376
sg68
(lp4449
g61
(g82
g63
NtRp4450
(dp4451
g66
(dp4452
g86
g87
ssg75
g4446
sg68
(lp4453
S'Pragma'
p4454
asbag61
(g82
g63
NtRp4455
(dp4456
g66
(dp4457
g93
g94
ssg75
g4446
sg68
(lp4458
S':'
asbag61
(g82
g63
NtRp4459
(dp4460
g66
(dp4461
sg75
g4446
sg68
(lp4462
g61
(g62
g63
NtRp4463
(dp4464
g66
(dp4465
g74
I4
ssg75
g4459
sg68
(lp4466
S'no-cache'
p4467
asbasbasbag61
(g77
g63
NtRp4468
(dp4469
g66
(dp4470
sg75
g4376
sg68
(lp4471
g61
(g82
g63
NtRp4472
(dp4473
g66
(dp4474
g86
g87
ssg75
g4468
sg68
(lp4475
S'X-Powered-By'
p4476
asbag61
(g82
g63
NtRp4477
(dp4478
g66
(dp4479
g93
g94
ssg75
g4468
sg68
(lp4480
S':'
asbag61
(g82
g63
NtRp4481
(dp4482
g66
(dp4483
sg75
g4468
sg68
(lp4484
g61
(g62
g63
NtRp4485
(dp4486
g66
(dp4487
g74
I4
ssg75
g4481
sg68
(lp4488
S'web2py'
p4489
asbasbasbasbasbasbasbag61
(g77
g63
NtRp4490
(dp4491
g66
(dp4492
sg75
g4050
sg68
(lp4493
g61
(g82
g63
NtRp4494
(dp4495
g66
(dp4496
g86
g87
ssg75
g4490
sg68
(lp4497
S'menu'
p4498
asbag61
(g82
g63
NtRp4499
(dp4500
g66
(dp4501
g93
g94
ssg75
g4490
sg68
(lp4502
S':'
asbag61
(g82
g63
NtRp4503
(dp4504
g66
(dp4505
sg75
g4490
sg68
(lp4506
g61
(g62
g63
NtRp4507
(dp4508
g66
(dp4509
g74
I5
ssg75
g4503
sg68
(lp4510
g61
(g70
g63
NtRp4511
(dp4512
g66
(dp4513
g74
I4
ssg75
Nsg68
(lp4514
g61
(g77
g63
NtRp4515
(dp4516
g66
(dp4517
sg75
g4511
sg68
(lp4518
g61
(g82
g63
NtRp4519
(dp4520
g66
(dp4521
sg75
g4515
sg68
(lp4522
g61
(g62
g63
NtRp4523
(dp4524
g66
(dp4525
g74
I4
ssg75
g4519
sg68
(lp4526
g61
(g70
g63
NtRp4527
(dp4528
g66
(dp4529
g74
I3
ssg75
Nsg68
(lp4530
g61
(g77
g63
NtRp4531
(dp4532
g66
(dp4533
sg75
g4527
sg68
(lp4534
g61
(g82
g63
NtRp4535
(dp4536
g66
(dp4537
sg75
g4531
sg68
(lp4538
g61
(g62
g63
NtRp4539
(dp4540
g66
(dp4541
g74
I3
ssg75
g4535
sg68
(lp4542
cgluon.languages
lazyT_unpickle
p4543
(S's\x07\x00\x00\x00Threads'
tRp4544
asbasbasbag61
(g77
g63
NtRp4545
(dp4546
g66
(dp4547
sg75
g4527
sg68
(lp4548
g61
(g82
g63
NtRp4549
(dp4550
g66
(dp4551
sg75
g4545
sg68
(lp4552
g61
(g62
g63
NtRp4553
(dp4554
g66
(dp4555
g74
I3
ssg75
g4549
sg68
(lp4556
g104
asbasbasbag61
(g77
g63
NtRp4557
(dp4558
g66
(dp4559
sg75
g4527
sg68
(lp4560
g61
(g82
g63
NtRp4561
(dp4562
g66
(dp4563
sg75
g4557
sg68
(lp4564
g61
(g62
g63
NtRp4565
(dp4566
g66
(dp4567
g74
I3
ssg75
g4561
sg68
(lp4568
S'/web2py/Threads_Beta/default/index'
p4569
asbasbasbag61
(g77
g63
NtRp4570
(dp4571
g66
(dp4572
sg75
g4527
sg68
(lp4573
g61
(g82
g63
NtRp4574
(dp4575
g66
(dp4576
sg75
g4570
sg68
(lp4577
g61
(g62
g63
NtRp4578
(dp4579
g66
(dp4580
g74
I3
ssg75
g4574
sg68
(lp4581
g61
(g70
g63
NtRp4582
(dp4583
g66
(dp4584
g74
I2
ssg75
Nsg68
(lp4585
sbasbasbasbasbasbasbasbag61
(g77
g63
NtRp4586
(dp4587
g66
(dp4588
sg75
g4511
sg68
(lp4589
g61
(g82
g63
NtRp4590
(dp4591
g66
(dp4592
sg75
g4586
sg68
(lp4593
g61
(g62
g63
NtRp4594
(dp4595
g66
(dp4596
g74
I4
ssg75
g4590
sg68
(lp4597
g61
(g70
g63
NtRp4598
(dp4599
g66
(dp4600
g74
I3
ssg75
Nsg68
(lp4601
g61
(g77
g63
NtRp4602
(dp4603
g66
(dp4604
sg75
g4598
sg68
(lp4605
g61
(g82
g63
NtRp4606
(dp4607
g66
(dp4608
sg75
g4602
sg68
(lp4609
g61
(g62
g63
NtRp4610
(dp4611
g66
(dp4612
g74
I3
ssg75
g4606
sg68
(lp4613
g4543
(S's\x08\x00\x00\x00Felicity'
tRp4614
asbasbasbag61
(g77
g63
NtRp4615
(dp4616
g66
(dp4617
sg75
g4598
sg68
(lp4618
g61
(g82
g63
NtRp4619
(dp4620
g66
(dp4621
sg75
g4615
sg68
(lp4622
g61
(g62
g63
NtRp4623
(dp4624
g66
(dp4625
g74
I3
ssg75
g4619
sg68
(lp4626
g104
asbasbasbag61
(g77
g63
NtRp4627
(dp4628
g66
(dp4629
sg75
g4598
sg68
(lp4630
g61
(g82
g63
NtRp4631
(dp4632
g66
(dp4633
sg75
g4627
sg68
(lp4634
g61
(g62
g63
NtRp4635
(dp4636
g66
(dp4637
g74
I3
ssg75
g4631
sg68
(lp4638
S'http://felicity.iiit.ac.in'
p4639
asbasbasbag61
(g77
g63
NtRp4640
(dp4641
g66
(dp4642
sg75
g4598
sg68
(lp4643
g61
(g82
g63
NtRp4644
(dp4645
g66
(dp4646
sg75
g4640
sg68
(lp4647
g61
(g62
g63
NtRp4648
(dp4649
g66
(dp4650
g74
I3
ssg75
g4644
sg68
(lp4651
g61
(g70
g63
NtRp4652
(dp4653
g66
(dp4654
g74
I2
ssg75
Nsg68
(lp4655
sbasbasbasbasbasbasbasbasbasbasbasbag61
(g77
g63
NtRp4656
(dp4657
g66
(dp4658
sg75
g4050
sg68
(lp4659
g61
(g82
g63
NtRp4660
(dp4661
g66
(dp4662
g86
g87
ssg75
g4656
sg68
(lp4663
S'meta'
p4664
asbag61
(g82
g63
NtRp4665
(dp4666
g66
(dp4667
g93
g94
ssg75
g4656
sg68
(lp4668
S':'
asbag61
(g82
g63
NtRp4669
(dp4670
g66
(dp4671
sg75
g4656
sg68
(lp4672
g61
(g62
g63
NtRp4673
(dp4674
g66
(dp4675
g74
I5
ssg75
g4669
sg68
(lp4676
g61
(g70
g63
NtRp4677
(dp4678
g66
(dp4679
g74
I4
ssg75
Nsg68
(lp4680
g61
(g77
g63
NtRp4681
(dp4682
g66
(dp4683
sg75
g4677
sg68
(lp4684
g61
(g82
g63
NtRp4685
(dp4686
g66
(dp4687
g86
g87
ssg75
g4681
sg68
(lp4688
S'author'
p4689
asbag61
(g82
g63
NtRp4690
(dp4691
g66
(dp4692
g93
g94
ssg75
g4681
sg68
(lp4693
S':'
asbag61
(g82
g63
NtRp4694
(dp4695
g66
(dp4696
sg75
g4681
sg68
(lp4697
g61
(g62
g63
NtRp4698
(dp4699
g66
(dp4700
g74
I4
ssg75
g4694
sg68
(lp4701
S'Your Name <you@example.com>'
p4702
asbasbasbag61
(g77
g63
NtRp4703
(dp4704
g66
(dp4705
sg75
g4677
sg68
(lp4706
g61
(g82
g63
NtRp4707
(dp4708
g66
(dp4709
g86
g87
ssg75
g4703
sg68
(lp4710
S'copyright'
p4711
asbag61
(g82
g63
NtRp4712
(dp4713
g66
(dp4714
g93
g94
ssg75
g4703
sg68
(lp4715
S':'
asbag61
(g82
g63
NtRp4716
(dp4717
g66
(dp4718
sg75
g4703
sg68
(lp4719
g61
(g62
g63
NtRp4720
(dp4721
g66
(dp4722
g74
I4
ssg75
g4716
sg68
(lp4723
S'Copyright 2011'
p4724
asbasbasbag61
(g77
g63
NtRp4725
(dp4726
g66
(dp4727
sg75
g4677
sg68
(lp4728
g61
(g82
g63
NtRp4729
(dp4730
g66
(dp4731
g86
g87
ssg75
g4725
sg68
(lp4732
S'description'
p4733
asbag61
(g82
g63
NtRp4734
(dp4735
g66
(dp4736
g93
g94
ssg75
g4725
sg68
(lp4737
S':'
asbag61
(g82
g63
NtRp4738
(dp4739
g66
(dp4740
sg75
g4725
sg68
(lp4741
g61
(g62
g63
NtRp4742
(dp4743
g66
(dp4744
g74
I4
ssg75
g4738
sg68
(lp4745
S'a cool new app'
p4746
asbasbasbag61
(g77
g63
NtRp4747
(dp4748
g66
(dp4749
sg75
g4677
sg68
(lp4750
g61
(g82
g63
NtRp4751
(dp4752
g66
(dp4753
g86
g87
ssg75
g4747
sg68
(lp4754
S'generator'
p4755
asbag61
(g82
g63
NtRp4756
(dp4757
g66
(dp4758
g93
g94
ssg75
g4747
sg68
(lp4759
S':'
asbag61
(g82
g63
NtRp4760
(dp4761
g66
(dp4762
sg75
g4747
sg68
(lp4763
g61
(g62
g63
NtRp4764
(dp4765
g66
(dp4766
g74
I4
ssg75
g4760
sg68
(lp4767
S'Web2py Web Framework'
p4768
asbasbasbag61
(g77
g63
NtRp4769
(dp4770
g66
(dp4771
sg75
g4677
sg68
(lp4772
g61
(g82
g63
NtRp4773
(dp4774
g66
(dp4775
g86
g87
ssg75
g4769
sg68
(lp4776
S'keywords'
p4777
asbag61
(g82
g63
NtRp4778
(dp4779
g66
(dp4780
g93
g94
ssg75
g4769
sg68
(lp4781
S':'
asbag61
(g82
g63
NtRp4782
(dp4783
g66
(dp4784
sg75
g4769
sg68
(lp4785
g61
(g62
g63
NtRp4786
(dp4787
g66
(dp4788
g74
I4
ssg75
g4782
sg68
(lp4789
S'web2py, python, framework'
p4790
asbasbasbasbasbasbasbag61
(g77
g63
NtRp4791
(dp4792
g66
(dp4793
sg75
g4050
sg68
(lp4794
g61
(g82
g63
NtRp4795
(dp4796
g66
(dp4797
g86
g87
ssg75
g4791
sg68
(lp4798
S'postprocessing'
p4799
asbag61
(g82
g63
NtRp4800
(dp4801
g66
(dp4802
g93
g94
ssg75
g4791
sg68
(lp4803
S':'
asbag61
(g82
g63
NtRp4804
(dp4805
g66
(dp4806
sg75
g4791
sg68
(lp4807
g61
(g62
g63
NtRp4808
(dp4809
g66
(dp4810
g74
I5
ssg75
g4804
sg68
(lp4811
g61
(g70
g63
NtRp4812
(dp4813
g66
(dp4814
g74
I4
ssg75
Nsg68
(lp4815
sbasbasbasbag61
(g77
g63
NtRp4816
(dp4817
g66
(dp4818
sg75
g4050
sg68
(lp4819
g61
(g82
g63
NtRp4820
(dp4821
g66
(dp4822
g86
g87
ssg75
g4816
sg68
(lp4823
S'session_file'
p4824
asbag61
(g82
g63
NtRp4825
(dp4826
g66
(dp4827
g93
g94
ssg75
g4816
sg68
(lp4828
S':'
asbag61
(g82
g63
NtRp4829
(dp4830
g66
(dp4831
sg75
g4816
sg68
(lp4832
g61
(g62
g63
NtRp4833
(dp4834
g66
(dp4835
g74
I5
ssg75
g4829
sg68
(lp4836
S"<open file '/var/www/web2py/applications/Threads_Beta/sessions/10.1.34.61-3114cc7b-425a-4da5-9d92-36a7f5bc0cd8', mode 'rb+' at 0x7fba20673d20>"
p4837
asbasbasbag61
(g77
g63
NtRp4838
(dp4839
g66
(dp4840
sg75
g4050
sg68
(lp4841
g61
(g82
g63
NtRp4842
(dp4843
g66
(dp4844
g86
g87
ssg75
g4838
sg68
(lp4845
S'session_filename'
p4846
asbag61
(g82
g63
NtRp4847
(dp4848
g66
(dp4849
g93
g94
ssg75
g4838
sg68
(lp4850
S':'
asbag61
(g82
g63
NtRp4851
(dp4852
g66
(dp4853
sg75
g4838
sg68
(lp4854
g61
(g62
g63
NtRp4855
(dp4856
g66
(dp4857
g74
I5
ssg75
g4851
sg68
(lp4858
S'/var/www/web2py/applications/Threads_Beta/sessions/10.1.34.61-3114cc7b-425a-4da5-9d92-36a7f5bc0cd8'
p4859
asbasbasbag61
(g77
g63
NtRp4860
(dp4861
g66
(dp4862
sg75
g4050
sg68
(lp4863
g61
(g82
g63
NtRp4864
(dp4865
g66
(dp4866
g86
g87
ssg75
g4860
sg68
(lp4867
S'session_id'
p4868
asbag61
(g82
g63
NtRp4869
(dp4870
g66
(dp4871
g93
g94
ssg75
g4860
sg68
(lp4872
S':'
asbag61
(g82
g63
NtRp4873
(dp4874
g66
(dp4875
sg75
g4860
sg68
(lp4876
g61
(g62
g63
NtRp4877
(dp4878
g66
(dp4879
g74
I5
ssg75
g4873
sg68
(lp4880
S'10.1.34.61-3114cc7b-425a-4da5-9d92-36a7f5bc0cd8'
p4881
asbasbasbag61
(g77
g63
NtRp4882
(dp4883
g66
(dp4884
sg75
g4050
sg68
(lp4885
g61
(g82
g63
NtRp4886
(dp4887
g66
(dp4888
g86
g87
ssg75
g4882
sg68
(lp4889
S'session_id_name'
p4890
asbag61
(g82
g63
NtRp4891
(dp4892
g66
(dp4893
g93
g94
ssg75
g4882
sg68
(lp4894
S':'
asbag61
(g82
g63
NtRp4895
(dp4896
g66
(dp4897
sg75
g4882
sg68
(lp4898
g61
(g62
g63
NtRp4899
(dp4900
g66
(dp4901
g74
I5
ssg75
g4895
sg68
(lp4902
g4107
asbasbasbag61
(g77
g63
NtRp4903
(dp4904
g66
(dp4905
sg75
g4050
sg68
(lp4906
g61
(g82
g63
NtRp4907
(dp4908
g66
(dp4909
g86
g87
ssg75
g4903
sg68
(lp4910
S'session_locked'
p4911
asbag61
(g82
g63
NtRp4912
(dp4913
g66
(dp4914
g93
g94
ssg75
g4903
sg68
(lp4915
S':'
asbag61
(g82
g63
NtRp4916
(dp4917
g66
(dp4918
sg75
g4903
sg68
(lp4919
g61
(g62
g63
NtRp4920
(dp4921
g66
(dp4922
g74
I5
ssg75
g4916
sg68
(lp4923
g1706
asbasbasbag61
(g77
g63
NtRp4924
(dp4925
g66
(dp4926
sg75
g4050
sg68
(lp4927
g61
(g82
g63
NtRp4928
(dp4929
g66
(dp4930
g86
g87
ssg75
g4924
sg68
(lp4931
S'session_new'
p4932
asbag61
(g82
g63
NtRp4933
(dp4934
g66
(dp4935
g93
g94
ssg75
g4924
sg68
(lp4936
S':'
asbag61
(g82
g63
NtRp4937
(dp4938
g66
(dp4939
sg75
g4924
sg68
(lp4940
g61
(g62
g63
NtRp4941
(dp4942
g66
(dp4943
g74
I5
ssg75
g4937
sg68
(lp4944
g104
asbasbasbag61
(g77
g63
NtRp4945
(dp4946
g66
(dp4947
sg75
g4050
sg68
(lp4948
g61
(g82
g63
NtRp4949
(dp4950
g66
(dp4951
g86
g87
ssg75
g4945
sg68
(lp4952
S'status'
p4953
asbag61
(g82
g63
NtRp4954
(dp4955
g66
(dp4956
g93
g94
ssg75
g4945
sg68
(lp4957
S':'
asbag61
(g82
g63
NtRp4958
(dp4959
g66
(dp4960
sg75
g4945
sg68
(lp4961
g61
(g62
g63
NtRp4962
(dp4963
g66
(dp4964
g74
I5
ssg75
g4958
sg68
(lp4965
S'200'
p4966
asbasbasbag61
(g77
g63
NtRp4967
(dp4968
g66
(dp4969
sg75
g4050
sg68
(lp4970
g61
(g82
g63
NtRp4971
(dp4972
g66
(dp4973
g86
g87
ssg75
g4967
sg68
(lp4974
S'subtitle'
p4975
asbag61
(g82
g63
NtRp4976
(dp4977
g66
(dp4978
g93
g94
ssg75
g4967
sg68
(lp4979
S':'
asbag61
(g82
g63
NtRp4980
(dp4981
g66
(dp4982
sg75
g4967
sg68
(lp4983
g61
(g62
g63
NtRp4984
(dp4985
g66
(dp4986
g74
I5
ssg75
g4980
sg68
(lp4987
g4543
(S's\r\x00\x00\x00customize me!'
tRp4988
asbasbasbag61
(g77
g63
NtRp4989
(dp4990
g66
(dp4991
sg75
g4050
sg68
(lp4992
g61
(g82
g63
NtRp4993
(dp4994
g66
(dp4995
g86
g87
ssg75
g4989
sg68
(lp4996
S'title'
p4997
asbag61
(g82
g63
NtRp4998
(dp4999
g66
(dp5000
g93
g94
ssg75
g4989
sg68
(lp5001
S':'
asbag61
(g82
g63
NtRp5002
(dp5003
g66
(dp5004
sg75
g4989
sg68
(lp5005
g61
(g62
g63
NtRp5006
(dp5007
g66
(dp5008
g74
I5
ssg75
g5002
sg68
(lp5009
S'Threads Beta'
p5010
asbasbasbag61
(g77
g63
NtRp5011
(dp5012
g66
(dp5013
sg75
g4050
sg68
(lp5014
g61
(g82
g63
NtRp5015
(dp5016
g66
(dp5017
g86
g87
ssg75
g5011
sg68
(lp5018
g2369
asbag61
(g82
g63
NtRp5019
(dp5020
g66
(dp5021
g93
g94
ssg75
g5011
sg68
(lp5022
S':'
asbag61
(g82
g63
NtRp5023
(dp5024
g66
(dp5025
sg75
g5011
sg68
(lp5026
g61
(g62
g63
NtRp5027
(dp5028
g66
(dp5029
g74
I5
ssg75
g5023
sg68
(lp5030
g2382
asbasbasbag61
(g77
g63
NtRp5031
(dp5032
g66
(dp5033
sg75
g4050
sg68
(lp5034
g61
(g82
g63
NtRp5035
(dp5036
g66
(dp5037
g86
g87
ssg75
g5031
sg68
(lp5038
S'view'
p5039
asbag61
(g82
g63
NtRp5040
(dp5041
g66
(dp5042
g93
g94
ssg75
g5031
sg68
(lp5043
S':'
asbag61
(g82
g63
NtRp5044
(dp5045
g66
(dp5046
sg75
g5031
sg68
(lp5047
g61
(g62
g63
NtRp5048
(dp5049
g66
(dp5050
g74
I5
ssg75
g5044
sg68
(lp5051
S'default/judge.html'
p5052
asbasbasbasbasbsS'locals'
p5053
(dp5054
S'file_descriptor'
p5055
S'<cStringIO.StringO object>'
p5056
sS'c'
S'<pycurl.Curl object>'
p5057
sS'user_id'
p5058
S'1'
sS'temp_dir'
p5059
S"'/tmp/Felicity/'"
p5060
sS'question_no'
p5061
S'3'
sS'event_id'
p5062
S'1'
sS'judge_ip'
p5063
S"'localhost'"
p5064
sS'curl_request'
p5065
S"'http://localhost:10001'"
p5066
sS'temp_storage_filename'
p5067
S"'/tmp/Felicity/submission_3_1_1LQWGQ.cpp'"
p5068
sS'filename'
p5069
S"'tmp.cpp'"
p5070
sS'temp_storage_file'
p5071
S"'submission_3_1_1LQWGQ.cpp'"
p5072
sS'data_post'
p5073
S"'event_id=1&question_no=3&file=submission_3_1_1LQWGQ.cpp'"
p5074
sg2278
S"{'event_id': '1', 'file': 'submission_3_1_1LQWGQ.cpp', 'question_no': '3'}"
p5075
sS'key'
p5076
S"'file'"
p5077
sS'file_size'
p5078
S'110'
p5079
sS'organizer'
p5080
S"'felicity'"
p5081
sS'buf'
p5082
S'<cStringIO.StringO object>'
p5083
sS'scp'
p5084
S"'scp /tmp/Felicity/submission_3_1_1LQWGQ.cpp felicity@localhost:~/judge/uploads/.'"
p5085
sS'user_event'
p5086
S"<Row {'status': 'Bad Going!', 'user_id': '1', 'u..._record': <function <lambda> at 0x7fba31e8fb90>}>"
p5087
sS'row'
p5088
S"<Row {'end': datetime.datetime(2012, 10, 30, 12,..._record': <function <lambda> at 0x7fba31e8fc80>}>"
p5089
sssS'traceback'
p5090
S'Traceback (most recent call last):\n  File "/var/www/web2py/gluon/restricted.py", line 204, in restricted\n    exec ccode in environment\n  File "/var/www/web2py/applications/Threads_Beta/controllers/default.py", line 236, in <module>\n  File "/var/www/web2py/gluon/globals.py", line 172, in <lambda>\n    self._caller = lambda f: f()\n  File "/var/www/web2py/gluon/tools.py", line 2533, in f\n    return action(*a, **b)\n  File "/var/www/web2py/applications/Threads_Beta/controllers/default.py", line 154, in judge\n    c.perform()\nerror: (7, "couldn\'t connect to host")\n'
p5091
s.