(dp1
S'output'
p2
S"<type 'exceptions.IOError'> [Errno 13] Permission denied: '/tmp/Felicity/submission_3_1_17GP7V.cpp'"
p3
sS'layer'
p4
S'/var/www/web2py/applications/Threads_Beta/controllers/default.py'
p5
sS'code'
p6
S'# -*- coding: utf-8 -*-\n# this file is released under public domain and you can use without limitations\n\n#########################################################################\n## This is a samples controller\n## - index is the default action of any application\n## - user is required for authentication and authorization\n## - download is for downloading files uploaded in the db (does streaming)\n## - call exposes all registered services (none by default)\n#########################################################################\nimport cStringIO\nimport pycurl\nimport shutil\nimport string\nimport random\nimport os\nimport urllib\nimport json\ndef index():\n    """\n    example action using the internationalization operator T and flash\n    rendered by views/default/index.html or views/generic.html\n    """\n    response.flash = "Welcome to Felicity!"\n    events = db(db.events.id>0).select()\n    title = T(\'Threads at Felicity-2013\')\n    about = T(\'Threads is the annual online programming and quizzing event at Felicity. This sees great amount of participation from over  67 countries\')\n    return dict(events = events,about = about,title=title)\ndef event_home():\n    tab_id = int(request.get_vars[\'tab_id\'])\n    event_id = int(request.get_vars[\'event_id\'])\n    row = db((db.event_tab.id>0 )& (db.event_tab.event_id==event_id) & (db.event_tab.tab_id==tab_id)).select()\n\n    about = "Felicity is IIIT-Hyderabad\'s annual technno-cultural Festival."\n    title = "Error!"\n\n    if(row):\n        about = row[0].raw_content\n        title = row[0].title\n    tabs = db((db.event_tab.id>0) & (db.event_tab.event_id==event_id)).select()\n    return dict(about = about,title=title,tabs = tabs,event_id = event_id)\n\n\n@auth.requires_login()\ndef questions():\n    event_id = int(request.get_vars[\'event_id\'])\n    question_no = int(request.get_vars[\'question_no\'])\n    if \'message\' in request.get_vars.keys():\n        response.flash = request.get_vars[\'message\']\n\n    event_details= db(db.events.id==event_id).select()[0]\n    #If User is NOT registered for the given event , register him/her with default score = 0\n    user_id = auth.user.id \n    event_user_rows = db((db.event_user.event_id==event_id)&(db.event_user.user_id == user_id)).select()\n    if len(event_user_rows) <= 0:\n        response.flash = "Woa a new competitor!"\n        db.event_user.insert(event_id=event_id,user_id = user_id,score=0,status=\'Participating\',penalty=0,current_question=1)  \n    elif( int(event_details.flow_of_questions) == 1 ):\n        question_no= event_user_rows[0].current_question\n\n\n    #Tabs to be displayed on the RHS block\n    tabs = db((db.event_tab.id>0) & (db.event_tab.event_id==event_id)).select()\n    \n\n\n    #Comments Form\n    db.comments.user_id.default = user_id\n    db.comments.event_id.default = event_id\n    db.comments.question_no.default = question_no\n    form = SQLFORM(db.comments)\n    if form.process().accepted:\n        response.flash = "Comment will become public after moderation"\n\n    if(question_no > 0):\n        all_comments = db((db.comments.event_id==event_id)&(db.comments.question_no==question_no)).select()\n    else:\n        all_comments = []\n\n    \n    a = int(event_details.flow_of_questions)\n    response.flash = a\n    if(question_no == 0 and a == 2):\n        list_of_questions = db((db.question.id>0)&(db.question.event== event_id)).select()\n        question_title = "List of questions"\n        return dict(user_details = auth.user,question_title = question_title, list_of_questions=list_of_questions,tabs = tabs, event_id = event_id,form=form,comments=all_comments)\n    \n    else:\n        question_details = db((db.question.event ==event_id) & (db.question.question_no == question_no)).select()[0]\n        if(question_details):\n            question_title = question_details.title\n    \n            return dict(user_details = auth.user,question_title= question_title,question_statement = question_details.question, answer = question_details.answer,tabs=tabs,event_id=event_id,user_id = user_id,question_no = question_no,form=form,comments=all_comments)\n\n\n@auth.requires_login()\ndef judge():\n    question_no = int(request.get_vars[\'question_no\'])\n    event_id = int(request.get_vars[\'event_id\'])\n\n    user_id = auth.user.id\n    user_event = db((db.event_user.user_id == user_id)&(db.event_user.event_id==event_id)).select()[0]\n    question_no = int(user_event[\'current_question\'])\n    #Dictionary that will hold all the data to be passed to the black-box judge\n    post_vars = {}\n    file_size = 0\n    for key in request.vars.keys():\n        post_vars[key] = request.vars[key]\n    #If thtere is a file upload. NOTE that any question may have a MAXIMUM of one file upload per question.\n    if \'file\' in request.vars.keys():\n        # THis will take the file, write it on to the file and transfer it to the judge\'s local system.\n        # uses POST for input and SCP for transfering. Make sure that the judge\'s authorized_keys has the Apache\'s key in it. Basically a passwordless login should be enabled for user \'apache\'\n        filename = request.vars.file.filename\n        file_descriptor = request.vars.file.file\n        file_descriptor.seek(0,2)\n        file_size = file_descriptor.tell()\n        file_descriptor.seek(0,0)   \n        temp_dir = "/tmp/Felicity/"\n\n        # Temp filename = submission_<EVENT-ID>_<USER-ID>_<Unique-string>.<ext>\n        temp_storage_file = "submission_"+str(question_no)+"_"+str(event_id)+"_"+str(auth.user.id)+str(\'\'.join(random.choice(string.ascii_uppercase + string.digits) for x in range(5)))+os.path.splitext(filename)[1]\n        temp_storage_filename = temp_dir + temp_storage_file\n        shutil.copyfileobj(file_descriptor,open(temp_storage_filename,\'wb\'))\n         \n        row = db(db.events.id==event_id).select()[0]\n        #Transfer the string using SCP.\n        organizer = row[\'organizer\']\n        judge_ip = row[\'judge\'].split(\':\')[0]\n        os.system(\'scp "%s" "%s"@"%s":~/judge/uploads/.\'%(temp_storage_filename,organizer,judge_ip))\n        post_vars[\'file\'] = temp_storage_file\n        \n        \n\n\n\n    #Convert the variables to be passed into a form passable thru GET\n    data_post = urllib.urlencode(post_vars)\n\n    #Establish a connection, and communicate with the blackbox judge using cURL\n    #Based on what is sent to the black-box judge, it will reply with the following :\n    #    1. Event-ID\n    #    2. Score increment\n    #    3. Penalty increment\n    #    4. Current question in case of an event with sequential questions.\n    #    5. Status to be displayed : ususally "correct", "wrong" or the like\n    buf = cStringIO.StringIO()\n    c = pycurl.Curl()\n    curl_request = "http://localhost:10001"\n    c.setopt(pycurl.URL, curl_request)\n    c.setopt(pycurl.POST,1)\n    c.setopt(pycurl.POSTFIELDS, data_post)\n    c.setopt(pycurl.WRITEFUNCTION, buf.write)\n    c.perform()\n    ret_val = buf.getvalue()\n    buf.close()\n    #End of communication\n\n   \n    \n    response_dict = json.loads(ret_val) #converts the response string into a dictionary understandable by Python\n\n\n    \n    #Update the user with the response obtained above. \n    db((db.event_user.event_id == response_dict[\'event_id\'])&(db.event_user.user_id == user_id)).update(score = int(user_event[\'score\'])+response_dict[\'score\'], status = response_dict[\'status\'],penalty=int(response_dict[\'penalty\'])+int(user_event[\'penalty\']),current_question = int(response_dict[\'current_question\']))\n    response.flash = (response_dict[\'status\'])\n\n    #Re-direct Back to the Questions page. Either : list of questions for nonseq. type and current question for seq. type event.\n    redirect(\'questions?question_no=0&event_id=\'+str(event_id)+"&message="+response_dict[\'status\']) \n    return dict(text=ret_val)\n\n\n\ndef scoreboard():\n    event_id = request.get_vars[\'event_id\']\n    scorers = db(db.event_user.event_id == event_id).select(orderby=db.event_user.score)\n    tabs = db((db.event_tab.id>0) & (db.event_tab.event_id==event_id)).select()\n    return dict(scoreboard = scorers, tabs = tabs, event_id= event_id)\n\n\n\ndef user():\n    """\n    exposes:\n    http://..../[app]/default/user/login\n    http://..../[app]/default/user/logout\n    http://..../[app]/default/user/register\n    http://..../[app]/default/user/profile\n    http://..../[app]/default/user/retrieve_password\n    http://..../[app]/default/user/change_password\n    use @auth.requires_login()\n        @auth.requires_membership(\'group name\')\n        @auth.requires_permission(\'read\',\'table name\',record_id)\n    to decorate functions that need access control\n    """\n    return dict(form=auth())\n\n\ndef download():\n    """\n    allows downloading of uploaded files\n    http://..../[app]/default/download/[filename]\n    """\n    return response.download(request,db)\n\n\ndef call():\n    """\n    exposes services. for example:\n    http://..../[app]/default/call/jsonrpc\n    decorate with @services.jsonrpc the functions to expose\n    supports xml, json, xmlrpc, jsonrpc, amfrpc, rss, csv\n    """\n    return service()\n\n\n@auth.requires_signature()\ndef data():\n    """\n    http://..../[app]/default/data/tables\n    http://..../[app]/default/data/create/[table]\n    http://..../[app]/default/data/read/[table]/[id]\n    http://..../[app]/default/data/update/[table]/[id]\n    http://..../[app]/default/data/delete/[table]/[id]\n    http://..../[app]/default/data/select/[table]\n    http://..../[app]/default/data/search/[table]\n    but URLs must be signed, i.e. linked with\n      A(\'table\',_href=URL(\'data/tables\',user_signature=True))\n    or with the signed load operator\n      LOAD(\'default\',\'data.load\',args=\'tables\',ajax=True,user_signature=True)\n    """\n    return dict(form=crud())\n\n\nresponse._vars=response._caller(judge)\n'
p7
sS'snapshot'
p8
(dp9
S'exception'
p10
(dp11
S'__getslice__'
p12
S"<method-wrapper '__getslice__' of exceptions.IOError object>"
p13
sS'__str__'
p14
S"<method-wrapper '__str__' of exceptions.IOError object>"
p15
sS'__reduce__'
p16
S'<built-in method __reduce__ of exceptions.IOError object>'
p17
sS'__dict__'
p18
S'{}'
p19
sS'__sizeof__'
p20
S'<built-in method __sizeof__ of exceptions.IOError object>'
p21
sS'__init__'
p22
S"<method-wrapper '__init__' of exceptions.IOError object>"
p23
sS'__setattr__'
p24
S"<method-wrapper '__setattr__' of exceptions.IOError object>"
p25
sS'__reduce_ex__'
p26
S'<built-in method __reduce_ex__ of exceptions.IOError object>'
p27
sS'__new__'
p28
S'<built-in method __new__ of type object>'
p29
sS'errno'
p30
S'13'
p31
sS'__format__'
p32
S'<built-in method __format__ of exceptions.IOError object>'
p33
sS'__class__'
p34
S"<type 'exceptions.IOError'>"
p35
sS'filename'
p36
S"'/tmp/Felicity/submission_3_1_17GP7V.cpp'"
p37
sS'__doc__'
p38
S"'I/O operation failed.'"
p39
sS'__getitem__'
p40
S"<method-wrapper '__getitem__' of exceptions.IOError object>"
p41
sS'__setstate__'
p42
S'<built-in method __setstate__ of exceptions.IOError object>'
p43
sS'__getattribute__'
p44
S"<method-wrapper '__getattribute__' of exceptions.IOError object>"
p45
sS'args'
p46
S"(13, 'Permission denied')"
p47
sS'__subclasshook__'
p48
S'<built-in method __subclasshook__ of type object>'
p49
sS'__unicode__'
p50
S'<built-in method __unicode__ of exceptions.IOError object>'
p51
sS'strerror'
p52
S"'Permission denied'"
p53
sS'__delattr__'
p54
S"<method-wrapper '__delattr__' of exceptions.IOError object>"
p55
sS'__repr__'
p56
S"<method-wrapper '__repr__' of exceptions.IOError object>"
p57
sS'__hash__'
p58
S"<method-wrapper '__hash__' of exceptions.IOError object>"
p59
ssS'evalue'
p60
S"[Errno 13] Permission denied: '/tmp/Felicity/submission_3_1_17GP7V.cpp'"
p61
sS'request'
p62
ccopy_reg
_reconstructor
p63
(cgluon.html
BEAUTIFY
p64
c__builtin__
object
p65
NtRp66
(dp67
S'attributes'
p68
(dp69
sS'components'
p70
(lp71
g63
(cgluon.html
TABLE
p72
g65
NtRp73
(dp74
g68
(dp75
S'level'
p76
I5
ssS'parent'
p77
Nsg70
(lp78
g63
(cgluon.html
TR
p79
g65
NtRp80
(dp81
g68
(dp82
sg77
g73
sg70
(lp83
g63
(cgluon.html
TD
p84
g65
NtRp85
(dp86
g68
(dp87
S'_style'
p88
S'font-weight:bold;vertical-align:top'
p89
ssg77
g80
sg70
(lp90
S'ajax'
p91
asbag63
(g84
g65
NtRp92
(dp93
g68
(dp94
S'_valign'
p95
S'top'
p96
ssg77
g80
sg70
(lp97
S':'
asbag63
(g84
g65
NtRp98
(dp99
g68
(dp100
sg77
g80
sg70
(lp101
g63
(g64
g65
NtRp102
(dp103
g68
(dp104
g76
I5
ssg77
g98
sg70
(lp105
S'False'
p106
asbasbasbag63
(g79
g65
NtRp107
(dp108
g68
(dp109
sg77
g73
sg70
(lp110
g63
(g84
g65
NtRp111
(dp112
g68
(dp113
g88
g89
ssg77
g107
sg70
(lp114
S'application'
p115
asbag63
(g84
g65
NtRp116
(dp117
g68
(dp118
g95
g96
ssg77
g107
sg70
(lp119
S':'
asbag63
(g84
g65
NtRp120
(dp121
g68
(dp122
sg77
g107
sg70
(lp123
g63
(g64
g65
NtRp124
(dp125
g68
(dp126
g76
I5
ssg77
g120
sg70
(lp127
S'Threads_Beta'
p128
asbasbasbag63
(g79
g65
NtRp129
(dp130
g68
(dp131
sg77
g73
sg70
(lp132
g63
(g84
g65
NtRp133
(dp134
g68
(dp135
g88
g89
ssg77
g129
sg70
(lp136
g46
asbag63
(g84
g65
NtRp137
(dp138
g68
(dp139
g95
g96
ssg77
g129
sg70
(lp140
S':'
asbag63
(g84
g65
NtRp141
(dp142
g68
(dp143
sg77
g129
sg70
(lp144
g63
(g64
g65
NtRp145
(dp146
g68
(dp147
g76
I5
ssg77
g141
sg70
(lp148
g63
(g72
g65
NtRp149
(dp150
g68
(dp151
g76
I4
ssg77
Nsg70
(lp152
sbasbasbasbag63
(g79
g65
NtRp153
(dp154
g68
(dp155
sg77
g73
sg70
(lp156
g63
(g84
g65
NtRp157
(dp158
g68
(dp159
g88
g89
ssg77
g153
sg70
(lp160
S'body'
p161
asbag63
(g84
g65
NtRp162
(dp163
g68
(dp164
g95
g96
ssg77
g153
sg70
(lp165
S':'
asbag63
(g84
g65
NtRp166
(dp167
g68
(dp168
sg77
g153
sg70
(lp169
g63
(g64
g65
NtRp170
(dp171
g68
(dp172
g76
I5
ssg77
g166
sg70
(lp173
S"<open file '<fdopen>', mode 'w+b' at 0x7fba28bd95d0>"
p174
asbasbasbag63
(g79
g65
NtRp175
(dp176
g68
(dp177
sg77
g73
sg70
(lp178
g63
(g84
g65
NtRp179
(dp180
g68
(dp181
g88
g89
ssg77
g175
sg70
(lp182
S'client'
p183
asbag63
(g84
g65
NtRp184
(dp185
g68
(dp186
g95
g96
ssg77
g175
sg70
(lp187
S':'
asbag63
(g84
g65
NtRp188
(dp189
g68
(dp190
sg77
g175
sg70
(lp191
g63
(g64
g65
NtRp192
(dp193
g68
(dp194
g76
I5
ssg77
g188
sg70
(lp195
S'10.1.34.61'
p196
asbasbasbag63
(g79
g65
NtRp197
(dp198
g68
(dp199
sg77
g73
sg70
(lp200
g63
(g84
g65
NtRp201
(dp202
g68
(dp203
g88
g89
ssg77
g197
sg70
(lp204
S'controller'
p205
asbag63
(g84
g65
NtRp206
(dp207
g68
(dp208
g95
g96
ssg77
g197
sg70
(lp209
S':'
asbag63
(g84
g65
NtRp210
(dp211
g68
(dp212
sg77
g197
sg70
(lp213
g63
(g64
g65
NtRp214
(dp215
g68
(dp216
g76
I5
ssg77
g210
sg70
(lp217
S'default'
p218
asbasbasbag63
(g79
g65
NtRp219
(dp220
g68
(dp221
sg77
g73
sg70
(lp222
g63
(g84
g65
NtRp223
(dp224
g68
(dp225
g88
g89
ssg77
g219
sg70
(lp226
S'cookies'
p227
asbag63
(g84
g65
NtRp228
(dp229
g68
(dp230
g95
g96
ssg77
g219
sg70
(lp231
S':'
asbag63
(g84
g65
NtRp232
(dp233
g68
(dp234
sg77
g219
sg70
(lp235
g63
(g64
g65
NtRp236
(dp237
g68
(dp238
g76
I5
ssg77
g232
sg70
(lp239
g63
(g72
g65
NtRp240
(dp241
g68
(dp242
g76
I4
ssg77
Nsg70
(lp243
g63
(g79
g65
NtRp244
(dp245
g68
(dp246
sg77
g240
sg70
(lp247
g63
(g84
g65
NtRp248
(dp249
g68
(dp250
g88
g89
ssg77
g244
sg70
(lp251
S'session_id_threads_beta'
p252
asbag63
(g84
g65
NtRp253
(dp254
g68
(dp255
g95
g96
ssg77
g244
sg70
(lp256
S':'
asbag63
(g84
g65
NtRp257
(dp258
g68
(dp259
sg77
g244
sg70
(lp260
g63
(g64
g65
NtRp261
(dp262
g68
(dp263
g76
I4
ssg77
g257
sg70
(lp264
g63
(g72
g65
NtRp265
(dp266
g68
(dp267
g76
I3
ssg77
Nsg70
(lp268
g63
(g79
g65
NtRp269
(dp270
g68
(dp271
sg77
g265
sg70
(lp272
g63
(g84
g65
NtRp273
(dp274
g68
(dp275
g88
g89
ssg77
g269
sg70
(lp276
S'comment'
p277
asbag63
(g84
g65
NtRp278
(dp279
g68
(dp280
g95
g96
ssg77
g269
sg70
(lp281
S':'
asbag63
(g84
g65
NtRp282
(dp283
g68
(dp284
sg77
g269
sg70
(lp285
g63
(g64
g65
NtRp286
(dp287
g68
(dp288
g76
I3
ssg77
g282
sg70
(lp289
S''
asbasbasbag63
(g79
g65
NtRp290
(dp291
g68
(dp292
sg77
g265
sg70
(lp293
g63
(g84
g65
NtRp294
(dp295
g68
(dp296
g88
g89
ssg77
g290
sg70
(lp297
S'domain'
p298
asbag63
(g84
g65
NtRp299
(dp300
g68
(dp301
g95
g96
ssg77
g290
sg70
(lp302
S':'
asbag63
(g84
g65
NtRp303
(dp304
g68
(dp305
sg77
g290
sg70
(lp306
g63
(g64
g65
NtRp307
(dp308
g68
(dp309
g76
I3
ssg77
g303
sg70
(lp310
S''
asbasbasbag63
(g79
g65
NtRp311
(dp312
g68
(dp313
sg77
g265
sg70
(lp314
g63
(g84
g65
NtRp315
(dp316
g68
(dp317
g88
g89
ssg77
g311
sg70
(lp318
S'expires'
p319
asbag63
(g84
g65
NtRp320
(dp321
g68
(dp322
g95
g96
ssg77
g311
sg70
(lp323
S':'
asbag63
(g84
g65
NtRp324
(dp325
g68
(dp326
sg77
g311
sg70
(lp327
g63
(g64
g65
NtRp328
(dp329
g68
(dp330
g76
I3
ssg77
g324
sg70
(lp331
S''
asbasbasbag63
(g79
g65
NtRp332
(dp333
g68
(dp334
sg77
g265
sg70
(lp335
g63
(g84
g65
NtRp336
(dp337
g68
(dp338
g88
g89
ssg77
g332
sg70
(lp339
S'httponly'
p340
asbag63
(g84
g65
NtRp341
(dp342
g68
(dp343
g95
g96
ssg77
g332
sg70
(lp344
S':'
asbag63
(g84
g65
NtRp345
(dp346
g68
(dp347
sg77
g332
sg70
(lp348
g63
(g64
g65
NtRp349
(dp350
g68
(dp351
g76
I3
ssg77
g345
sg70
(lp352
S''
asbasbasbag63
(g79
g65
NtRp353
(dp354
g68
(dp355
sg77
g265
sg70
(lp356
g63
(g84
g65
NtRp357
(dp358
g68
(dp359
g88
g89
ssg77
g353
sg70
(lp360
S'max-age'
p361
asbag63
(g84
g65
NtRp362
(dp363
g68
(dp364
g95
g96
ssg77
g353
sg70
(lp365
S':'
asbag63
(g84
g65
NtRp366
(dp367
g68
(dp368
sg77
g353
sg70
(lp369
g63
(g64
g65
NtRp370
(dp371
g68
(dp372
g76
I3
ssg77
g366
sg70
(lp373
S''
asbasbasbag63
(g79
g65
NtRp374
(dp375
g68
(dp376
sg77
g265
sg70
(lp377
g63
(g84
g65
NtRp378
(dp379
g68
(dp380
g88
g89
ssg77
g374
sg70
(lp381
S'path'
p382
asbag63
(g84
g65
NtRp383
(dp384
g68
(dp385
g95
g96
ssg77
g374
sg70
(lp386
S':'
asbag63
(g84
g65
NtRp387
(dp388
g68
(dp389
sg77
g374
sg70
(lp390
g63
(g64
g65
NtRp391
(dp392
g68
(dp393
g76
I3
ssg77
g387
sg70
(lp394
S''
asbasbasbag63
(g79
g65
NtRp395
(dp396
g68
(dp397
sg77
g265
sg70
(lp398
g63
(g84
g65
NtRp399
(dp400
g68
(dp401
g88
g89
ssg77
g395
sg70
(lp402
S'secure'
p403
asbag63
(g84
g65
NtRp404
(dp405
g68
(dp406
g95
g96
ssg77
g395
sg70
(lp407
S':'
asbag63
(g84
g65
NtRp408
(dp409
g68
(dp410
sg77
g395
sg70
(lp411
g63
(g64
g65
NtRp412
(dp413
g68
(dp414
g76
I3
ssg77
g408
sg70
(lp415
S''
asbasbasbag63
(g79
g65
NtRp416
(dp417
g68
(dp418
sg77
g265
sg70
(lp419
g63
(g84
g65
NtRp420
(dp421
g68
(dp422
g88
g89
ssg77
g416
sg70
(lp423
S'version'
p424
asbag63
(g84
g65
NtRp425
(dp426
g68
(dp427
g95
g96
ssg77
g416
sg70
(lp428
S':'
asbag63
(g84
g65
NtRp429
(dp430
g68
(dp431
sg77
g416
sg70
(lp432
g63
(g64
g65
NtRp433
(dp434
g68
(dp435
g76
I3
ssg77
g429
sg70
(lp436
S''
asbasbasbasbasbasbasbasbasbasbasbag63
(g79
g65
NtRp437
(dp438
g68
(dp439
sg77
g73
sg70
(lp440
g63
(g84
g65
NtRp441
(dp442
g68
(dp443
g88
g89
ssg77
g437
sg70
(lp444
S'env'
p445
asbag63
(g84
g65
NtRp446
(dp447
g68
(dp448
g95
g96
ssg77
g437
sg70
(lp449
S':'
asbag63
(g84
g65
NtRp450
(dp451
g68
(dp452
sg77
g437
sg70
(lp453
g63
(g64
g65
NtRp454
(dp455
g68
(dp456
g76
I5
ssg77
g450
sg70
(lp457
g63
(g72
g65
NtRp458
(dp459
g68
(dp460
g76
I4
ssg77
Nsg70
(lp461
g63
(g79
g65
NtRp462
(dp463
g68
(dp464
sg77
g458
sg70
(lp465
g63
(g84
g65
NtRp466
(dp467
g68
(dp468
g88
g89
ssg77
g462
sg70
(lp469
S'app_folders'
p470
asbag63
(g84
g65
NtRp471
(dp472
g68
(dp473
g95
g96
ssg77
g462
sg70
(lp474
S':'
asbag63
(g84
g65
NtRp475
(dp476
g68
(dp477
sg77
g462
sg70
(lp478
g63
(g64
g65
NtRp479
(dp480
g68
(dp481
g76
I4
ssg77
g475
sg70
(lp482
S"set(['/var/www/web2py/applications/Threads_Beta/', '/var/www/web2py/applications/welcome/', '/var/www/web2py/applications/ChatBot_V4/', '/var/www/web2py/applications/admin/'])"
p483
asbasbasbag63
(g79
g65
NtRp484
(dp485
g68
(dp486
sg77
g458
sg70
(lp487
g63
(g84
g65
NtRp488
(dp489
g68
(dp490
g88
g89
ssg77
g484
sg70
(lp491
S'applications_parent'
p492
asbag63
(g84
g65
NtRp493
(dp494
g68
(dp495
g95
g96
ssg77
g484
sg70
(lp496
S':'
asbag63
(g84
g65
NtRp497
(dp498
g68
(dp499
sg77
g484
sg70
(lp500
g63
(g64
g65
NtRp501
(dp502
g68
(dp503
g76
I4
ssg77
g497
sg70
(lp504
S'/var/www/web2py'
p505
asbasbasbag63
(g79
g65
NtRp506
(dp507
g68
(dp508
sg77
g458
sg70
(lp509
g63
(g84
g65
NtRp510
(dp511
g68
(dp512
g88
g89
ssg77
g506
sg70
(lp513
S'content_length'
p514
asbag63
(g84
g65
NtRp515
(dp516
g68
(dp517
g95
g96
ssg77
g506
sg70
(lp518
S':'
asbag63
(g84
g65
NtRp519
(dp520
g68
(dp521
sg77
g506
sg70
(lp522
g63
(g64
g65
NtRp523
(dp524
g68
(dp525
g76
I4
ssg77
g519
sg70
(lp526
S'326'
p527
asbasbasbag63
(g79
g65
NtRp528
(dp529
g68
(dp530
sg77
g458
sg70
(lp531
g63
(g84
g65
NtRp532
(dp533
g68
(dp534
g88
g89
ssg77
g528
sg70
(lp535
S'content_type'
p536
asbag63
(g84
g65
NtRp537
(dp538
g68
(dp539
g95
g96
ssg77
g528
sg70
(lp540
S':'
asbag63
(g84
g65
NtRp541
(dp542
g68
(dp543
sg77
g528
sg70
(lp544
g63
(g64
g65
NtRp545
(dp546
g68
(dp547
g76
I4
ssg77
g541
sg70
(lp548
S'multipart/form-data; boundary=---------------------------163119444615421411244068351'
p549
asbasbasbag63
(g79
g65
NtRp550
(dp551
g68
(dp552
sg77
g458
sg70
(lp553
g63
(g84
g65
NtRp554
(dp555
g68
(dp556
g88
g89
ssg77
g550
sg70
(lp557
S'db_sessions'
p558
asbag63
(g84
g65
NtRp559
(dp560
g68
(dp561
g95
g96
ssg77
g550
sg70
(lp562
S':'
asbag63
(g84
g65
NtRp563
(dp564
g68
(dp565
sg77
g550
sg70
(lp566
g63
(g64
g65
NtRp567
(dp568
g68
(dp569
g76
I4
ssg77
g563
sg70
(lp570
S'set([])'
p571
asbasbasbag63
(g79
g65
NtRp572
(dp573
g68
(dp574
sg77
g458
sg70
(lp575
g63
(g84
g65
NtRp576
(dp577
g68
(dp578
g88
g89
ssg77
g572
sg70
(lp579
S'debugging'
p580
asbag63
(g84
g65
NtRp581
(dp582
g68
(dp583
g95
g96
ssg77
g572
sg70
(lp584
S':'
asbag63
(g84
g65
NtRp585
(dp586
g68
(dp587
sg77
g572
sg70
(lp588
g63
(g64
g65
NtRp589
(dp590
g68
(dp591
g76
I4
ssg77
g585
sg70
(lp592
g106
asbasbasbag63
(g79
g65
NtRp593
(dp594
g68
(dp595
sg77
g458
sg70
(lp596
g63
(g84
g65
NtRp597
(dp598
g68
(dp599
g88
g89
ssg77
g593
sg70
(lp600
S'document_root'
p601
asbag63
(g84
g65
NtRp602
(dp603
g68
(dp604
g95
g96
ssg77
g593
sg70
(lp605
S':'
asbag63
(g84
g65
NtRp606
(dp607
g68
(dp608
sg77
g593
sg70
(lp609
g63
(g64
g65
NtRp610
(dp611
g68
(dp612
g76
I4
ssg77
g606
sg70
(lp613
S'/var/www/html'
p614
asbasbasbag63
(g79
g65
NtRp615
(dp616
g68
(dp617
sg77
g458
sg70
(lp618
g63
(g84
g65
NtRp619
(dp620
g68
(dp621
g88
g89
ssg77
g615
sg70
(lp622
S'gateway_interface'
p623
asbag63
(g84
g65
NtRp624
(dp625
g68
(dp626
g95
g96
ssg77
g615
sg70
(lp627
S':'
asbag63
(g84
g65
NtRp628
(dp629
g68
(dp630
sg77
g615
sg70
(lp631
g63
(g64
g65
NtRp632
(dp633
g68
(dp634
g76
I4
ssg77
g628
sg70
(lp635
S'CGI/1.1'
p636
asbasbasbag63
(g79
g65
NtRp637
(dp638
g68
(dp639
sg77
g458
sg70
(lp640
g63
(g84
g65
NtRp641
(dp642
g68
(dp643
g88
g89
ssg77
g637
sg70
(lp644
S'gluon_parent'
p645
asbag63
(g84
g65
NtRp646
(dp647
g68
(dp648
g95
g96
ssg77
g637
sg70
(lp649
S':'
asbag63
(g84
g65
NtRp650
(dp651
g68
(dp652
sg77
g637
sg70
(lp653
g63
(g64
g65
NtRp654
(dp655
g68
(dp656
g76
I4
ssg77
g650
sg70
(lp657
g505
asbasbasbag63
(g79
g65
NtRp658
(dp659
g68
(dp660
sg77
g458
sg70
(lp661
g63
(g84
g65
NtRp662
(dp663
g68
(dp664
g88
g89
ssg77
g658
sg70
(lp665
S'http_accept'
p666
asbag63
(g84
g65
NtRp667
(dp668
g68
(dp669
g95
g96
ssg77
g658
sg70
(lp670
S':'
asbag63
(g84
g65
NtRp671
(dp672
g68
(dp673
sg77
g658
sg70
(lp674
g63
(g64
g65
NtRp675
(dp676
g68
(dp677
g76
I4
ssg77
g671
sg70
(lp678
S'text/html,application/xhtml+xml,application/xml;q=0.9,*/*;q=0.8'
p679
asbasbasbag63
(g79
g65
NtRp680
(dp681
g68
(dp682
sg77
g458
sg70
(lp683
g63
(g84
g65
NtRp684
(dp685
g68
(dp686
g88
g89
ssg77
g680
sg70
(lp687
S'http_accept_encoding'
p688
asbag63
(g84
g65
NtRp689
(dp690
g68
(dp691
g95
g96
ssg77
g680
sg70
(lp692
S':'
asbag63
(g84
g65
NtRp693
(dp694
g68
(dp695
sg77
g680
sg70
(lp696
g63
(g64
g65
NtRp697
(dp698
g68
(dp699
g76
I4
ssg77
g693
sg70
(lp700
S'gzip, deflate'
p701
asbasbasbag63
(g79
g65
NtRp702
(dp703
g68
(dp704
sg77
g458
sg70
(lp705
g63
(g84
g65
NtRp706
(dp707
g68
(dp708
g88
g89
ssg77
g702
sg70
(lp709
S'http_accept_language'
p710
asbag63
(g84
g65
NtRp711
(dp712
g68
(dp713
g95
g96
ssg77
g702
sg70
(lp714
S':'
asbag63
(g84
g65
NtRp715
(dp716
g68
(dp717
sg77
g702
sg70
(lp718
g63
(g64
g65
NtRp719
(dp720
g68
(dp721
g76
I4
ssg77
g715
sg70
(lp722
S'en-us,en;q=0.5'
p723
asbasbasbag63
(g79
g65
NtRp724
(dp725
g68
(dp726
sg77
g458
sg70
(lp727
g63
(g84
g65
NtRp728
(dp729
g68
(dp730
g88
g89
ssg77
g724
sg70
(lp731
S'http_cache_control'
p732
asbag63
(g84
g65
NtRp733
(dp734
g68
(dp735
g95
g96
ssg77
g724
sg70
(lp736
S':'
asbag63
(g84
g65
NtRp737
(dp738
g68
(dp739
sg77
g724
sg70
(lp740
g63
(g64
g65
NtRp741
(dp742
g68
(dp743
g76
I4
ssg77
g737
sg70
(lp744
S'no-cache'
p745
asbasbasbag63
(g79
g65
NtRp746
(dp747
g68
(dp748
sg77
g458
sg70
(lp749
g63
(g84
g65
NtRp750
(dp751
g68
(dp752
g88
g89
ssg77
g746
sg70
(lp753
S'http_connection'
p754
asbag63
(g84
g65
NtRp755
(dp756
g68
(dp757
g95
g96
ssg77
g746
sg70
(lp758
S':'
asbag63
(g84
g65
NtRp759
(dp760
g68
(dp761
sg77
g746
sg70
(lp762
g63
(g64
g65
NtRp763
(dp764
g68
(dp765
g76
I4
ssg77
g759
sg70
(lp766
S'keep-alive'
p767
asbasbasbag63
(g79
g65
NtRp768
(dp769
g68
(dp770
sg77
g458
sg70
(lp771
g63
(g84
g65
NtRp772
(dp773
g68
(dp774
g88
g89
ssg77
g768
sg70
(lp775
S'http_cookie'
p776
asbag63
(g84
g65
NtRp777
(dp778
g68
(dp779
g95
g96
ssg77
g768
sg70
(lp780
S':'
asbag63
(g84
g65
NtRp781
(dp782
g68
(dp783
sg77
g768
sg70
(lp784
g63
(g64
g65
NtRp785
(dp786
g68
(dp787
g76
I4
ssg77
g781
sg70
(lp788
S'session_id_threads_beta=10.1.34.61-3114cc7b-425a-4da5-9d92-36a7f5bc0cd8; __utma=47423280.1696301220.1353671655.1353671655.1353675902.2; __utmc=47423280; __utmz=47423280.1353671655.1.1.utmcsr=(direct)|utmccn=(direct)|utmcmd=(none); __utmb=47423280.8.10.1353675902'
p789
asbasbasbag63
(g79
g65
NtRp790
(dp791
g68
(dp792
sg77
g458
sg70
(lp793
g63
(g84
g65
NtRp794
(dp795
g68
(dp796
g88
g89
ssg77
g790
sg70
(lp797
S'http_host'
p798
asbag63
(g84
g65
NtRp799
(dp800
g68
(dp801
g95
g96
ssg77
g790
sg70
(lp802
S':'
asbag63
(g84
g65
NtRp803
(dp804
g68
(dp805
sg77
g790
sg70
(lp806
g63
(g64
g65
NtRp807
(dp808
g68
(dp809
g76
I4
ssg77
g803
sg70
(lp810
S'felicity.iiit.ac.in'
p811
asbasbasbag63
(g79
g65
NtRp812
(dp813
g68
(dp814
sg77
g458
sg70
(lp815
g63
(g84
g65
NtRp816
(dp817
g68
(dp818
g88
g89
ssg77
g812
sg70
(lp819
S'http_pragma'
p820
asbag63
(g84
g65
NtRp821
(dp822
g68
(dp823
g95
g96
ssg77
g812
sg70
(lp824
S':'
asbag63
(g84
g65
NtRp825
(dp826
g68
(dp827
sg77
g812
sg70
(lp828
g63
(g64
g65
NtRp829
(dp830
g68
(dp831
g76
I4
ssg77
g825
sg70
(lp832
S'no-cache'
p833
asbasbasbag63
(g79
g65
NtRp834
(dp835
g68
(dp836
sg77
g458
sg70
(lp837
g63
(g84
g65
NtRp838
(dp839
g68
(dp840
g88
g89
ssg77
g834
sg70
(lp841
S'http_referer'
p842
asbag63
(g84
g65
NtRp843
(dp844
g68
(dp845
g95
g96
ssg77
g834
sg70
(lp846
S':'
asbag63
(g84
g65
NtRp847
(dp848
g68
(dp849
sg77
g834
sg70
(lp850
g63
(g64
g65
NtRp851
(dp852
g68
(dp853
g76
I4
ssg77
g847
sg70
(lp854
S'http://felicity.iiit.ac.in/web2py/Threads_Beta/default/questions?question_no=0&event_id=1&message=Bad%20Going!'
p855
asbasbasbag63
(g79
g65
NtRp856
(dp857
g68
(dp858
sg77
g458
sg70
(lp859
g63
(g84
g65
NtRp860
(dp861
g68
(dp862
g88
g89
ssg77
g856
sg70
(lp863
S'http_user_agent'
p864
asbag63
(g84
g65
NtRp865
(dp866
g68
(dp867
g95
g96
ssg77
g856
sg70
(lp868
S':'
asbag63
(g84
g65
NtRp869
(dp870
g68
(dp871
sg77
g856
sg70
(lp872
g63
(g64
g65
NtRp873
(dp874
g68
(dp875
g76
I4
ssg77
g869
sg70
(lp876
S'Mozilla/5.0 (X11; Linux x86_64; rv:10.0.10) Gecko/20121027 Firefox/10.0.10'
p877
asbasbasbag63
(g79
g65
NtRp878
(dp879
g68
(dp880
sg77
g458
sg70
(lp881
g63
(g84
g65
NtRp882
(dp883
g68
(dp884
g88
g89
ssg77
g878
sg70
(lp885
S'is_jython'
p886
asbag63
(g84
g65
NtRp887
(dp888
g68
(dp889
g95
g96
ssg77
g878
sg70
(lp890
S':'
asbag63
(g84
g65
NtRp891
(dp892
g68
(dp893
sg77
g878
sg70
(lp894
g63
(g64
g65
NtRp895
(dp896
g68
(dp897
g76
I4
ssg77
g891
sg70
(lp898
g106
asbasbasbag63
(g79
g65
NtRp899
(dp900
g68
(dp901
sg77
g458
sg70
(lp902
g63
(g84
g65
NtRp903
(dp904
g68
(dp905
g88
g89
ssg77
g899
sg70
(lp906
S'is_pypy'
p907
asbag63
(g84
g65
NtRp908
(dp909
g68
(dp910
g95
g96
ssg77
g899
sg70
(lp911
S':'
asbag63
(g84
g65
NtRp912
(dp913
g68
(dp914
sg77
g899
sg70
(lp915
g63
(g64
g65
NtRp916
(dp917
g68
(dp918
g76
I4
ssg77
g912
sg70
(lp919
g106
asbasbasbag63
(g79
g65
NtRp920
(dp921
g68
(dp922
sg77
g458
sg70
(lp923
g63
(g84
g65
NtRp924
(dp925
g68
(dp926
g88
g89
ssg77
g920
sg70
(lp927
S'mod_wsgi_application_group'
p928
asbag63
(g84
g65
NtRp929
(dp930
g68
(dp931
g95
g96
ssg77
g920
sg70
(lp932
S':'
asbag63
(g84
g65
NtRp933
(dp934
g68
(dp935
sg77
g920
sg70
(lp936
g63
(g64
g65
NtRp937
(dp938
g68
(dp939
g76
I4
ssg77
g933
sg70
(lp940
S'felicity.iiit.ac.in|/web2py'
p941
asbasbasbag63
(g79
g65
NtRp942
(dp943
g68
(dp944
sg77
g458
sg70
(lp945
g63
(g84
g65
NtRp946
(dp947
g68
(dp948
g88
g89
ssg77
g942
sg70
(lp949
S'mod_wsgi_callable_object'
p950
asbag63
(g84
g65
NtRp951
(dp952
g68
(dp953
g95
g96
ssg77
g942
sg70
(lp954
S':'
asbag63
(g84
g65
NtRp955
(dp956
g68
(dp957
sg77
g942
sg70
(lp958
g63
(g64
g65
NtRp959
(dp960
g68
(dp961
g76
I4
ssg77
g955
sg70
(lp962
S'application'
p963
asbasbasbag63
(g79
g65
NtRp964
(dp965
g68
(dp966
sg77
g458
sg70
(lp967
g63
(g84
g65
NtRp968
(dp969
g68
(dp970
g88
g89
ssg77
g964
sg70
(lp971
S'mod_wsgi_handler_script'
p972
asbag63
(g84
g65
NtRp973
(dp974
g68
(dp975
g95
g96
ssg77
g964
sg70
(lp976
S':'
asbag63
(g84
g65
NtRp977
(dp978
g68
(dp979
sg77
g964
sg70
(lp980
g63
(g64
g65
NtRp981
(dp982
g68
(dp983
g76
I4
ssg77
g977
sg70
(lp984
S''
asbasbasbag63
(g79
g65
NtRp985
(dp986
g68
(dp987
sg77
g458
sg70
(lp988
g63
(g84
g65
NtRp989
(dp990
g68
(dp991
g88
g89
ssg77
g985
sg70
(lp992
S'mod_wsgi_input_chunked'
p993
asbag63
(g84
g65
NtRp994
(dp995
g68
(dp996
g95
g96
ssg77
g985
sg70
(lp997
S':'
asbag63
(g84
g65
NtRp998
(dp999
g68
(dp1000
sg77
g985
sg70
(lp1001
g63
(g64
g65
NtRp1002
(dp1003
g68
(dp1004
g76
I4
ssg77
g998
sg70
(lp1005
S'0'
asbasbasbag63
(g79
g65
NtRp1006
(dp1007
g68
(dp1008
sg77
g458
sg70
(lp1009
g63
(g84
g65
NtRp1010
(dp1011
g68
(dp1012
g88
g89
ssg77
g1006
sg70
(lp1013
S'mod_wsgi_listener_host'
p1014
asbag63
(g84
g65
NtRp1015
(dp1016
g68
(dp1017
g95
g96
ssg77
g1006
sg70
(lp1018
S':'
asbag63
(g84
g65
NtRp1019
(dp1020
g68
(dp1021
sg77
g1006
sg70
(lp1022
g63
(g64
g65
NtRp1023
(dp1024
g68
(dp1025
g76
I4
ssg77
g1019
sg70
(lp1026
S''
asbasbasbag63
(g79
g65
NtRp1027
(dp1028
g68
(dp1029
sg77
g458
sg70
(lp1030
g63
(g84
g65
NtRp1031
(dp1032
g68
(dp1033
g88
g89
ssg77
g1027
sg70
(lp1034
S'mod_wsgi_listener_port'
p1035
asbag63
(g84
g65
NtRp1036
(dp1037
g68
(dp1038
g95
g96
ssg77
g1027
sg70
(lp1039
S':'
asbag63
(g84
g65
NtRp1040
(dp1041
g68
(dp1042
sg77
g1027
sg70
(lp1043
g63
(g64
g65
NtRp1044
(dp1045
g68
(dp1046
g76
I4
ssg77
g1040
sg70
(lp1047
S'80'
p1048
asbasbasbag63
(g79
g65
NtRp1049
(dp1050
g68
(dp1051
sg77
g458
sg70
(lp1052
g63
(g84
g65
NtRp1053
(dp1054
g68
(dp1055
g88
g89
ssg77
g1049
sg70
(lp1056
S'mod_wsgi_process_group'
p1057
asbag63
(g84
g65
NtRp1058
(dp1059
g68
(dp1060
g95
g96
ssg77
g1049
sg70
(lp1061
S':'
asbag63
(g84
g65
NtRp1062
(dp1063
g68
(dp1064
sg77
g1049
sg70
(lp1065
g63
(g64
g65
NtRp1066
(dp1067
g68
(dp1068
g76
I4
ssg77
g1062
sg70
(lp1069
S'web2py'
p1070
asbasbasbag63
(g79
g65
NtRp1071
(dp1072
g68
(dp1073
sg77
g458
sg70
(lp1074
g63
(g84
g65
NtRp1075
(dp1076
g68
(dp1077
g88
g89
ssg77
g1071
sg70
(lp1078
S'mod_wsgi_request_handler'
p1079
asbag63
(g84
g65
NtRp1080
(dp1081
g68
(dp1082
g95
g96
ssg77
g1071
sg70
(lp1083
S':'
asbag63
(g84
g65
NtRp1084
(dp1085
g68
(dp1086
sg77
g1071
sg70
(lp1087
g63
(g64
g65
NtRp1088
(dp1089
g68
(dp1090
g76
I4
ssg77
g1084
sg70
(lp1091
S'wsgi-script'
p1092
asbasbasbag63
(g79
g65
NtRp1093
(dp1094
g68
(dp1095
sg77
g458
sg70
(lp1096
g63
(g84
g65
NtRp1097
(dp1098
g68
(dp1099
g88
g89
ssg77
g1093
sg70
(lp1100
S'mod_wsgi_script_reloading'
p1101
asbag63
(g84
g65
NtRp1102
(dp1103
g68
(dp1104
g95
g96
ssg77
g1093
sg70
(lp1105
S':'
asbag63
(g84
g65
NtRp1106
(dp1107
g68
(dp1108
sg77
g1093
sg70
(lp1109
g63
(g64
g65
NtRp1110
(dp1111
g68
(dp1112
g76
I4
ssg77
g1106
sg70
(lp1113
S'1'
asbasbasbag63
(g79
g65
NtRp1114
(dp1115
g68
(dp1116
sg77
g458
sg70
(lp1117
g63
(g84
g65
NtRp1118
(dp1119
g68
(dp1120
g88
g89
ssg77
g1114
sg70
(lp1121
S'mod_wsgi_version'
p1122
asbag63
(g84
g65
NtRp1123
(dp1124
g68
(dp1125
g95
g96
ssg77
g1114
sg70
(lp1126
S':'
asbag63
(g84
g65
NtRp1127
(dp1128
g68
(dp1129
sg77
g1114
sg70
(lp1130
g63
(g64
g65
NtRp1131
(dp1132
g68
(dp1133
g76
I4
ssg77
g1127
sg70
(lp1134
g63
(g72
g65
NtRp1135
(dp1136
g68
(dp1137
g76
I3
ssg77
Nsg70
(lp1138
g63
(g79
g65
NtRp1139
(dp1140
g68
(dp1141
sg77
g1135
sg70
(lp1142
g63
(g84
g65
NtRp1143
(dp1144
g68
(dp1145
sg77
g1139
sg70
(lp1146
g63
(g64
g65
NtRp1147
(dp1148
g68
(dp1149
g76
I3
ssg77
g1143
sg70
(lp1150
S'3'
asbasbasbag63
(g79
g65
NtRp1151
(dp1152
g68
(dp1153
sg77
g1135
sg70
(lp1154
g63
(g84
g65
NtRp1155
(dp1156
g68
(dp1157
sg77
g1151
sg70
(lp1158
g63
(g64
g65
NtRp1159
(dp1160
g68
(dp1161
g76
I3
ssg77
g1155
sg70
(lp1162
S'2'
asbasbasbasbasbasbasbag63
(g79
g65
NtRp1163
(dp1164
g68
(dp1165
sg77
g458
sg70
(lp1166
g63
(g84
g65
NtRp1167
(dp1168
g68
(dp1169
g88
g89
ssg77
g1163
sg70
(lp1170
S'path_info'
p1171
asbag63
(g84
g65
NtRp1172
(dp1173
g68
(dp1174
g95
g96
ssg77
g1163
sg70
(lp1175
S':'
asbag63
(g84
g65
NtRp1176
(dp1177
g68
(dp1178
sg77
g1163
sg70
(lp1179
g63
(g64
g65
NtRp1180
(dp1181
g68
(dp1182
g76
I4
ssg77
g1176
sg70
(lp1183
S'/Threads_Beta/default/judge'
p1184
asbasbasbag63
(g79
g65
NtRp1185
(dp1186
g68
(dp1187
sg77
g458
sg70
(lp1188
g63
(g84
g65
NtRp1189
(dp1190
g68
(dp1191
g88
g89
ssg77
g1185
sg70
(lp1192
S'path_translated'
p1193
asbag63
(g84
g65
NtRp1194
(dp1195
g68
(dp1196
g95
g96
ssg77
g1185
sg70
(lp1197
S':'
asbag63
(g84
g65
NtRp1198
(dp1199
g68
(dp1200
sg77
g1185
sg70
(lp1201
g63
(g64
g65
NtRp1202
(dp1203
g68
(dp1204
g76
I4
ssg77
g1198
sg70
(lp1205
S'/var/www/html/Threads_Beta/default/judge'
p1206
asbasbasbag63
(g79
g65
NtRp1207
(dp1208
g68
(dp1209
sg77
g458
sg70
(lp1210
g63
(g84
g65
NtRp1211
(dp1212
g68
(dp1213
g88
g89
ssg77
g1207
sg70
(lp1214
S'query_string'
p1215
asbag63
(g84
g65
NtRp1216
(dp1217
g68
(dp1218
g95
g96
ssg77
g1207
sg70
(lp1219
S':'
asbag63
(g84
g65
NtRp1220
(dp1221
g68
(dp1222
sg77
g1207
sg70
(lp1223
g63
(g64
g65
NtRp1224
(dp1225
g68
(dp1226
g76
I4
ssg77
g1220
sg70
(lp1227
S'event_id=1&question_no=3'
p1228
asbasbasbag63
(g79
g65
NtRp1229
(dp1230
g68
(dp1231
sg77
g458
sg70
(lp1232
g63
(g84
g65
NtRp1233
(dp1234
g68
(dp1235
g88
g89
ssg77
g1229
sg70
(lp1236
S'remote_addr'
p1237
asbag63
(g84
g65
NtRp1238
(dp1239
g68
(dp1240
g95
g96
ssg77
g1229
sg70
(lp1241
S':'
asbag63
(g84
g65
NtRp1242
(dp1243
g68
(dp1244
sg77
g1229
sg70
(lp1245
g63
(g64
g65
NtRp1246
(dp1247
g68
(dp1248
g76
I4
ssg77
g1242
sg70
(lp1249
g196
asbasbasbag63
(g79
g65
NtRp1250
(dp1251
g68
(dp1252
sg77
g458
sg70
(lp1253
g63
(g84
g65
NtRp1254
(dp1255
g68
(dp1256
g88
g89
ssg77
g1250
sg70
(lp1257
S'remote_port'
p1258
asbag63
(g84
g65
NtRp1259
(dp1260
g68
(dp1261
g95
g96
ssg77
g1250
sg70
(lp1262
S':'
asbag63
(g84
g65
NtRp1263
(dp1264
g68
(dp1265
sg77
g1250
sg70
(lp1266
g63
(g64
g65
NtRp1267
(dp1268
g68
(dp1269
g76
I4
ssg77
g1263
sg70
(lp1270
S'38618'
p1271
asbasbasbag63
(g79
g65
NtRp1272
(dp1273
g68
(dp1274
sg77
g458
sg70
(lp1275
g63
(g84
g65
NtRp1276
(dp1277
g68
(dp1278
g88
g89
ssg77
g1272
sg70
(lp1279
S'request_method'
p1280
asbag63
(g84
g65
NtRp1281
(dp1282
g68
(dp1283
g95
g96
ssg77
g1272
sg70
(lp1284
S':'
asbag63
(g84
g65
NtRp1285
(dp1286
g68
(dp1287
sg77
g1272
sg70
(lp1288
g63
(g64
g65
NtRp1289
(dp1290
g68
(dp1291
g76
I4
ssg77
g1285
sg70
(lp1292
S'POST'
p1293
asbasbasbag63
(g79
g65
NtRp1294
(dp1295
g68
(dp1296
sg77
g458
sg70
(lp1297
g63
(g84
g65
NtRp1298
(dp1299
g68
(dp1300
g88
g89
ssg77
g1294
sg70
(lp1301
S'request_uri'
p1302
asbag63
(g84
g65
NtRp1303
(dp1304
g68
(dp1305
g95
g96
ssg77
g1294
sg70
(lp1306
S':'
asbag63
(g84
g65
NtRp1307
(dp1308
g68
(dp1309
sg77
g1294
sg70
(lp1310
g63
(g64
g65
NtRp1311
(dp1312
g68
(dp1313
g76
I4
ssg77
g1307
sg70
(lp1314
S'/Threads_Beta/default/judge?event_id=1&question_no=3'
p1315
asbasbasbag63
(g79
g65
NtRp1316
(dp1317
g68
(dp1318
sg77
g458
sg70
(lp1319
g63
(g84
g65
NtRp1320
(dp1321
g68
(dp1322
g88
g89
ssg77
g1316
sg70
(lp1323
S'script_filename'
p1324
asbag63
(g84
g65
NtRp1325
(dp1326
g68
(dp1327
g95
g96
ssg77
g1316
sg70
(lp1328
S':'
asbag63
(g84
g65
NtRp1329
(dp1330
g68
(dp1331
sg77
g1316
sg70
(lp1332
g63
(g64
g65
NtRp1333
(dp1334
g68
(dp1335
g76
I4
ssg77
g1329
sg70
(lp1336
S'/var/www/web2py/wsgihandler.py'
p1337
asbasbasbag63
(g79
g65
NtRp1338
(dp1339
g68
(dp1340
sg77
g458
sg70
(lp1341
g63
(g84
g65
NtRp1342
(dp1343
g68
(dp1344
g88
g89
ssg77
g1338
sg70
(lp1345
S'script_name'
p1346
asbag63
(g84
g65
NtRp1347
(dp1348
g68
(dp1349
g95
g96
ssg77
g1338
sg70
(lp1350
S':'
asbag63
(g84
g65
NtRp1351
(dp1352
g68
(dp1353
sg77
g1338
sg70
(lp1354
g63
(g64
g65
NtRp1355
(dp1356
g68
(dp1357
g76
I4
ssg77
g1351
sg70
(lp1358
S'/web2py'
p1359
asbasbasbag63
(g79
g65
NtRp1360
(dp1361
g68
(dp1362
sg77
g458
sg70
(lp1363
g63
(g84
g65
NtRp1364
(dp1365
g68
(dp1366
g88
g89
ssg77
g1360
sg70
(lp1367
S'server_addr'
p1368
asbag63
(g84
g65
NtRp1369
(dp1370
g68
(dp1371
g95
g96
ssg77
g1360
sg70
(lp1372
S':'
asbag63
(g84
g65
NtRp1373
(dp1374
g68
(dp1375
sg77
g1360
sg70
(lp1376
g63
(g64
g65
NtRp1377
(dp1378
g68
(dp1379
g76
I4
ssg77
g1373
sg70
(lp1380
S'10.4.3.65'
p1381
asbasbasbag63
(g79
g65
NtRp1382
(dp1383
g68
(dp1384
sg77
g458
sg70
(lp1385
g63
(g84
g65
NtRp1386
(dp1387
g68
(dp1388
g88
g89
ssg77
g1382
sg70
(lp1389
S'server_admin'
p1390
asbag63
(g84
g65
NtRp1391
(dp1392
g68
(dp1393
g95
g96
ssg77
g1382
sg70
(lp1394
S':'
asbag63
(g84
g65
NtRp1395
(dp1396
g68
(dp1397
sg77
g1382
sg70
(lp1398
g63
(g64
g65
NtRp1399
(dp1400
g68
(dp1401
g76
I4
ssg77
g1395
sg70
(lp1402
S'madhavan[dot]chetlur[at]students.iiit.ac.in'
p1403
asbasbasbag63
(g79
g65
NtRp1404
(dp1405
g68
(dp1406
sg77
g458
sg70
(lp1407
g63
(g84
g65
NtRp1408
(dp1409
g68
(dp1410
g88
g89
ssg77
g1404
sg70
(lp1411
S'server_name'
p1412
asbag63
(g84
g65
NtRp1413
(dp1414
g68
(dp1415
g95
g96
ssg77
g1404
sg70
(lp1416
S':'
asbag63
(g84
g65
NtRp1417
(dp1418
g68
(dp1419
sg77
g1404
sg70
(lp1420
g63
(g64
g65
NtRp1421
(dp1422
g68
(dp1423
g76
I4
ssg77
g1417
sg70
(lp1424
S'felicity.iiit.ac.in'
p1425
asbasbasbag63
(g79
g65
NtRp1426
(dp1427
g68
(dp1428
sg77
g458
sg70
(lp1429
g63
(g84
g65
NtRp1430
(dp1431
g68
(dp1432
g88
g89
ssg77
g1426
sg70
(lp1433
S'server_port'
p1434
asbag63
(g84
g65
NtRp1435
(dp1436
g68
(dp1437
g95
g96
ssg77
g1426
sg70
(lp1438
S':'
asbag63
(g84
g65
NtRp1439
(dp1440
g68
(dp1441
sg77
g1426
sg70
(lp1442
g63
(g64
g65
NtRp1443
(dp1444
g68
(dp1445
g76
I4
ssg77
g1439
sg70
(lp1446
S'80'
p1447
asbasbasbag63
(g79
g65
NtRp1448
(dp1449
g68
(dp1450
sg77
g458
sg70
(lp1451
g63
(g84
g65
NtRp1452
(dp1453
g68
(dp1454
g88
g89
ssg77
g1448
sg70
(lp1455
S'server_protocol'
p1456
asbag63
(g84
g65
NtRp1457
(dp1458
g68
(dp1459
g95
g96
ssg77
g1448
sg70
(lp1460
S':'
asbag63
(g84
g65
NtRp1461
(dp1462
g68
(dp1463
sg77
g1448
sg70
(lp1464
g63
(g64
g65
NtRp1465
(dp1466
g68
(dp1467
g76
I4
ssg77
g1461
sg70
(lp1468
S'HTTP/1.1'
p1469
asbasbasbag63
(g79
g65
NtRp1470
(dp1471
g68
(dp1472
sg77
g458
sg70
(lp1473
g63
(g84
g65
NtRp1474
(dp1475
g68
(dp1476
g88
g89
ssg77
g1470
sg70
(lp1477
S'server_signature'
p1478
asbag63
(g84
g65
NtRp1479
(dp1480
g68
(dp1481
g95
g96
ssg77
g1470
sg70
(lp1482
S':'
asbag63
(g84
g65
NtRp1483
(dp1484
g68
(dp1485
sg77
g1470
sg70
(lp1486
g63
(g64
g65
NtRp1487
(dp1488
g68
(dp1489
g76
I4
ssg77
g1483
sg70
(lp1490
S''
asbasbasbag63
(g79
g65
NtRp1491
(dp1492
g68
(dp1493
sg77
g458
sg70
(lp1494
g63
(g84
g65
NtRp1495
(dp1496
g68
(dp1497
g88
g89
ssg77
g1491
sg70
(lp1498
S'server_software'
p1499
asbag63
(g84
g65
NtRp1500
(dp1501
g68
(dp1502
g95
g96
ssg77
g1491
sg70
(lp1503
S':'
asbag63
(g84
g65
NtRp1504
(dp1505
g68
(dp1506
sg77
g1491
sg70
(lp1507
g63
(g64
g65
NtRp1508
(dp1509
g68
(dp1510
g76
I4
ssg77
g1504
sg70
(lp1511
S'Apache'
p1512
asbasbasbag63
(g79
g65
NtRp1513
(dp1514
g68
(dp1515
sg77
g458
sg70
(lp1516
g63
(g84
g65
NtRp1517
(dp1518
g68
(dp1519
g88
g89
ssg77
g1513
sg70
(lp1520
S'web2py_original_uri'
p1521
asbag63
(g84
g65
NtRp1522
(dp1523
g68
(dp1524
g95
g96
ssg77
g1513
sg70
(lp1525
S':'
asbag63
(g84
g65
NtRp1526
(dp1527
g68
(dp1528
sg77
g1513
sg70
(lp1529
g63
(g64
g65
NtRp1530
(dp1531
g68
(dp1532
g76
I4
ssg77
g1526
sg70
(lp1533
S'/Threads_Beta/default/judge?event_id=1&question_no=3'
p1534
asbasbasbag63
(g79
g65
NtRp1535
(dp1536
g68
(dp1537
sg77
g458
sg70
(lp1538
g63
(g84
g65
NtRp1539
(dp1540
g68
(dp1541
g88
g89
ssg77
g1535
sg70
(lp1542
S'web2py_path'
p1543
asbag63
(g84
g65
NtRp1544
(dp1545
g68
(dp1546
g95
g96
ssg77
g1535
sg70
(lp1547
S':'
asbag63
(g84
g65
NtRp1548
(dp1549
g68
(dp1550
sg77
g1535
sg70
(lp1551
g63
(g64
g65
NtRp1552
(dp1553
g68
(dp1554
g76
I4
ssg77
g1548
sg70
(lp1555
g505
asbasbasbag63
(g79
g65
NtRp1556
(dp1557
g68
(dp1558
sg77
g458
sg70
(lp1559
g63
(g84
g65
NtRp1560
(dp1561
g68
(dp1562
g88
g89
ssg77
g1556
sg70
(lp1563
S'web2py_version'
p1564
asbag63
(g84
g65
NtRp1565
(dp1566
g68
(dp1567
g95
g96
ssg77
g1556
sg70
(lp1568
S':'
asbag63
(g84
g65
NtRp1569
(dp1570
g68
(dp1571
sg77
g1556
sg70
(lp1572
g63
(g64
g65
NtRp1573
(dp1574
g68
(dp1575
g76
I4
ssg77
g1569
sg70
(lp1576
g63
(g72
g65
NtRp1577
(dp1578
g68
(dp1579
g76
I3
ssg77
Nsg70
(lp1580
g63
(g79
g65
NtRp1581
(dp1582
g68
(dp1583
sg77
g1577
sg70
(lp1584
g63
(g84
g65
NtRp1585
(dp1586
g68
(dp1587
sg77
g1581
sg70
(lp1588
g63
(g64
g65
NtRp1589
(dp1590
g68
(dp1591
g76
I3
ssg77
g1585
sg70
(lp1592
S'1'
asbasbasbag63
(g79
g65
NtRp1593
(dp1594
g68
(dp1595
sg77
g1577
sg70
(lp1596
g63
(g84
g65
NtRp1597
(dp1598
g68
(dp1599
sg77
g1593
sg70
(lp1600
g63
(g64
g65
NtRp1601
(dp1602
g68
(dp1603
g76
I3
ssg77
g1597
sg70
(lp1604
S'99'
p1605
asbasbasbag63
(g79
g65
NtRp1606
(dp1607
g68
(dp1608
sg77
g1577
sg70
(lp1609
g63
(g84
g65
NtRp1610
(dp1611
g68
(dp1612
sg77
g1606
sg70
(lp1613
g63
(g64
g65
NtRp1614
(dp1615
g68
(dp1616
g76
I3
ssg77
g1610
sg70
(lp1617
S'4'
asbasbasbag63
(g79
g65
NtRp1618
(dp1619
g68
(dp1620
sg77
g1577
sg70
(lp1621
g63
(g84
g65
NtRp1622
(dp1623
g68
(dp1624
sg77
g1618
sg70
(lp1625
g63
(g64
g65
NtRp1626
(dp1627
g68
(dp1628
g76
I3
ssg77
g1622
sg70
(lp1629
S'datetime.datetime(2011, 12, 14, 14, 46, 14)'
p1630
asbasbasbag63
(g79
g65
NtRp1631
(dp1632
g68
(dp1633
sg77
g1577
sg70
(lp1634
g63
(g84
g65
NtRp1635
(dp1636
g68
(dp1637
sg77
g1631
sg70
(lp1638
g63
(g64
g65
NtRp1639
(dp1640
g68
(dp1641
g76
I3
ssg77
g1635
sg70
(lp1642
S'stable'
p1643
asbasbasbasbasbasbasbag63
(g79
g65
NtRp1644
(dp1645
g68
(dp1646
sg77
g458
sg70
(lp1647
g63
(g84
g65
NtRp1648
(dp1649
g68
(dp1650
g88
g89
ssg77
g1644
sg70
(lp1651
S'wsgi_errors'
p1652
asbag63
(g84
g65
NtRp1653
(dp1654
g68
(dp1655
g95
g96
ssg77
g1644
sg70
(lp1656
S':'
asbag63
(g84
g65
NtRp1657
(dp1658
g68
(dp1659
sg77
g1644
sg70
(lp1660
g63
(g64
g65
NtRp1661
(dp1662
g68
(dp1663
g76
I4
ssg77
g1657
sg70
(lp1664
S'<mod_wsgi.Log object at 0x7fba321beef0>'
p1665
asbasbasbag63
(g79
g65
NtRp1666
(dp1667
g68
(dp1668
sg77
g458
sg70
(lp1669
g63
(g84
g65
NtRp1670
(dp1671
g68
(dp1672
g88
g89
ssg77
g1666
sg70
(lp1673
S'wsgi_file_wrapper'
p1674
asbag63
(g84
g65
NtRp1675
(dp1676
g68
(dp1677
g95
g96
ssg77
g1666
sg70
(lp1678
S':'
asbag63
(g84
g65
NtRp1679
(dp1680
g68
(dp1681
sg77
g1666
sg70
(lp1682
g63
(g64
g65
NtRp1683
(dp1684
g68
(dp1685
g76
I4
ssg77
g1679
sg70
(lp1686
S'<built-in method file_wrapper of mod_wsgi.Adapter object at 0x7fba20660be8>'
p1687
asbasbasbag63
(g79
g65
NtRp1688
(dp1689
g68
(dp1690
sg77
g458
sg70
(lp1691
g63
(g84
g65
NtRp1692
(dp1693
g68
(dp1694
g88
g89
ssg77
g1688
sg70
(lp1695
S'wsgi_input'
p1696
asbag63
(g84
g65
NtRp1697
(dp1698
g68
(dp1699
g95
g96
ssg77
g1688
sg70
(lp1700
S':'
asbag63
(g84
g65
NtRp1701
(dp1702
g68
(dp1703
sg77
g1688
sg70
(lp1704
g63
(g64
g65
NtRp1705
(dp1706
g68
(dp1707
g76
I4
ssg77
g1701
sg70
(lp1708
S'<mod_wsgi.Input object at 0x7fba321bee30>'
p1709
asbasbasbag63
(g79
g65
NtRp1710
(dp1711
g68
(dp1712
sg77
g458
sg70
(lp1713
g63
(g84
g65
NtRp1714
(dp1715
g68
(dp1716
g88
g89
ssg77
g1710
sg70
(lp1717
S'wsgi_multiprocess'
p1718
asbag63
(g84
g65
NtRp1719
(dp1720
g68
(dp1721
g95
g96
ssg77
g1710
sg70
(lp1722
S':'
asbag63
(g84
g65
NtRp1723
(dp1724
g68
(dp1725
sg77
g1710
sg70
(lp1726
g63
(g64
g65
NtRp1727
(dp1728
g68
(dp1729
g76
I4
ssg77
g1723
sg70
(lp1730
g106
asbasbasbag63
(g79
g65
NtRp1731
(dp1732
g68
(dp1733
sg77
g458
sg70
(lp1734
g63
(g84
g65
NtRp1735
(dp1736
g68
(dp1737
g88
g89
ssg77
g1731
sg70
(lp1738
S'wsgi_multithread'
p1739
asbag63
(g84
g65
NtRp1740
(dp1741
g68
(dp1742
g95
g96
ssg77
g1731
sg70
(lp1743
S':'
asbag63
(g84
g65
NtRp1744
(dp1745
g68
(dp1746
sg77
g1731
sg70
(lp1747
g63
(g64
g65
NtRp1748
(dp1749
g68
(dp1750
g76
I4
ssg77
g1744
sg70
(lp1751
S'True'
p1752
asbasbasbag63
(g79
g65
NtRp1753
(dp1754
g68
(dp1755
sg77
g458
sg70
(lp1756
g63
(g84
g65
NtRp1757
(dp1758
g68
(dp1759
g88
g89
ssg77
g1753
sg70
(lp1760
S'wsgi_run_once'
p1761
asbag63
(g84
g65
NtRp1762
(dp1763
g68
(dp1764
g95
g96
ssg77
g1753
sg70
(lp1765
S':'
asbag63
(g84
g65
NtRp1766
(dp1767
g68
(dp1768
sg77
g1753
sg70
(lp1769
g63
(g64
g65
NtRp1770
(dp1771
g68
(dp1772
g76
I4
ssg77
g1766
sg70
(lp1773
g106
asbasbasbag63
(g79
g65
NtRp1774
(dp1775
g68
(dp1776
sg77
g458
sg70
(lp1777
g63
(g84
g65
NtRp1778
(dp1779
g68
(dp1780
g88
g89
ssg77
g1774
sg70
(lp1781
S'wsgi_url_scheme'
p1782
asbag63
(g84
g65
NtRp1783
(dp1784
g68
(dp1785
g95
g96
ssg77
g1774
sg70
(lp1786
S':'
asbag63
(g84
g65
NtRp1787
(dp1788
g68
(dp1789
sg77
g1774
sg70
(lp1790
g63
(g64
g65
NtRp1791
(dp1792
g68
(dp1793
g76
I4
ssg77
g1787
sg70
(lp1794
S'http'
p1795
asbasbasbag63
(g79
g65
NtRp1796
(dp1797
g68
(dp1798
sg77
g458
sg70
(lp1799
g63
(g84
g65
NtRp1800
(dp1801
g68
(dp1802
g88
g89
ssg77
g1796
sg70
(lp1803
S'wsgi_version'
p1804
asbag63
(g84
g65
NtRp1805
(dp1806
g68
(dp1807
g95
g96
ssg77
g1796
sg70
(lp1808
S':'
asbag63
(g84
g65
NtRp1809
(dp1810
g68
(dp1811
sg77
g1796
sg70
(lp1812
g63
(g64
g65
NtRp1813
(dp1814
g68
(dp1815
g76
I4
ssg77
g1809
sg70
(lp1816
g63
(g72
g65
NtRp1817
(dp1818
g68
(dp1819
g76
I3
ssg77
Nsg70
(lp1820
g63
(g79
g65
NtRp1821
(dp1822
g68
(dp1823
sg77
g1817
sg70
(lp1824
g63
(g84
g65
NtRp1825
(dp1826
g68
(dp1827
sg77
g1821
sg70
(lp1828
g63
(g64
g65
NtRp1829
(dp1830
g68
(dp1831
g76
I3
ssg77
g1825
sg70
(lp1832
S'1'
asbasbasbag63
(g79
g65
NtRp1833
(dp1834
g68
(dp1835
sg77
g1817
sg70
(lp1836
g63
(g84
g65
NtRp1837
(dp1838
g68
(dp1839
sg77
g1833
sg70
(lp1840
g63
(g64
g65
NtRp1841
(dp1842
g68
(dp1843
g76
I3
ssg77
g1837
sg70
(lp1844
S'1'
asbasbasbasbasbasbasbasbasbasbasbag63
(g79
g65
NtRp1845
(dp1846
g68
(dp1847
sg77
g73
sg70
(lp1848
g63
(g84
g65
NtRp1849
(dp1850
g68
(dp1851
g88
g89
ssg77
g1845
sg70
(lp1852
S'extension'
p1853
asbag63
(g84
g65
NtRp1854
(dp1855
g68
(dp1856
g95
g96
ssg77
g1845
sg70
(lp1857
S':'
asbag63
(g84
g65
NtRp1858
(dp1859
g68
(dp1860
sg77
g1845
sg70
(lp1861
g63
(g64
g65
NtRp1862
(dp1863
g68
(dp1864
g76
I5
ssg77
g1858
sg70
(lp1865
S'html'
p1866
asbasbasbag63
(g79
g65
NtRp1867
(dp1868
g68
(dp1869
sg77
g73
sg70
(lp1870
g63
(g84
g65
NtRp1871
(dp1872
g68
(dp1873
g88
g89
ssg77
g1867
sg70
(lp1874
S'folder'
p1875
asbag63
(g84
g65
NtRp1876
(dp1877
g68
(dp1878
g95
g96
ssg77
g1867
sg70
(lp1879
S':'
asbag63
(g84
g65
NtRp1880
(dp1881
g68
(dp1882
sg77
g1867
sg70
(lp1883
g63
(g64
g65
NtRp1884
(dp1885
g68
(dp1886
g76
I5
ssg77
g1880
sg70
(lp1887
S'/var/www/web2py/applications/Threads_Beta/'
p1888
asbasbasbag63
(g79
g65
NtRp1889
(dp1890
g68
(dp1891
sg77
g73
sg70
(lp1892
g63
(g84
g65
NtRp1893
(dp1894
g68
(dp1895
g88
g89
ssg77
g1889
sg70
(lp1896
S'function'
p1897
asbag63
(g84
g65
NtRp1898
(dp1899
g68
(dp1900
g95
g96
ssg77
g1889
sg70
(lp1901
S':'
asbag63
(g84
g65
NtRp1902
(dp1903
g68
(dp1904
sg77
g1889
sg70
(lp1905
g63
(g64
g65
NtRp1906
(dp1907
g68
(dp1908
g76
I5
ssg77
g1902
sg70
(lp1909
S'judge'
p1910
asbasbasbag63
(g79
g65
NtRp1911
(dp1912
g68
(dp1913
sg77
g73
sg70
(lp1914
g63
(g84
g65
NtRp1915
(dp1916
g68
(dp1917
g88
g89
ssg77
g1911
sg70
(lp1918
S'get_vars'
p1919
asbag63
(g84
g65
NtRp1920
(dp1921
g68
(dp1922
g95
g96
ssg77
g1911
sg70
(lp1923
S':'
asbag63
(g84
g65
NtRp1924
(dp1925
g68
(dp1926
sg77
g1911
sg70
(lp1927
g63
(g64
g65
NtRp1928
(dp1929
g68
(dp1930
g76
I5
ssg77
g1924
sg70
(lp1931
g63
(g72
g65
NtRp1932
(dp1933
g68
(dp1934
g76
I4
ssg77
Nsg70
(lp1935
g63
(g79
g65
NtRp1936
(dp1937
g68
(dp1938
sg77
g1932
sg70
(lp1939
g63
(g84
g65
NtRp1940
(dp1941
g68
(dp1942
g88
g89
ssg77
g1936
sg70
(lp1943
S'event_id'
p1944
asbag63
(g84
g65
NtRp1945
(dp1946
g68
(dp1947
g95
g96
ssg77
g1936
sg70
(lp1948
S':'
asbag63
(g84
g65
NtRp1949
(dp1950
g68
(dp1951
sg77
g1936
sg70
(lp1952
g63
(g64
g65
NtRp1953
(dp1954
g68
(dp1955
g76
I4
ssg77
g1949
sg70
(lp1956
S'1'
asbasbasbag63
(g79
g65
NtRp1957
(dp1958
g68
(dp1959
sg77
g1932
sg70
(lp1960
g63
(g84
g65
NtRp1961
(dp1962
g68
(dp1963
g88
g89
ssg77
g1957
sg70
(lp1964
S'question_no'
p1965
asbag63
(g84
g65
NtRp1966
(dp1967
g68
(dp1968
g95
g96
ssg77
g1957
sg70
(lp1969
S':'
asbag63
(g84
g65
NtRp1970
(dp1971
g68
(dp1972
sg77
g1957
sg70
(lp1973
g63
(g64
g65
NtRp1974
(dp1975
g68
(dp1976
g76
I4
ssg77
g1970
sg70
(lp1977
S'3'
asbasbasbasbasbasbasbag63
(g79
g65
NtRp1978
(dp1979
g68
(dp1980
sg77
g73
sg70
(lp1981
g63
(g84
g65
NtRp1982
(dp1983
g68
(dp1984
g88
g89
ssg77
g1978
sg70
(lp1985
S'global_settings'
p1986
asbag63
(g84
g65
NtRp1987
(dp1988
g68
(dp1989
g95
g96
ssg77
g1978
sg70
(lp1990
S':'
asbag63
(g84
g65
NtRp1991
(dp1992
g68
(dp1993
sg77
g1978
sg70
(lp1994
g63
(g64
g65
NtRp1995
(dp1996
g68
(dp1997
g76
I5
ssg77
g1991
sg70
(lp1998
g63
(g72
g65
NtRp1999
(dp2000
g68
(dp2001
g76
I4
ssg77
Nsg70
(lp2002
g63
(g79
g65
NtRp2003
(dp2004
g68
(dp2005
sg77
g1999
sg70
(lp2006
g63
(g84
g65
NtRp2007
(dp2008
g68
(dp2009
g88
g89
ssg77
g2003
sg70
(lp2010
g470
asbag63
(g84
g65
NtRp2011
(dp2012
g68
(dp2013
g95
g96
ssg77
g2003
sg70
(lp2014
S':'
asbag63
(g84
g65
NtRp2015
(dp2016
g68
(dp2017
sg77
g2003
sg70
(lp2018
g63
(g64
g65
NtRp2019
(dp2020
g68
(dp2021
g76
I4
ssg77
g2015
sg70
(lp2022
S"set(['/var/www/web2py/applications/Threads_Beta/', '/var/www/web2py/applications/welcome/', '/var/www/web2py/applications/ChatBot_V4/', '/var/www/web2py/applications/admin/'])"
p2023
asbasbasbag63
(g79
g65
NtRp2024
(dp2025
g68
(dp2026
sg77
g1999
sg70
(lp2027
g63
(g84
g65
NtRp2028
(dp2029
g68
(dp2030
g88
g89
ssg77
g2024
sg70
(lp2031
g492
asbag63
(g84
g65
NtRp2032
(dp2033
g68
(dp2034
g95
g96
ssg77
g2024
sg70
(lp2035
S':'
asbag63
(g84
g65
NtRp2036
(dp2037
g68
(dp2038
sg77
g2024
sg70
(lp2039
g63
(g64
g65
NtRp2040
(dp2041
g68
(dp2042
g76
I4
ssg77
g2036
sg70
(lp2043
g505
asbasbasbag63
(g79
g65
NtRp2044
(dp2045
g68
(dp2046
sg77
g1999
sg70
(lp2047
g63
(g84
g65
NtRp2048
(dp2049
g68
(dp2050
g88
g89
ssg77
g2044
sg70
(lp2051
g558
asbag63
(g84
g65
NtRp2052
(dp2053
g68
(dp2054
g95
g96
ssg77
g2044
sg70
(lp2055
S':'
asbag63
(g84
g65
NtRp2056
(dp2057
g68
(dp2058
sg77
g2044
sg70
(lp2059
g63
(g64
g65
NtRp2060
(dp2061
g68
(dp2062
g76
I4
ssg77
g2056
sg70
(lp2063
S'set([])'
p2064
asbasbasbag63
(g79
g65
NtRp2065
(dp2066
g68
(dp2067
sg77
g1999
sg70
(lp2068
g63
(g84
g65
NtRp2069
(dp2070
g68
(dp2071
g88
g89
ssg77
g2065
sg70
(lp2072
g580
asbag63
(g84
g65
NtRp2073
(dp2074
g68
(dp2075
g95
g96
ssg77
g2065
sg70
(lp2076
S':'
asbag63
(g84
g65
NtRp2077
(dp2078
g68
(dp2079
sg77
g2065
sg70
(lp2080
g63
(g64
g65
NtRp2081
(dp2082
g68
(dp2083
g76
I4
ssg77
g2077
sg70
(lp2084
g106
asbasbasbag63
(g79
g65
NtRp2085
(dp2086
g68
(dp2087
sg77
g1999
sg70
(lp2088
g63
(g84
g65
NtRp2089
(dp2090
g68
(dp2091
g88
g89
ssg77
g2085
sg70
(lp2092
g645
asbag63
(g84
g65
NtRp2093
(dp2094
g68
(dp2095
g95
g96
ssg77
g2085
sg70
(lp2096
S':'
asbag63
(g84
g65
NtRp2097
(dp2098
g68
(dp2099
sg77
g2085
sg70
(lp2100
g63
(g64
g65
NtRp2101
(dp2102
g68
(dp2103
g76
I4
ssg77
g2097
sg70
(lp2104
g505
asbasbasbag63
(g79
g65
NtRp2105
(dp2106
g68
(dp2107
sg77
g1999
sg70
(lp2108
g63
(g84
g65
NtRp2109
(dp2110
g68
(dp2111
g88
g89
ssg77
g2105
sg70
(lp2112
g886
asbag63
(g84
g65
NtRp2113
(dp2114
g68
(dp2115
g95
g96
ssg77
g2105
sg70
(lp2116
S':'
asbag63
(g84
g65
NtRp2117
(dp2118
g68
(dp2119
sg77
g2105
sg70
(lp2120
g63
(g64
g65
NtRp2121
(dp2122
g68
(dp2123
g76
I4
ssg77
g2117
sg70
(lp2124
g106
asbasbasbag63
(g79
g65
NtRp2125
(dp2126
g68
(dp2127
sg77
g1999
sg70
(lp2128
g63
(g84
g65
NtRp2129
(dp2130
g68
(dp2131
g88
g89
ssg77
g2125
sg70
(lp2132
g907
asbag63
(g84
g65
NtRp2133
(dp2134
g68
(dp2135
g95
g96
ssg77
g2125
sg70
(lp2136
S':'
asbag63
(g84
g65
NtRp2137
(dp2138
g68
(dp2139
sg77
g2125
sg70
(lp2140
g63
(g64
g65
NtRp2141
(dp2142
g68
(dp2143
g76
I4
ssg77
g2137
sg70
(lp2144
g106
asbasbasbag63
(g79
g65
NtRp2145
(dp2146
g68
(dp2147
sg77
g1999
sg70
(lp2148
g63
(g84
g65
NtRp2149
(dp2150
g68
(dp2151
g88
g89
ssg77
g2145
sg70
(lp2152
g1564
asbag63
(g84
g65
NtRp2153
(dp2154
g68
(dp2155
g95
g96
ssg77
g2145
sg70
(lp2156
S':'
asbag63
(g84
g65
NtRp2157
(dp2158
g68
(dp2159
sg77
g2145
sg70
(lp2160
g63
(g64
g65
NtRp2161
(dp2162
g68
(dp2163
g76
I4
ssg77
g2157
sg70
(lp2164
g63
(g72
g65
NtRp2165
(dp2166
g68
(dp2167
g76
I3
ssg77
Nsg70
(lp2168
g63
(g79
g65
NtRp2169
(dp2170
g68
(dp2171
sg77
g2165
sg70
(lp2172
g63
(g84
g65
NtRp2173
(dp2174
g68
(dp2175
sg77
g2169
sg70
(lp2176
g63
(g64
g65
NtRp2177
(dp2178
g68
(dp2179
g76
I3
ssg77
g2173
sg70
(lp2180
S'1'
asbasbasbag63
(g79
g65
NtRp2181
(dp2182
g68
(dp2183
sg77
g2165
sg70
(lp2184
g63
(g84
g65
NtRp2185
(dp2186
g68
(dp2187
sg77
g2181
sg70
(lp2188
g63
(g64
g65
NtRp2189
(dp2190
g68
(dp2191
g76
I3
ssg77
g2185
sg70
(lp2192
S'99'
p2193
asbasbasbag63
(g79
g65
NtRp2194
(dp2195
g68
(dp2196
sg77
g2165
sg70
(lp2197
g63
(g84
g65
NtRp2198
(dp2199
g68
(dp2200
sg77
g2194
sg70
(lp2201
g63
(g64
g65
NtRp2202
(dp2203
g68
(dp2204
g76
I3
ssg77
g2198
sg70
(lp2205
S'4'
asbasbasbag63
(g79
g65
NtRp2206
(dp2207
g68
(dp2208
sg77
g2165
sg70
(lp2209
g63
(g84
g65
NtRp2210
(dp2211
g68
(dp2212
sg77
g2206
sg70
(lp2213
g63
(g64
g65
NtRp2214
(dp2215
g68
(dp2216
g76
I3
ssg77
g2210
sg70
(lp2217
S'datetime.datetime(2011, 12, 14, 14, 46, 14)'
p2218
asbasbasbag63
(g79
g65
NtRp2219
(dp2220
g68
(dp2221
sg77
g2165
sg70
(lp2222
g63
(g84
g65
NtRp2223
(dp2224
g68
(dp2225
sg77
g2219
sg70
(lp2226
g63
(g64
g65
NtRp2227
(dp2228
g68
(dp2229
g76
I3
ssg77
g2223
sg70
(lp2230
g1643
asbasbasbasbasbasbasbasbasbasbasbag63
(g79
g65
NtRp2231
(dp2232
g68
(dp2233
sg77
g73
sg70
(lp2234
g63
(g84
g65
NtRp2235
(dp2236
g68
(dp2237
g88
g89
ssg77
g2231
sg70
(lp2238
S'is_https'
p2239
asbag63
(g84
g65
NtRp2240
(dp2241
g68
(dp2242
g95
g96
ssg77
g2231
sg70
(lp2243
S':'
asbag63
(g84
g65
NtRp2244
(dp2245
g68
(dp2246
sg77
g2231
sg70
(lp2247
g63
(g64
g65
NtRp2248
(dp2249
g68
(dp2250
g76
I5
ssg77
g2244
sg70
(lp2251
g106
asbasbasbag63
(g79
g65
NtRp2252
(dp2253
g68
(dp2254
sg77
g73
sg70
(lp2255
g63
(g84
g65
NtRp2256
(dp2257
g68
(dp2258
g88
g89
ssg77
g2252
sg70
(lp2259
S'is_local'
p2260
asbag63
(g84
g65
NtRp2261
(dp2262
g68
(dp2263
g95
g96
ssg77
g2252
sg70
(lp2264
S':'
asbag63
(g84
g65
NtRp2265
(dp2266
g68
(dp2267
sg77
g2252
sg70
(lp2268
g63
(g64
g65
NtRp2269
(dp2270
g68
(dp2271
g76
I5
ssg77
g2265
sg70
(lp2272
g106
asbasbasbag63
(g79
g65
NtRp2273
(dp2274
g68
(dp2275
sg77
g73
sg70
(lp2276
g63
(g84
g65
NtRp2277
(dp2278
g68
(dp2279
g88
g89
ssg77
g2273
sg70
(lp2280
S'is_restful'
p2281
asbag63
(g84
g65
NtRp2282
(dp2283
g68
(dp2284
g95
g96
ssg77
g2273
sg70
(lp2285
S':'
asbag63
(g84
g65
NtRp2286
(dp2287
g68
(dp2288
sg77
g2273
sg70
(lp2289
g63
(g64
g65
NtRp2290
(dp2291
g68
(dp2292
g76
I5
ssg77
g2286
sg70
(lp2293
g106
asbasbasbag63
(g79
g65
NtRp2294
(dp2295
g68
(dp2296
sg77
g73
sg70
(lp2297
g63
(g84
g65
NtRp2298
(dp2299
g68
(dp2300
g88
g89
ssg77
g2294
sg70
(lp2301
S'now'
p2302
asbag63
(g84
g65
NtRp2303
(dp2304
g68
(dp2305
g95
g96
ssg77
g2294
sg70
(lp2306
S':'
asbag63
(g84
g65
NtRp2307
(dp2308
g68
(dp2309
sg77
g2294
sg70
(lp2310
g63
(g64
g65
NtRp2311
(dp2312
g68
(dp2313
g76
I5
ssg77
g2307
sg70
(lp2314
S'datetime.datetime(2012, 11, 23, 19, 2, 58, 138290)'
p2315
asbasbasbag63
(g79
g65
NtRp2316
(dp2317
g68
(dp2318
sg77
g73
sg70
(lp2319
g63
(g84
g65
NtRp2320
(dp2321
g68
(dp2322
g88
g89
ssg77
g2316
sg70
(lp2323
S'post_vars'
p2324
asbag63
(g84
g65
NtRp2325
(dp2326
g68
(dp2327
g95
g96
ssg77
g2316
sg70
(lp2328
S':'
asbag63
(g84
g65
NtRp2329
(dp2330
g68
(dp2331
sg77
g2316
sg70
(lp2332
g63
(g64
g65
NtRp2333
(dp2334
g68
(dp2335
g76
I5
ssg77
g2329
sg70
(lp2336
g63
(g72
g65
NtRp2337
(dp2338
g68
(dp2339
g76
I4
ssg77
Nsg70
(lp2340
g63
(g79
g65
NtRp2341
(dp2342
g68
(dp2343
sg77
g2337
sg70
(lp2344
g63
(g84
g65
NtRp2345
(dp2346
g68
(dp2347
g88
g89
ssg77
g2341
sg70
(lp2348
S'file'
p2349
asbag63
(g84
g65
NtRp2350
(dp2351
g68
(dp2352
g95
g96
ssg77
g2341
sg70
(lp2353
S':'
asbag63
(g84
g65
NtRp2354
(dp2355
g68
(dp2356
sg77
g2341
sg70
(lp2357
g63
(g64
g65
NtRp2358
(dp2359
g68
(dp2360
g76
I4
ssg77
g2354
sg70
(lp2361
S'FieldStorage object'
p2362
asbasbasbasbasbasbasbag63
(g79
g65
NtRp2363
(dp2364
g68
(dp2365
sg77
g73
sg70
(lp2366
g63
(g84
g65
NtRp2367
(dp2368
g68
(dp2369
g88
g89
ssg77
g2363
sg70
(lp2370
S'url'
p2371
asbag63
(g84
g65
NtRp2372
(dp2373
g68
(dp2374
g95
g96
ssg77
g2363
sg70
(lp2375
S':'
asbag63
(g84
g65
NtRp2376
(dp2377
g68
(dp2378
sg77
g2363
sg70
(lp2379
g63
(g64
g65
NtRp2380
(dp2381
g68
(dp2382
g76
I5
ssg77
g2376
sg70
(lp2383
S'/web2py/Threads_Beta/default/judge'
p2384
asbasbasbag63
(g79
g65
NtRp2385
(dp2386
g68
(dp2387
sg77
g73
sg70
(lp2388
g63
(g84
g65
NtRp2389
(dp2390
g68
(dp2391
g88
g89
ssg77
g2385
sg70
(lp2392
S'utcnow'
p2393
asbag63
(g84
g65
NtRp2394
(dp2395
g68
(dp2396
g95
g96
ssg77
g2385
sg70
(lp2397
S':'
asbag63
(g84
g65
NtRp2398
(dp2399
g68
(dp2400
sg77
g2385
sg70
(lp2401
g63
(g64
g65
NtRp2402
(dp2403
g68
(dp2404
g76
I5
ssg77
g2398
sg70
(lp2405
S'datetime.datetime(2012, 11, 23, 13, 32, 58, 138316)'
p2406
asbasbasbag63
(g79
g65
NtRp2407
(dp2408
g68
(dp2409
sg77
g73
sg70
(lp2410
g63
(g84
g65
NtRp2411
(dp2412
g68
(dp2413
g88
g89
ssg77
g2407
sg70
(lp2414
S'uuid'
p2415
asbag63
(g84
g65
NtRp2416
(dp2417
g68
(dp2418
g95
g96
ssg77
g2407
sg70
(lp2419
S':'
asbag63
(g84
g65
NtRp2420
(dp2421
g68
(dp2422
sg77
g2407
sg70
(lp2423
g63
(g64
g65
NtRp2424
(dp2425
g68
(dp2426
g76
I5
ssg77
g2420
sg70
(lp2427
S'Threads_Beta/10.1.34.61.2012-11-23.19-02-58.e16ddb31-7c2d-4df0-ad51-74e5d34669a2'
p2428
asbasbasbag63
(g79
g65
NtRp2429
(dp2430
g68
(dp2431
sg77
g73
sg70
(lp2432
g63
(g84
g65
NtRp2433
(dp2434
g68
(dp2435
g88
g89
ssg77
g2429
sg70
(lp2436
S'vars'
p2437
asbag63
(g84
g65
NtRp2438
(dp2439
g68
(dp2440
g95
g96
ssg77
g2429
sg70
(lp2441
S':'
asbag63
(g84
g65
NtRp2442
(dp2443
g68
(dp2444
sg77
g2429
sg70
(lp2445
g63
(g64
g65
NtRp2446
(dp2447
g68
(dp2448
g76
I5
ssg77
g2442
sg70
(lp2449
g63
(g72
g65
NtRp2450
(dp2451
g68
(dp2452
g76
I4
ssg77
Nsg70
(lp2453
g63
(g79
g65
NtRp2454
(dp2455
g68
(dp2456
sg77
g2450
sg70
(lp2457
g63
(g84
g65
NtRp2458
(dp2459
g68
(dp2460
g88
g89
ssg77
g2454
sg70
(lp2461
g1944
asbag63
(g84
g65
NtRp2462
(dp2463
g68
(dp2464
g95
g96
ssg77
g2454
sg70
(lp2465
S':'
asbag63
(g84
g65
NtRp2466
(dp2467
g68
(dp2468
sg77
g2454
sg70
(lp2469
g63
(g64
g65
NtRp2470
(dp2471
g68
(dp2472
g76
I4
ssg77
g2466
sg70
(lp2473
S'1'
asbasbasbag63
(g79
g65
NtRp2474
(dp2475
g68
(dp2476
sg77
g2450
sg70
(lp2477
g63
(g84
g65
NtRp2478
(dp2479
g68
(dp2480
g88
g89
ssg77
g2474
sg70
(lp2481
g2349
asbag63
(g84
g65
NtRp2482
(dp2483
g68
(dp2484
g95
g96
ssg77
g2474
sg70
(lp2485
S':'
asbag63
(g84
g65
NtRp2486
(dp2487
g68
(dp2488
sg77
g2474
sg70
(lp2489
g63
(g64
g65
NtRp2490
(dp2491
g68
(dp2492
g76
I4
ssg77
g2486
sg70
(lp2493
g2362
asbasbasbag63
(g79
g65
NtRp2494
(dp2495
g68
(dp2496
sg77
g2450
sg70
(lp2497
g63
(g84
g65
NtRp2498
(dp2499
g68
(dp2500
g88
g89
ssg77
g2494
sg70
(lp2501
g1965
asbag63
(g84
g65
NtRp2502
(dp2503
g68
(dp2504
g95
g96
ssg77
g2494
sg70
(lp2505
S':'
asbag63
(g84
g65
NtRp2506
(dp2507
g68
(dp2508
sg77
g2494
sg70
(lp2509
g63
(g64
g65
NtRp2510
(dp2511
g68
(dp2512
g76
I4
ssg77
g2506
sg70
(lp2513
S'3'
asbasbasbasbasbasbasbag63
(g79
g65
NtRp2514
(dp2515
g68
(dp2516
sg77
g73
sg70
(lp2517
g63
(g84
g65
NtRp2518
(dp2519
g68
(dp2520
g88
g89
ssg77
g2514
sg70
(lp2521
S'wsgi'
p2522
asbag63
(g84
g65
NtRp2523
(dp2524
g68
(dp2525
g95
g96
ssg77
g2514
sg70
(lp2526
S':'
asbag63
(g84
g65
NtRp2527
(dp2528
g68
(dp2529
sg77
g2514
sg70
(lp2530
g63
(g64
g65
NtRp2531
(dp2532
g68
(dp2533
g76
I5
ssg77
g2527
sg70
(lp2534
g63
(g72
g65
NtRp2535
(dp2536
g68
(dp2537
g76
I4
ssg77
Nsg70
(lp2538
g63
(g79
g65
NtRp2539
(dp2540
g68
(dp2541
sg77
g2535
sg70
(lp2542
g63
(g84
g65
NtRp2543
(dp2544
g68
(dp2545
g88
g89
ssg77
g2539
sg70
(lp2546
S'environ'
p2547
asbag63
(g84
g65
NtRp2548
(dp2549
g68
(dp2550
g95
g96
ssg77
g2539
sg70
(lp2551
S':'
asbag63
(g84
g65
NtRp2552
(dp2553
g68
(dp2554
sg77
g2539
sg70
(lp2555
g63
(g64
g65
NtRp2556
(dp2557
g68
(dp2558
g76
I4
ssg77
g2552
sg70
(lp2559
g63
(g72
g65
NtRp2560
(dp2561
g68
(dp2562
g76
I3
ssg77
Nsg70
(lp2563
g63
(g79
g65
NtRp2564
(dp2565
g68
(dp2566
sg77
g2560
sg70
(lp2567
g63
(g84
g65
NtRp2568
(dp2569
g68
(dp2570
g88
g89
ssg77
g2564
sg70
(lp2571
S'CONTENT_LENGTH'
p2572
asbag63
(g84
g65
NtRp2573
(dp2574
g68
(dp2575
g95
g96
ssg77
g2564
sg70
(lp2576
S':'
asbag63
(g84
g65
NtRp2577
(dp2578
g68
(dp2579
sg77
g2564
sg70
(lp2580
g63
(g64
g65
NtRp2581
(dp2582
g68
(dp2583
g76
I3
ssg77
g2577
sg70
(lp2584
g527
asbasbasbag63
(g79
g65
NtRp2585
(dp2586
g68
(dp2587
sg77
g2560
sg70
(lp2588
g63
(g84
g65
NtRp2589
(dp2590
g68
(dp2591
g88
g89
ssg77
g2585
sg70
(lp2592
S'CONTENT_TYPE'
p2593
asbag63
(g84
g65
NtRp2594
(dp2595
g68
(dp2596
g95
g96
ssg77
g2585
sg70
(lp2597
S':'
asbag63
(g84
g65
NtRp2598
(dp2599
g68
(dp2600
sg77
g2585
sg70
(lp2601
g63
(g64
g65
NtRp2602
(dp2603
g68
(dp2604
g76
I3
ssg77
g2598
sg70
(lp2605
g549
asbasbasbag63
(g79
g65
NtRp2606
(dp2607
g68
(dp2608
sg77
g2560
sg70
(lp2609
g63
(g84
g65
NtRp2610
(dp2611
g68
(dp2612
g88
g89
ssg77
g2606
sg70
(lp2613
S'DOCUMENT_ROOT'
p2614
asbag63
(g84
g65
NtRp2615
(dp2616
g68
(dp2617
g95
g96
ssg77
g2606
sg70
(lp2618
S':'
asbag63
(g84
g65
NtRp2619
(dp2620
g68
(dp2621
sg77
g2606
sg70
(lp2622
g63
(g64
g65
NtRp2623
(dp2624
g68
(dp2625
g76
I3
ssg77
g2619
sg70
(lp2626
g614
asbasbasbag63
(g79
g65
NtRp2627
(dp2628
g68
(dp2629
sg77
g2560
sg70
(lp2630
g63
(g84
g65
NtRp2631
(dp2632
g68
(dp2633
g88
g89
ssg77
g2627
sg70
(lp2634
S'GATEWAY_INTERFACE'
p2635
asbag63
(g84
g65
NtRp2636
(dp2637
g68
(dp2638
g95
g96
ssg77
g2627
sg70
(lp2639
S':'
asbag63
(g84
g65
NtRp2640
(dp2641
g68
(dp2642
sg77
g2627
sg70
(lp2643
g63
(g64
g65
NtRp2644
(dp2645
g68
(dp2646
g76
I3
ssg77
g2640
sg70
(lp2647
g636
asbasbasbag63
(g79
g65
NtRp2648
(dp2649
g68
(dp2650
sg77
g2560
sg70
(lp2651
g63
(g84
g65
NtRp2652
(dp2653
g68
(dp2654
g88
g89
ssg77
g2648
sg70
(lp2655
S'HTTP_ACCEPT'
p2656
asbag63
(g84
g65
NtRp2657
(dp2658
g68
(dp2659
g95
g96
ssg77
g2648
sg70
(lp2660
S':'
asbag63
(g84
g65
NtRp2661
(dp2662
g68
(dp2663
sg77
g2648
sg70
(lp2664
g63
(g64
g65
NtRp2665
(dp2666
g68
(dp2667
g76
I3
ssg77
g2661
sg70
(lp2668
g679
asbasbasbag63
(g79
g65
NtRp2669
(dp2670
g68
(dp2671
sg77
g2560
sg70
(lp2672
g63
(g84
g65
NtRp2673
(dp2674
g68
(dp2675
g88
g89
ssg77
g2669
sg70
(lp2676
S'HTTP_ACCEPT_ENCODING'
p2677
asbag63
(g84
g65
NtRp2678
(dp2679
g68
(dp2680
g95
g96
ssg77
g2669
sg70
(lp2681
S':'
asbag63
(g84
g65
NtRp2682
(dp2683
g68
(dp2684
sg77
g2669
sg70
(lp2685
g63
(g64
g65
NtRp2686
(dp2687
g68
(dp2688
g76
I3
ssg77
g2682
sg70
(lp2689
g701
asbasbasbag63
(g79
g65
NtRp2690
(dp2691
g68
(dp2692
sg77
g2560
sg70
(lp2693
g63
(g84
g65
NtRp2694
(dp2695
g68
(dp2696
g88
g89
ssg77
g2690
sg70
(lp2697
S'HTTP_ACCEPT_LANGUAGE'
p2698
asbag63
(g84
g65
NtRp2699
(dp2700
g68
(dp2701
g95
g96
ssg77
g2690
sg70
(lp2702
S':'
asbag63
(g84
g65
NtRp2703
(dp2704
g68
(dp2705
sg77
g2690
sg70
(lp2706
g63
(g64
g65
NtRp2707
(dp2708
g68
(dp2709
g76
I3
ssg77
g2703
sg70
(lp2710
g723
asbasbasbag63
(g79
g65
NtRp2711
(dp2712
g68
(dp2713
sg77
g2560
sg70
(lp2714
g63
(g84
g65
NtRp2715
(dp2716
g68
(dp2717
g88
g89
ssg77
g2711
sg70
(lp2718
S'HTTP_CACHE_CONTROL'
p2719
asbag63
(g84
g65
NtRp2720
(dp2721
g68
(dp2722
g95
g96
ssg77
g2711
sg70
(lp2723
S':'
asbag63
(g84
g65
NtRp2724
(dp2725
g68
(dp2726
sg77
g2711
sg70
(lp2727
g63
(g64
g65
NtRp2728
(dp2729
g68
(dp2730
g76
I3
ssg77
g2724
sg70
(lp2731
g745
asbasbasbag63
(g79
g65
NtRp2732
(dp2733
g68
(dp2734
sg77
g2560
sg70
(lp2735
g63
(g84
g65
NtRp2736
(dp2737
g68
(dp2738
g88
g89
ssg77
g2732
sg70
(lp2739
S'HTTP_CONNECTION'
p2740
asbag63
(g84
g65
NtRp2741
(dp2742
g68
(dp2743
g95
g96
ssg77
g2732
sg70
(lp2744
S':'
asbag63
(g84
g65
NtRp2745
(dp2746
g68
(dp2747
sg77
g2732
sg70
(lp2748
g63
(g64
g65
NtRp2749
(dp2750
g68
(dp2751
g76
I3
ssg77
g2745
sg70
(lp2752
g767
asbasbasbag63
(g79
g65
NtRp2753
(dp2754
g68
(dp2755
sg77
g2560
sg70
(lp2756
g63
(g84
g65
NtRp2757
(dp2758
g68
(dp2759
g88
g89
ssg77
g2753
sg70
(lp2760
S'HTTP_COOKIE'
p2761
asbag63
(g84
g65
NtRp2762
(dp2763
g68
(dp2764
g95
g96
ssg77
g2753
sg70
(lp2765
S':'
asbag63
(g84
g65
NtRp2766
(dp2767
g68
(dp2768
sg77
g2753
sg70
(lp2769
g63
(g64
g65
NtRp2770
(dp2771
g68
(dp2772
g76
I3
ssg77
g2766
sg70
(lp2773
g789
asbasbasbag63
(g79
g65
NtRp2774
(dp2775
g68
(dp2776
sg77
g2560
sg70
(lp2777
g63
(g84
g65
NtRp2778
(dp2779
g68
(dp2780
g88
g89
ssg77
g2774
sg70
(lp2781
S'HTTP_HOST'
p2782
asbag63
(g84
g65
NtRp2783
(dp2784
g68
(dp2785
g95
g96
ssg77
g2774
sg70
(lp2786
S':'
asbag63
(g84
g65
NtRp2787
(dp2788
g68
(dp2789
sg77
g2774
sg70
(lp2790
g63
(g64
g65
NtRp2791
(dp2792
g68
(dp2793
g76
I3
ssg77
g2787
sg70
(lp2794
g811
asbasbasbag63
(g79
g65
NtRp2795
(dp2796
g68
(dp2797
sg77
g2560
sg70
(lp2798
g63
(g84
g65
NtRp2799
(dp2800
g68
(dp2801
g88
g89
ssg77
g2795
sg70
(lp2802
S'HTTP_PRAGMA'
p2803
asbag63
(g84
g65
NtRp2804
(dp2805
g68
(dp2806
g95
g96
ssg77
g2795
sg70
(lp2807
S':'
asbag63
(g84
g65
NtRp2808
(dp2809
g68
(dp2810
sg77
g2795
sg70
(lp2811
g63
(g64
g65
NtRp2812
(dp2813
g68
(dp2814
g76
I3
ssg77
g2808
sg70
(lp2815
g833
asbasbasbag63
(g79
g65
NtRp2816
(dp2817
g68
(dp2818
sg77
g2560
sg70
(lp2819
g63
(g84
g65
NtRp2820
(dp2821
g68
(dp2822
g88
g89
ssg77
g2816
sg70
(lp2823
S'HTTP_REFERER'
p2824
asbag63
(g84
g65
NtRp2825
(dp2826
g68
(dp2827
g95
g96
ssg77
g2816
sg70
(lp2828
S':'
asbag63
(g84
g65
NtRp2829
(dp2830
g68
(dp2831
sg77
g2816
sg70
(lp2832
g63
(g64
g65
NtRp2833
(dp2834
g68
(dp2835
g76
I3
ssg77
g2829
sg70
(lp2836
g855
asbasbasbag63
(g79
g65
NtRp2837
(dp2838
g68
(dp2839
sg77
g2560
sg70
(lp2840
g63
(g84
g65
NtRp2841
(dp2842
g68
(dp2843
g88
g89
ssg77
g2837
sg70
(lp2844
S'HTTP_USER_AGENT'
p2845
asbag63
(g84
g65
NtRp2846
(dp2847
g68
(dp2848
g95
g96
ssg77
g2837
sg70
(lp2849
S':'
asbag63
(g84
g65
NtRp2850
(dp2851
g68
(dp2852
sg77
g2837
sg70
(lp2853
g63
(g64
g65
NtRp2854
(dp2855
g68
(dp2856
g76
I3
ssg77
g2850
sg70
(lp2857
g877
asbasbasbag63
(g79
g65
NtRp2858
(dp2859
g68
(dp2860
sg77
g2560
sg70
(lp2861
g63
(g84
g65
NtRp2862
(dp2863
g68
(dp2864
g88
g89
ssg77
g2858
sg70
(lp2865
S'PATH_INFO'
p2866
asbag63
(g84
g65
NtRp2867
(dp2868
g68
(dp2869
g95
g96
ssg77
g2858
sg70
(lp2870
S':'
asbag63
(g84
g65
NtRp2871
(dp2872
g68
(dp2873
sg77
g2858
sg70
(lp2874
g63
(g64
g65
NtRp2875
(dp2876
g68
(dp2877
g76
I3
ssg77
g2871
sg70
(lp2878
g1184
asbasbasbag63
(g79
g65
NtRp2879
(dp2880
g68
(dp2881
sg77
g2560
sg70
(lp2882
g63
(g84
g65
NtRp2883
(dp2884
g68
(dp2885
g88
g89
ssg77
g2879
sg70
(lp2886
S'PATH_TRANSLATED'
p2887
asbag63
(g84
g65
NtRp2888
(dp2889
g68
(dp2890
g95
g96
ssg77
g2879
sg70
(lp2891
S':'
asbag63
(g84
g65
NtRp2892
(dp2893
g68
(dp2894
sg77
g2879
sg70
(lp2895
g63
(g64
g65
NtRp2896
(dp2897
g68
(dp2898
g76
I3
ssg77
g2892
sg70
(lp2899
g1206
asbasbasbag63
(g79
g65
NtRp2900
(dp2901
g68
(dp2902
sg77
g2560
sg70
(lp2903
g63
(g84
g65
NtRp2904
(dp2905
g68
(dp2906
g88
g89
ssg77
g2900
sg70
(lp2907
S'QUERY_STRING'
p2908
asbag63
(g84
g65
NtRp2909
(dp2910
g68
(dp2911
g95
g96
ssg77
g2900
sg70
(lp2912
S':'
asbag63
(g84
g65
NtRp2913
(dp2914
g68
(dp2915
sg77
g2900
sg70
(lp2916
g63
(g64
g65
NtRp2917
(dp2918
g68
(dp2919
g76
I3
ssg77
g2913
sg70
(lp2920
g1228
asbasbasbag63
(g79
g65
NtRp2921
(dp2922
g68
(dp2923
sg77
g2560
sg70
(lp2924
g63
(g84
g65
NtRp2925
(dp2926
g68
(dp2927
g88
g89
ssg77
g2921
sg70
(lp2928
S'REMOTE_ADDR'
p2929
asbag63
(g84
g65
NtRp2930
(dp2931
g68
(dp2932
g95
g96
ssg77
g2921
sg70
(lp2933
S':'
asbag63
(g84
g65
NtRp2934
(dp2935
g68
(dp2936
sg77
g2921
sg70
(lp2937
g63
(g64
g65
NtRp2938
(dp2939
g68
(dp2940
g76
I3
ssg77
g2934
sg70
(lp2941
g196
asbasbasbag63
(g79
g65
NtRp2942
(dp2943
g68
(dp2944
sg77
g2560
sg70
(lp2945
g63
(g84
g65
NtRp2946
(dp2947
g68
(dp2948
g88
g89
ssg77
g2942
sg70
(lp2949
S'REMOTE_PORT'
p2950
asbag63
(g84
g65
NtRp2951
(dp2952
g68
(dp2953
g95
g96
ssg77
g2942
sg70
(lp2954
S':'
asbag63
(g84
g65
NtRp2955
(dp2956
g68
(dp2957
sg77
g2942
sg70
(lp2958
g63
(g64
g65
NtRp2959
(dp2960
g68
(dp2961
g76
I3
ssg77
g2955
sg70
(lp2962
g1271
asbasbasbag63
(g79
g65
NtRp2963
(dp2964
g68
(dp2965
sg77
g2560
sg70
(lp2966
g63
(g84
g65
NtRp2967
(dp2968
g68
(dp2969
g88
g89
ssg77
g2963
sg70
(lp2970
S'REQUEST_METHOD'
p2971
asbag63
(g84
g65
NtRp2972
(dp2973
g68
(dp2974
g95
g96
ssg77
g2963
sg70
(lp2975
S':'
asbag63
(g84
g65
NtRp2976
(dp2977
g68
(dp2978
sg77
g2963
sg70
(lp2979
g63
(g64
g65
NtRp2980
(dp2981
g68
(dp2982
g76
I3
ssg77
g2976
sg70
(lp2983
g1293
asbasbasbag63
(g79
g65
NtRp2984
(dp2985
g68
(dp2986
sg77
g2560
sg70
(lp2987
g63
(g84
g65
NtRp2988
(dp2989
g68
(dp2990
g88
g89
ssg77
g2984
sg70
(lp2991
S'REQUEST_URI'
p2992
asbag63
(g84
g65
NtRp2993
(dp2994
g68
(dp2995
g95
g96
ssg77
g2984
sg70
(lp2996
S':'
asbag63
(g84
g65
NtRp2997
(dp2998
g68
(dp2999
sg77
g2984
sg70
(lp3000
g63
(g64
g65
NtRp3001
(dp3002
g68
(dp3003
g76
I3
ssg77
g2997
sg70
(lp3004
g1315
asbasbasbag63
(g79
g65
NtRp3005
(dp3006
g68
(dp3007
sg77
g2560
sg70
(lp3008
g63
(g84
g65
NtRp3009
(dp3010
g68
(dp3011
g88
g89
ssg77
g3005
sg70
(lp3012
S'SCRIPT_FILENAME'
p3013
asbag63
(g84
g65
NtRp3014
(dp3015
g68
(dp3016
g95
g96
ssg77
g3005
sg70
(lp3017
S':'
asbag63
(g84
g65
NtRp3018
(dp3019
g68
(dp3020
sg77
g3005
sg70
(lp3021
g63
(g64
g65
NtRp3022
(dp3023
g68
(dp3024
g76
I3
ssg77
g3018
sg70
(lp3025
g1337
asbasbasbag63
(g79
g65
NtRp3026
(dp3027
g68
(dp3028
sg77
g2560
sg70
(lp3029
g63
(g84
g65
NtRp3030
(dp3031
g68
(dp3032
g88
g89
ssg77
g3026
sg70
(lp3033
S'SCRIPT_NAME'
p3034
asbag63
(g84
g65
NtRp3035
(dp3036
g68
(dp3037
g95
g96
ssg77
g3026
sg70
(lp3038
S':'
asbag63
(g84
g65
NtRp3039
(dp3040
g68
(dp3041
sg77
g3026
sg70
(lp3042
g63
(g64
g65
NtRp3043
(dp3044
g68
(dp3045
g76
I3
ssg77
g3039
sg70
(lp3046
g1359
asbasbasbag63
(g79
g65
NtRp3047
(dp3048
g68
(dp3049
sg77
g2560
sg70
(lp3050
g63
(g84
g65
NtRp3051
(dp3052
g68
(dp3053
g88
g89
ssg77
g3047
sg70
(lp3054
S'SERVER_ADDR'
p3055
asbag63
(g84
g65
NtRp3056
(dp3057
g68
(dp3058
g95
g96
ssg77
g3047
sg70
(lp3059
S':'
asbag63
(g84
g65
NtRp3060
(dp3061
g68
(dp3062
sg77
g3047
sg70
(lp3063
g63
(g64
g65
NtRp3064
(dp3065
g68
(dp3066
g76
I3
ssg77
g3060
sg70
(lp3067
g1381
asbasbasbag63
(g79
g65
NtRp3068
(dp3069
g68
(dp3070
sg77
g2560
sg70
(lp3071
g63
(g84
g65
NtRp3072
(dp3073
g68
(dp3074
g88
g89
ssg77
g3068
sg70
(lp3075
S'SERVER_ADMIN'
p3076
asbag63
(g84
g65
NtRp3077
(dp3078
g68
(dp3079
g95
g96
ssg77
g3068
sg70
(lp3080
S':'
asbag63
(g84
g65
NtRp3081
(dp3082
g68
(dp3083
sg77
g3068
sg70
(lp3084
g63
(g64
g65
NtRp3085
(dp3086
g68
(dp3087
g76
I3
ssg77
g3081
sg70
(lp3088
g1403
asbasbasbag63
(g79
g65
NtRp3089
(dp3090
g68
(dp3091
sg77
g2560
sg70
(lp3092
g63
(g84
g65
NtRp3093
(dp3094
g68
(dp3095
g88
g89
ssg77
g3089
sg70
(lp3096
S'SERVER_NAME'
p3097
asbag63
(g84
g65
NtRp3098
(dp3099
g68
(dp3100
g95
g96
ssg77
g3089
sg70
(lp3101
S':'
asbag63
(g84
g65
NtRp3102
(dp3103
g68
(dp3104
sg77
g3089
sg70
(lp3105
g63
(g64
g65
NtRp3106
(dp3107
g68
(dp3108
g76
I3
ssg77
g3102
sg70
(lp3109
g1425
asbasbasbag63
(g79
g65
NtRp3110
(dp3111
g68
(dp3112
sg77
g2560
sg70
(lp3113
g63
(g84
g65
NtRp3114
(dp3115
g68
(dp3116
g88
g89
ssg77
g3110
sg70
(lp3117
S'SERVER_PORT'
p3118
asbag63
(g84
g65
NtRp3119
(dp3120
g68
(dp3121
g95
g96
ssg77
g3110
sg70
(lp3122
S':'
asbag63
(g84
g65
NtRp3123
(dp3124
g68
(dp3125
sg77
g3110
sg70
(lp3126
g63
(g64
g65
NtRp3127
(dp3128
g68
(dp3129
g76
I3
ssg77
g3123
sg70
(lp3130
g1447
asbasbasbag63
(g79
g65
NtRp3131
(dp3132
g68
(dp3133
sg77
g2560
sg70
(lp3134
g63
(g84
g65
NtRp3135
(dp3136
g68
(dp3137
g88
g89
ssg77
g3131
sg70
(lp3138
S'SERVER_PROTOCOL'
p3139
asbag63
(g84
g65
NtRp3140
(dp3141
g68
(dp3142
g95
g96
ssg77
g3131
sg70
(lp3143
S':'
asbag63
(g84
g65
NtRp3144
(dp3145
g68
(dp3146
sg77
g3131
sg70
(lp3147
g63
(g64
g65
NtRp3148
(dp3149
g68
(dp3150
g76
I3
ssg77
g3144
sg70
(lp3151
g1469
asbasbasbag63
(g79
g65
NtRp3152
(dp3153
g68
(dp3154
sg77
g2560
sg70
(lp3155
g63
(g84
g65
NtRp3156
(dp3157
g68
(dp3158
g88
g89
ssg77
g3152
sg70
(lp3159
S'SERVER_SIGNATURE'
p3160
asbag63
(g84
g65
NtRp3161
(dp3162
g68
(dp3163
g95
g96
ssg77
g3152
sg70
(lp3164
S':'
asbag63
(g84
g65
NtRp3165
(dp3166
g68
(dp3167
sg77
g3152
sg70
(lp3168
g63
(g64
g65
NtRp3169
(dp3170
g68
(dp3171
g76
I3
ssg77
g3165
sg70
(lp3172
S''
asbasbasbag63
(g79
g65
NtRp3173
(dp3174
g68
(dp3175
sg77
g2560
sg70
(lp3176
g63
(g84
g65
NtRp3177
(dp3178
g68
(dp3179
g88
g89
ssg77
g3173
sg70
(lp3180
S'SERVER_SOFTWARE'
p3181
asbag63
(g84
g65
NtRp3182
(dp3183
g68
(dp3184
g95
g96
ssg77
g3173
sg70
(lp3185
S':'
asbag63
(g84
g65
NtRp3186
(dp3187
g68
(dp3188
sg77
g3173
sg70
(lp3189
g63
(g64
g65
NtRp3190
(dp3191
g68
(dp3192
g76
I3
ssg77
g3186
sg70
(lp3193
g1512
asbasbasbag63
(g79
g65
NtRp3194
(dp3195
g68
(dp3196
sg77
g2560
sg70
(lp3197
g63
(g84
g65
NtRp3198
(dp3199
g68
(dp3200
g88
g89
ssg77
g3194
sg70
(lp3201
S'WEB2PY_ORIGINAL_URI'
p3202
asbag63
(g84
g65
NtRp3203
(dp3204
g68
(dp3205
g95
g96
ssg77
g3194
sg70
(lp3206
S':'
asbag63
(g84
g65
NtRp3207
(dp3208
g68
(dp3209
sg77
g3194
sg70
(lp3210
g63
(g64
g65
NtRp3211
(dp3212
g68
(dp3213
g76
I3
ssg77
g3207
sg70
(lp3214
g1534
asbasbasbag63
(g79
g65
NtRp3215
(dp3216
g68
(dp3217
sg77
g2560
sg70
(lp3218
g63
(g84
g65
NtRp3219
(dp3220
g68
(dp3221
g88
g89
ssg77
g3215
sg70
(lp3222
S'mod_wsgi.application_group'
p3223
asbag63
(g84
g65
NtRp3224
(dp3225
g68
(dp3226
g95
g96
ssg77
g3215
sg70
(lp3227
S':'
asbag63
(g84
g65
NtRp3228
(dp3229
g68
(dp3230
sg77
g3215
sg70
(lp3231
g63
(g64
g65
NtRp3232
(dp3233
g68
(dp3234
g76
I3
ssg77
g3228
sg70
(lp3235
g941
asbasbasbag63
(g79
g65
NtRp3236
(dp3237
g68
(dp3238
sg77
g2560
sg70
(lp3239
g63
(g84
g65
NtRp3240
(dp3241
g68
(dp3242
g88
g89
ssg77
g3236
sg70
(lp3243
S'mod_wsgi.callable_object'
p3244
asbag63
(g84
g65
NtRp3245
(dp3246
g68
(dp3247
g95
g96
ssg77
g3236
sg70
(lp3248
S':'
asbag63
(g84
g65
NtRp3249
(dp3250
g68
(dp3251
sg77
g3236
sg70
(lp3252
g63
(g64
g65
NtRp3253
(dp3254
g68
(dp3255
g76
I3
ssg77
g3249
sg70
(lp3256
g963
asbasbasbag63
(g79
g65
NtRp3257
(dp3258
g68
(dp3259
sg77
g2560
sg70
(lp3260
g63
(g84
g65
NtRp3261
(dp3262
g68
(dp3263
g88
g89
ssg77
g3257
sg70
(lp3264
S'mod_wsgi.handler_script'
p3265
asbag63
(g84
g65
NtRp3266
(dp3267
g68
(dp3268
g95
g96
ssg77
g3257
sg70
(lp3269
S':'
asbag63
(g84
g65
NtRp3270
(dp3271
g68
(dp3272
sg77
g3257
sg70
(lp3273
g63
(g64
g65
NtRp3274
(dp3275
g68
(dp3276
g76
I3
ssg77
g3270
sg70
(lp3277
S''
asbasbasbag63
(g79
g65
NtRp3278
(dp3279
g68
(dp3280
sg77
g2560
sg70
(lp3281
g63
(g84
g65
NtRp3282
(dp3283
g68
(dp3284
g88
g89
ssg77
g3278
sg70
(lp3285
S'mod_wsgi.input_chunked'
p3286
asbag63
(g84
g65
NtRp3287
(dp3288
g68
(dp3289
g95
g96
ssg77
g3278
sg70
(lp3290
S':'
asbag63
(g84
g65
NtRp3291
(dp3292
g68
(dp3293
sg77
g3278
sg70
(lp3294
g63
(g64
g65
NtRp3295
(dp3296
g68
(dp3297
g76
I3
ssg77
g3291
sg70
(lp3298
S'0'
asbasbasbag63
(g79
g65
NtRp3299
(dp3300
g68
(dp3301
sg77
g2560
sg70
(lp3302
g63
(g84
g65
NtRp3303
(dp3304
g68
(dp3305
g88
g89
ssg77
g3299
sg70
(lp3306
S'mod_wsgi.listener_host'
p3307
asbag63
(g84
g65
NtRp3308
(dp3309
g68
(dp3310
g95
g96
ssg77
g3299
sg70
(lp3311
S':'
asbag63
(g84
g65
NtRp3312
(dp3313
g68
(dp3314
sg77
g3299
sg70
(lp3315
g63
(g64
g65
NtRp3316
(dp3317
g68
(dp3318
g76
I3
ssg77
g3312
sg70
(lp3319
S''
asbasbasbag63
(g79
g65
NtRp3320
(dp3321
g68
(dp3322
sg77
g2560
sg70
(lp3323
g63
(g84
g65
NtRp3324
(dp3325
g68
(dp3326
g88
g89
ssg77
g3320
sg70
(lp3327
S'mod_wsgi.listener_port'
p3328
asbag63
(g84
g65
NtRp3329
(dp3330
g68
(dp3331
g95
g96
ssg77
g3320
sg70
(lp3332
S':'
asbag63
(g84
g65
NtRp3333
(dp3334
g68
(dp3335
sg77
g3320
sg70
(lp3336
g63
(g64
g65
NtRp3337
(dp3338
g68
(dp3339
g76
I3
ssg77
g3333
sg70
(lp3340
g1048
asbasbasbag63
(g79
g65
NtRp3341
(dp3342
g68
(dp3343
sg77
g2560
sg70
(lp3344
g63
(g84
g65
NtRp3345
(dp3346
g68
(dp3347
g88
g89
ssg77
g3341
sg70
(lp3348
S'mod_wsgi.process_group'
p3349
asbag63
(g84
g65
NtRp3350
(dp3351
g68
(dp3352
g95
g96
ssg77
g3341
sg70
(lp3353
S':'
asbag63
(g84
g65
NtRp3354
(dp3355
g68
(dp3356
sg77
g3341
sg70
(lp3357
g63
(g64
g65
NtRp3358
(dp3359
g68
(dp3360
g76
I3
ssg77
g3354
sg70
(lp3361
g1070
asbasbasbag63
(g79
g65
NtRp3362
(dp3363
g68
(dp3364
sg77
g2560
sg70
(lp3365
g63
(g84
g65
NtRp3366
(dp3367
g68
(dp3368
g88
g89
ssg77
g3362
sg70
(lp3369
S'mod_wsgi.request_handler'
p3370
asbag63
(g84
g65
NtRp3371
(dp3372
g68
(dp3373
g95
g96
ssg77
g3362
sg70
(lp3374
S':'
asbag63
(g84
g65
NtRp3375
(dp3376
g68
(dp3377
sg77
g3362
sg70
(lp3378
g63
(g64
g65
NtRp3379
(dp3380
g68
(dp3381
g76
I3
ssg77
g3375
sg70
(lp3382
g1092
asbasbasbag63
(g79
g65
NtRp3383
(dp3384
g68
(dp3385
sg77
g2560
sg70
(lp3386
g63
(g84
g65
NtRp3387
(dp3388
g68
(dp3389
g88
g89
ssg77
g3383
sg70
(lp3390
S'mod_wsgi.script_reloading'
p3391
asbag63
(g84
g65
NtRp3392
(dp3393
g68
(dp3394
g95
g96
ssg77
g3383
sg70
(lp3395
S':'
asbag63
(g84
g65
NtRp3396
(dp3397
g68
(dp3398
sg77
g3383
sg70
(lp3399
g63
(g64
g65
NtRp3400
(dp3401
g68
(dp3402
g76
I3
ssg77
g3396
sg70
(lp3403
S'1'
asbasbasbag63
(g79
g65
NtRp3404
(dp3405
g68
(dp3406
sg77
g2560
sg70
(lp3407
g63
(g84
g65
NtRp3408
(dp3409
g68
(dp3410
g88
g89
ssg77
g3404
sg70
(lp3411
S'mod_wsgi.version'
p3412
asbag63
(g84
g65
NtRp3413
(dp3414
g68
(dp3415
g95
g96
ssg77
g3404
sg70
(lp3416
S':'
asbag63
(g84
g65
NtRp3417
(dp3418
g68
(dp3419
sg77
g3404
sg70
(lp3420
g63
(g64
g65
NtRp3421
(dp3422
g68
(dp3423
g76
I3
ssg77
g3417
sg70
(lp3424
g63
(g72
g65
NtRp3425
(dp3426
g68
(dp3427
g76
I2
ssg77
Nsg70
(lp3428
g63
(g79
g65
NtRp3429
(dp3430
g68
(dp3431
sg77
g3425
sg70
(lp3432
g63
(g84
g65
NtRp3433
(dp3434
g68
(dp3435
sg77
g3429
sg70
(lp3436
g63
(g64
g65
NtRp3437
(dp3438
g68
(dp3439
g76
I2
ssg77
g3433
sg70
(lp3440
S'3'
asbasbasbag63
(g79
g65
NtRp3441
(dp3442
g68
(dp3443
sg77
g3425
sg70
(lp3444
g63
(g84
g65
NtRp3445
(dp3446
g68
(dp3447
sg77
g3441
sg70
(lp3448
g63
(g64
g65
NtRp3449
(dp3450
g68
(dp3451
g76
I2
ssg77
g3445
sg70
(lp3452
S'2'
asbasbasbasbasbasbasbag63
(g79
g65
NtRp3453
(dp3454
g68
(dp3455
sg77
g2560
sg70
(lp3456
g63
(g84
g65
NtRp3457
(dp3458
g68
(dp3459
g88
g89
ssg77
g3453
sg70
(lp3460
S'wsgi.errors'
p3461
asbag63
(g84
g65
NtRp3462
(dp3463
g68
(dp3464
g95
g96
ssg77
g3453
sg70
(lp3465
S':'
asbag63
(g84
g65
NtRp3466
(dp3467
g68
(dp3468
sg77
g3453
sg70
(lp3469
g63
(g64
g65
NtRp3470
(dp3471
g68
(dp3472
g76
I3
ssg77
g3466
sg70
(lp3473
S'<mod_wsgi.Log object at 0x7fba321beef0>'
p3474
asbasbasbag63
(g79
g65
NtRp3475
(dp3476
g68
(dp3477
sg77
g2560
sg70
(lp3478
g63
(g84
g65
NtRp3479
(dp3480
g68
(dp3481
g88
g89
ssg77
g3475
sg70
(lp3482
S'wsgi.file_wrapper'
p3483
asbag63
(g84
g65
NtRp3484
(dp3485
g68
(dp3486
g95
g96
ssg77
g3475
sg70
(lp3487
S':'
asbag63
(g84
g65
NtRp3488
(dp3489
g68
(dp3490
sg77
g3475
sg70
(lp3491
g63
(g64
g65
NtRp3492
(dp3493
g68
(dp3494
g76
I3
ssg77
g3488
sg70
(lp3495
S'<built-in method file_wrapper of mod_wsgi.Adapter object at 0x7fba20660be8>'
p3496
asbasbasbag63
(g79
g65
NtRp3497
(dp3498
g68
(dp3499
sg77
g2560
sg70
(lp3500
g63
(g84
g65
NtRp3501
(dp3502
g68
(dp3503
g88
g89
ssg77
g3497
sg70
(lp3504
S'wsgi.input'
p3505
asbag63
(g84
g65
NtRp3506
(dp3507
g68
(dp3508
g95
g96
ssg77
g3497
sg70
(lp3509
S':'
asbag63
(g84
g65
NtRp3510
(dp3511
g68
(dp3512
sg77
g3497
sg70
(lp3513
g63
(g64
g65
NtRp3514
(dp3515
g68
(dp3516
g76
I3
ssg77
g3510
sg70
(lp3517
S"<open file '<fdopen>', mode 'w+b' at 0x7fba28bd95d0>"
p3518
asbasbasbag63
(g79
g65
NtRp3519
(dp3520
g68
(dp3521
sg77
g2560
sg70
(lp3522
g63
(g84
g65
NtRp3523
(dp3524
g68
(dp3525
g88
g89
ssg77
g3519
sg70
(lp3526
S'wsgi.multiprocess'
p3527
asbag63
(g84
g65
NtRp3528
(dp3529
g68
(dp3530
g95
g96
ssg77
g3519
sg70
(lp3531
S':'
asbag63
(g84
g65
NtRp3532
(dp3533
g68
(dp3534
sg77
g3519
sg70
(lp3535
g63
(g64
g65
NtRp3536
(dp3537
g68
(dp3538
g76
I3
ssg77
g3532
sg70
(lp3539
g106
asbasbasbag63
(g79
g65
NtRp3540
(dp3541
g68
(dp3542
sg77
g2560
sg70
(lp3543
g63
(g84
g65
NtRp3544
(dp3545
g68
(dp3546
g88
g89
ssg77
g3540
sg70
(lp3547
S'wsgi.multithread'
p3548
asbag63
(g84
g65
NtRp3549
(dp3550
g68
(dp3551
g95
g96
ssg77
g3540
sg70
(lp3552
S':'
asbag63
(g84
g65
NtRp3553
(dp3554
g68
(dp3555
sg77
g3540
sg70
(lp3556
g63
(g64
g65
NtRp3557
(dp3558
g68
(dp3559
g76
I3
ssg77
g3553
sg70
(lp3560
g1752
asbasbasbag63
(g79
g65
NtRp3561
(dp3562
g68
(dp3563
sg77
g2560
sg70
(lp3564
g63
(g84
g65
NtRp3565
(dp3566
g68
(dp3567
g88
g89
ssg77
g3561
sg70
(lp3568
S'wsgi.run_once'
p3569
asbag63
(g84
g65
NtRp3570
(dp3571
g68
(dp3572
g95
g96
ssg77
g3561
sg70
(lp3573
S':'
asbag63
(g84
g65
NtRp3574
(dp3575
g68
(dp3576
sg77
g3561
sg70
(lp3577
g63
(g64
g65
NtRp3578
(dp3579
g68
(dp3580
g76
I3
ssg77
g3574
sg70
(lp3581
g106
asbasbasbag63
(g79
g65
NtRp3582
(dp3583
g68
(dp3584
sg77
g2560
sg70
(lp3585
g63
(g84
g65
NtRp3586
(dp3587
g68
(dp3588
g88
g89
ssg77
g3582
sg70
(lp3589
S'wsgi.url_scheme'
p3590
asbag63
(g84
g65
NtRp3591
(dp3592
g68
(dp3593
g95
g96
ssg77
g3582
sg70
(lp3594
S':'
asbag63
(g84
g65
NtRp3595
(dp3596
g68
(dp3597
sg77
g3582
sg70
(lp3598
g63
(g64
g65
NtRp3599
(dp3600
g68
(dp3601
g76
I3
ssg77
g3595
sg70
(lp3602
g1795
asbasbasbag63
(g79
g65
NtRp3603
(dp3604
g68
(dp3605
sg77
g2560
sg70
(lp3606
g63
(g84
g65
NtRp3607
(dp3608
g68
(dp3609
g88
g89
ssg77
g3603
sg70
(lp3610
S'wsgi.version'
p3611
asbag63
(g84
g65
NtRp3612
(dp3613
g68
(dp3614
g95
g96
ssg77
g3603
sg70
(lp3615
S':'
asbag63
(g84
g65
NtRp3616
(dp3617
g68
(dp3618
sg77
g3603
sg70
(lp3619
g63
(g64
g65
NtRp3620
(dp3621
g68
(dp3622
g76
I3
ssg77
g3616
sg70
(lp3623
S'1'
asbasbasbasbasbasbasbasbasbasbasbasbasbsS'frames'
p3624
(lp3625
(dp3626
S'file'
p3627
S'/var/www/web2py/gluon/restricted.py'
p3628
sS'dump'
p3629
(dp3630
S'environment'
p3631
S"{'A': <class 'gluon.html.A'>, 'Auth': <class 'gluon.tools.Auth'>, 'B': <class 'gluon.html.B'>, 'BEAUTIFY': <class 'gluon.html.BEAUTIFY'>, 'BODY': <class 'gluon.html.BODY'>, 'BR': <class 'gluon.html.BR'>, 'BUTTON': <class 'gluon.html.BUTTON'>, 'CAT': <class 'gluon.html.CAT'>, 'CENTER': <class 'gluon.html.CENTER'>, 'CLEANUP': <class 'gluon.validators.CLEANUP'>, ...}"
p3632
sS'ccode'
p3633
S'<code object <module> at 0x7fba30b813f0, file "/...ns/Threads_Beta/controllers/default.py", line 11>'
p3634
ssS'lnum'
p3635
I204
sS'lines'
p3636
(dp3637
I199
S'    try:'
p3638
sI200
S'        if type(code) == types.CodeType:'
p3639
sI201
S'            ccode = code'
p3640
sI202
S'        else:'
p3641
sI203
S'            ccode = compile2(code,layer)'
p3642
sI204
S'        exec ccode in environment'
p3643
sI205
S'    except HTTP:'
p3644
sI206
S'        raise'
p3645
sI207
S'    except RestrictedError:'
p3646
sI208
S'        # do not encapsulate (obfuscate) the original RestrictedError'
p3647
ssS'call'
p3648
S"(code='# -*- coding: utf-8 -*-\\n# this file is released ...crud())\\n\\n\\nresponse._vars=response._caller(judge)\\n', environment={'A': <class 'gluon.html.A'>, 'Auth': <class 'gluon.tools.Auth'>, 'B': <class 'gluon.html.B'>, 'BEAUTIFY': <class 'gluon.html.BEAUTIFY'>, 'BODY': <class 'gluon.html.BODY'>, 'BR': <class 'gluon.html.BR'>, 'BUTTON': <class 'gluon.html.BUTTON'>, 'CAT': <class 'gluon.html.CAT'>, 'CENTER': <class 'gluon.html.CENTER'>, 'CLEANUP': <class 'gluon.validators.CLEANUP'>, ...}, layer='/var/www/web2py/applications/Threads_Beta/controllers/default.py')"
p3649
sS'func'
p3650
S'restricted'
p3651
sa(dp3652
g3627
S'/var/www/web2py/applications/Threads_Beta/controllers/default.py'
p3653
sg3629
(dp3654
sg3635
I235
sg3636
(dp3655
I224
S'    http://..../[app]/default/data/delete/[table]/[id]'
p3656
sI225
S'    http://..../[app]/default/data/select/[table]'
p3657
sI226
S'    http://..../[app]/default/data/search/[table]'
p3658
sI227
S'    but URLs must be signed, i.e. linked with'
p3659
sI228
S"      A('table',_href=URL('data/tables',user_signature=True))"
p3660
sI229
S'    or with the signed load operator'
p3661
sI230
S"      LOAD('default','data.load',args='tables',ajax=True,user_signature=True)"
p3662
sI231
S'    """'
p3663
sI232
S'    return dict(form=crud())'
p3664
sI233
S''
ssg3648
S'()'
p3665
sg3650
S'<module>'
p3666
sa(dp3667
g3627
S'/var/www/web2py/gluon/globals.py'
p3668
sg3629
(dp3669
S'self'
p3670
S'undefined'
p3671
sS'f'
S'<function judge>'
p3672
ssg3635
I172
sg3636
(dp3673
I167
S'        self.meta = Storage()      # used by web2py_ajax.html'
p3674
sI168
S'        self.menu = []             # used by the default view layout'
p3675
sI169
S'        self.files = []            # used by web2py_ajax.html'
p3676
sI170
S'        self.generic_patterns = [] # patterns to allow generic views'
p3677
sI171
S'        self._vars = None'
p3678
sI172
S'        self._caller = lambda f: f()'
p3679
sI173
S'        self._view_environment = None'
p3680
sI174
S'        self._custom_commit = None'
p3681
sI175
S'        self._custom_rollback = None'
p3682
sI176
S''
ssg3648
S'(f=<function judge>)'
p3683
sg3650
S'<lambda>'
p3684
sa(dp3685
g3627
S'/var/www/web2py/gluon/tools.py'
p3686
sg3629
(dp3687
S'action'
p3688
S'<function judge>'
p3689
sS'a'
S'()'
p3690
sS'b'
g19
ssg3635
I2533
sg3636
(dp3691
I2528
S'                # otherwise case 3 would be ok.'
p3692
sI2529
S'                if not (callable(condition) and condition() == True) and not condition == True:'
p3693
sI2530
S'                    current.session.flash = self.messages.access_denied'
p3694
sI2531
S'                    return call_or_redirect('
p3695
sI2532
S'                        self.settings.on_failed_authorization)'
p3696
sI2533
S'                return action(*a, **b)'
p3697
sI2534
S'            f.__doc__ = action.__doc__'
p3698
sI2535
S'            f.__name__ = action.__name__'
p3699
sI2536
S'            f.__dict__.update(action.__dict__)'
p3700
sI2537
S'            return f'
p3701
ssg3648
S'(*a=(), **b={})'
p3702
sg3650
S'f'
sa(dp3703
g3627
S'/var/www/web2py/applications/Threads_Beta/controllers/default.py'
p3704
sg3629
(dp3705
S'shutil.copyfileobj'
p3706
S'<function copyfileobj>'
p3707
sS'builtinopen'
p3708
S'<built-in function open>'
p3709
sS'global shutil'
p3710
S"<module 'shutil' from '/usr/lib64/python2.6/shutil.pyc'>"
p3711
sS'temp_storage_filename'
p3712
S"'/tmp/Felicity/submission_3_1_17GP7V.cpp'"
p3713
sS'file_descriptor'
p3714
S'<cStringIO.StringO object>'
p3715
ssg3635
I123
sg3636
(dp3716
I118
S'        temp_dir = "/tmp/Felicity/"'
p3717
sI119
S''
sI120
S'        # Temp filename = submission_<EVENT-ID>_<USER-ID>_<Unique-string>.<ext>'
p3718
sI121
S'        temp_storage_file = "submission_"+str(question_no)+"_"+str(event_id)+"_"+str(auth.user.id)+str(\'\'.join(random.choice(string.ascii_uppercase + string.digits) for x in range(5)))+os.path.splitext(filename)[1]'
p3719
sI122
S'        temp_storage_filename = temp_dir + temp_storage_file'
p3720
sI123
S"        shutil.copyfileobj(file_descriptor,open(temp_storage_filename,'wb'))"
p3721
sI124
S''
sI125
S'        row = db(db.events.id==event_id).select()[0]'
p3722
sI126
S'        #Transfer the string using SCP.'
p3723
sI127
S"        organizer = row['organizer']"
p3724
ssg3648
S'()'
p3725
sg3650
S'judge'
p3726
sasS'pyver'
p3727
S'Python 2.6.6: /usr/bin/python'
p3728
sS'session'
p3729
g63
(g64
g65
NtRp3730
(dp3731
g68
(dp3732
sg70
(lp3733
g63
(g72
g65
NtRp3734
(dp3735
g68
(dp3736
g76
I5
ssg77
Nsg70
(lp3737
g63
(g79
g65
NtRp3738
(dp3739
g68
(dp3740
sg77
g3734
sg70
(lp3741
g63
(g84
g65
NtRp3742
(dp3743
g68
(dp3744
g88
g89
ssg77
g3738
sg70
(lp3745
S'auth'
p3746
asbag63
(g84
g65
NtRp3747
(dp3748
g68
(dp3749
g95
g96
ssg77
g3738
sg70
(lp3750
S':'
asbag63
(g84
g65
NtRp3751
(dp3752
g68
(dp3753
sg77
g3738
sg70
(lp3754
g63
(g64
g65
NtRp3755
(dp3756
g68
(dp3757
g76
I5
ssg77
g3751
sg70
(lp3758
g63
(g72
g65
NtRp3759
(dp3760
g68
(dp3761
g76
I4
ssg77
Nsg70
(lp3762
g63
(g79
g65
NtRp3763
(dp3764
g68
(dp3765
sg77
g3759
sg70
(lp3766
g63
(g84
g65
NtRp3767
(dp3768
g68
(dp3769
g88
g89
ssg77
g3763
sg70
(lp3770
S'expiration'
p3771
asbag63
(g84
g65
NtRp3772
(dp3773
g68
(dp3774
g95
g96
ssg77
g3763
sg70
(lp3775
S':'
asbag63
(g84
g65
NtRp3776
(dp3777
g68
(dp3778
sg77
g3763
sg70
(lp3779
g63
(g64
g65
NtRp3780
(dp3781
g68
(dp3782
g76
I4
ssg77
g3776
sg70
(lp3783
S'2592000'
p3784
asbasbasbag63
(g79
g65
NtRp3785
(dp3786
g68
(dp3787
sg77
g3759
sg70
(lp3788
g63
(g84
g65
NtRp3789
(dp3790
g68
(dp3791
g88
g89
ssg77
g3785
sg70
(lp3792
S'hmac_key'
p3793
asbag63
(g84
g65
NtRp3794
(dp3795
g68
(dp3796
g95
g96
ssg77
g3785
sg70
(lp3797
S':'
asbag63
(g84
g65
NtRp3798
(dp3799
g68
(dp3800
sg77
g3785
sg70
(lp3801
g63
(g64
g65
NtRp3802
(dp3803
g68
(dp3804
g76
I4
ssg77
g3798
sg70
(lp3805
S'a5a44f2c-f23d-4a51-93f9-76b99ac8fcf4'
p3806
asbasbasbag63
(g79
g65
NtRp3807
(dp3808
g68
(dp3809
sg77
g3759
sg70
(lp3810
g63
(g84
g65
NtRp3811
(dp3812
g68
(dp3813
g88
g89
ssg77
g3807
sg70
(lp3814
S'last_visit'
p3815
asbag63
(g84
g65
NtRp3816
(dp3817
g68
(dp3818
g95
g96
ssg77
g3807
sg70
(lp3819
S':'
asbag63
(g84
g65
NtRp3820
(dp3821
g68
(dp3822
sg77
g3807
sg70
(lp3823
g63
(g64
g65
NtRp3824
(dp3825
g68
(dp3826
g76
I4
ssg77
g3820
sg70
(lp3827
S'datetime.datetime(2012, 11, 23, 17, 14, 41, 677528)'
p3828
asbasbasbag63
(g79
g65
NtRp3829
(dp3830
g68
(dp3831
sg77
g3759
sg70
(lp3832
g63
(g84
g65
NtRp3833
(dp3834
g68
(dp3835
g88
g89
ssg77
g3829
sg70
(lp3836
S'remember'
p3837
asbag63
(g84
g65
NtRp3838
(dp3839
g68
(dp3840
g95
g96
ssg77
g3829
sg70
(lp3841
S':'
asbag63
(g84
g65
NtRp3842
(dp3843
g68
(dp3844
sg77
g3829
sg70
(lp3845
g63
(g64
g65
NtRp3846
(dp3847
g68
(dp3848
g76
I4
ssg77
g3842
sg70
(lp3849
g106
asbasbasbag63
(g79
g65
NtRp3850
(dp3851
g68
(dp3852
sg77
g3759
sg70
(lp3853
g63
(g84
g65
NtRp3854
(dp3855
g68
(dp3856
g88
g89
ssg77
g3850
sg70
(lp3857
S'user'
p3858
asbag63
(g84
g65
NtRp3859
(dp3860
g68
(dp3861
g95
g96
ssg77
g3850
sg70
(lp3862
S':'
asbag63
(g84
g65
NtRp3863
(dp3864
g68
(dp3865
sg77
g3850
sg70
(lp3866
g63
(g64
g65
NtRp3867
(dp3868
g68
(dp3869
g76
I4
ssg77
g3863
sg70
(lp3870
g63
(g72
g65
NtRp3871
(dp3872
g68
(dp3873
g76
I3
ssg77
Nsg70
(lp3874
g63
(g79
g65
NtRp3875
(dp3876
g68
(dp3877
sg77
g3871
sg70
(lp3878
g63
(g84
g65
NtRp3879
(dp3880
g68
(dp3881
g88
g89
ssg77
g3875
sg70
(lp3882
S'about'
p3883
asbag63
(g84
g65
NtRp3884
(dp3885
g68
(dp3886
g95
g96
ssg77
g3875
sg70
(lp3887
S':'
asbag63
(g84
g65
NtRp3888
(dp3889
g68
(dp3890
sg77
g3875
sg70
(lp3891
g63
(g64
g65
NtRp3892
(dp3893
g68
(dp3894
g76
I3
ssg77
g3888
sg70
(lp3895
S'I made this portal'
p3896
asbasbasbag63
(g79
g65
NtRp3897
(dp3898
g68
(dp3899
sg77
g3871
sg70
(lp3900
g63
(g84
g65
NtRp3901
(dp3902
g68
(dp3903
g88
g89
ssg77
g3897
sg70
(lp3904
S'contact'
p3905
asbag63
(g84
g65
NtRp3906
(dp3907
g68
(dp3908
g95
g96
ssg77
g3897
sg70
(lp3909
S':'
asbag63
(g84
g65
NtRp3910
(dp3911
g68
(dp3912
sg77
g3897
sg70
(lp3913
g63
(g64
g65
NtRp3914
(dp3915
g68
(dp3916
g76
I3
ssg77
g3910
sg70
(lp3917
S'None'
p3918
asbasbasbag63
(g79
g65
NtRp3919
(dp3920
g68
(dp3921
sg77
g3871
sg70
(lp3922
g63
(g84
g65
NtRp3923
(dp3924
g68
(dp3925
g88
g89
ssg77
g3919
sg70
(lp3926
S'email'
p3927
asbag63
(g84
g65
NtRp3928
(dp3929
g68
(dp3930
g95
g96
ssg77
g3919
sg70
(lp3931
S':'
asbag63
(g84
g65
NtRp3932
(dp3933
g68
(dp3934
sg77
g3919
sg70
(lp3935
g63
(g64
g65
NtRp3936
(dp3937
g68
(dp3938
g76
I3
ssg77
g3932
sg70
(lp3939
S'madhavan@felicity.iiit.ac.in'
p3940
asbasbasbag63
(g79
g65
NtRp3941
(dp3942
g68
(dp3943
sg77
g3871
sg70
(lp3944
g63
(g84
g65
NtRp3945
(dp3946
g68
(dp3947
g88
g89
ssg77
g3941
sg70
(lp3948
S'first_name'
p3949
asbag63
(g84
g65
NtRp3950
(dp3951
g68
(dp3952
g95
g96
ssg77
g3941
sg70
(lp3953
S':'
asbag63
(g84
g65
NtRp3954
(dp3955
g68
(dp3956
sg77
g3941
sg70
(lp3957
g63
(g64
g65
NtRp3958
(dp3959
g68
(dp3960
g76
I3
ssg77
g3954
sg70
(lp3961
S'Madhavan'
p3962
asbasbasbag63
(g79
g65
NtRp3963
(dp3964
g68
(dp3965
sg77
g3871
sg70
(lp3966
g63
(g84
g65
NtRp3967
(dp3968
g68
(dp3969
g88
g89
ssg77
g3963
sg70
(lp3970
S'handle'
p3971
asbag63
(g84
g65
NtRp3972
(dp3973
g68
(dp3974
g95
g96
ssg77
g3963
sg70
(lp3975
S':'
asbag63
(g84
g65
NtRp3976
(dp3977
g68
(dp3978
sg77
g3963
sg70
(lp3979
g63
(g64
g65
NtRp3980
(dp3981
g68
(dp3982
g76
I3
ssg77
g3976
sg70
(lp3983
S'Maddy'
p3984
asbasbasbag63
(g79
g65
NtRp3985
(dp3986
g68
(dp3987
sg77
g3871
sg70
(lp3988
g63
(g84
g65
NtRp3989
(dp3990
g68
(dp3991
g88
g89
ssg77
g3985
sg70
(lp3992
S'id'
p3993
asbag63
(g84
g65
NtRp3994
(dp3995
g68
(dp3996
g95
g96
ssg77
g3985
sg70
(lp3997
S':'
asbag63
(g84
g65
NtRp3998
(dp3999
g68
(dp4000
sg77
g3985
sg70
(lp4001
g63
(g64
g65
NtRp4002
(dp4003
g68
(dp4004
g76
I3
ssg77
g3998
sg70
(lp4005
S'1'
asbasbasbag63
(g79
g65
NtRp4006
(dp4007
g68
(dp4008
sg77
g3871
sg70
(lp4009
g63
(g84
g65
NtRp4010
(dp4011
g68
(dp4012
g88
g89
ssg77
g4006
sg70
(lp4013
S'last_name'
p4014
asbag63
(g84
g65
NtRp4015
(dp4016
g68
(dp4017
g95
g96
ssg77
g4006
sg70
(lp4018
S':'
asbag63
(g84
g65
NtRp4019
(dp4020
g68
(dp4021
sg77
g4006
sg70
(lp4022
g63
(g64
g65
NtRp4023
(dp4024
g68
(dp4025
g76
I3
ssg77
g4019
sg70
(lp4026
S'Malolan'
p4027
asbasbasbag63
(g79
g65
NtRp4028
(dp4029
g68
(dp4030
sg77
g3871
sg70
(lp4031
g63
(g84
g65
NtRp4032
(dp4033
g68
(dp4034
g88
g89
ssg77
g4028
sg70
(lp4035
S'password'
p4036
asbag63
(g84
g65
NtRp4037
(dp4038
g68
(dp4039
g95
g96
ssg77
g4028
sg70
(lp4040
S':'
asbag63
(g84
g65
NtRp4041
(dp4042
g68
(dp4043
sg77
g4028
sg70
(lp4044
g63
(g64
g65
NtRp4045
(dp4046
g68
(dp4047
g76
I3
ssg77
g4041
sg70
(lp4048
S'3e7dcbfef4ccdcc3bc90aa39b8721c0d'
p4049
asbasbasbag63
(g79
g65
NtRp4050
(dp4051
g68
(dp4052
sg77
g3871
sg70
(lp4053
g63
(g84
g65
NtRp4054
(dp4055
g68
(dp4056
g88
g89
ssg77
g4050
sg70
(lp4057
S'profile_pic'
p4058
asbag63
(g84
g65
NtRp4059
(dp4060
g68
(dp4061
g95
g96
ssg77
g4050
sg70
(lp4062
S':'
asbag63
(g84
g65
NtRp4063
(dp4064
g68
(dp4065
sg77
g4050
sg70
(lp4066
g63
(g64
g65
NtRp4067
(dp4068
g68
(dp4069
g76
I3
ssg77
g4063
sg70
(lp4070
S'auth_user.profile_pic.bcae818b083bbf8e.53637265656e73686f742d312e706e67.png'
p4071
asbasbasbag63
(g79
g65
NtRp4072
(dp4073
g68
(dp4074
sg77
g3871
sg70
(lp4075
g63
(g84
g65
NtRp4076
(dp4077
g68
(dp4078
g88
g89
ssg77
g4072
sg70
(lp4079
S'registration_id'
p4080
asbag63
(g84
g65
NtRp4081
(dp4082
g68
(dp4083
g95
g96
ssg77
g4072
sg70
(lp4084
S':'
asbag63
(g84
g65
NtRp4085
(dp4086
g68
(dp4087
sg77
g4072
sg70
(lp4088
g63
(g64
g65
NtRp4089
(dp4090
g68
(dp4091
g76
I3
ssg77
g4085
sg70
(lp4092
S''
asbasbasbag63
(g79
g65
NtRp4093
(dp4094
g68
(dp4095
sg77
g3871
sg70
(lp4096
g63
(g84
g65
NtRp4097
(dp4098
g68
(dp4099
g88
g89
ssg77
g4093
sg70
(lp4100
S'registration_key'
p4101
asbag63
(g84
g65
NtRp4102
(dp4103
g68
(dp4104
g95
g96
ssg77
g4093
sg70
(lp4105
S':'
asbag63
(g84
g65
NtRp4106
(dp4107
g68
(dp4108
sg77
g4093
sg70
(lp4109
g63
(g64
g65
NtRp4110
(dp4111
g68
(dp4112
g76
I3
ssg77
g4106
sg70
(lp4113
S''
asbasbasbag63
(g79
g65
NtRp4114
(dp4115
g68
(dp4116
sg77
g3871
sg70
(lp4117
g63
(g84
g65
NtRp4118
(dp4119
g68
(dp4120
g88
g89
ssg77
g4114
sg70
(lp4121
S'reset_password_key'
p4122
asbag63
(g84
g65
NtRp4123
(dp4124
g68
(dp4125
g95
g96
ssg77
g4114
sg70
(lp4126
S':'
asbag63
(g84
g65
NtRp4127
(dp4128
g68
(dp4129
sg77
g4114
sg70
(lp4130
g63
(g64
g65
NtRp4131
(dp4132
g68
(dp4133
g76
I3
ssg77
g4127
sg70
(lp4134
S''
asbasbasbasbasbasbasbasbasbasbasbasbasbsS'etype'
p4135
S"<type 'exceptions.IOError'>"
p4136
sS'date'
p4137
S'Fri Nov 23 19:02:58 2012'
p4138
sS'response'
p4139
g63
(g64
g65
NtRp4140
(dp4141
g68
(dp4142
sg70
(lp4143
g63
(g72
g65
NtRp4144
(dp4145
g68
(dp4146
g76
I5
ssg77
Nsg70
(lp4147
g63
(g79
g65
NtRp4148
(dp4149
g68
(dp4150
sg77
g4144
sg70
(lp4151
g63
(g84
g65
NtRp4152
(dp4153
g68
(dp4154
g88
g89
ssg77
g4148
sg70
(lp4155
g161
asbag63
(g84
g65
NtRp4156
(dp4157
g68
(dp4158
g95
g96
ssg77
g4148
sg70
(lp4159
S':'
asbag63
(g84
g65
NtRp4160
(dp4161
g68
(dp4162
sg77
g4148
sg70
(lp4163
g63
(g64
g65
NtRp4164
(dp4165
g68
(dp4166
g76
I5
ssg77
g4160
sg70
(lp4167
S'<cStringIO.StringO object at 0x7fba320873e8>'
p4168
asbasbasbag63
(g79
g65
NtRp4169
(dp4170
g68
(dp4171
sg77
g4144
sg70
(lp4172
g63
(g84
g65
NtRp4173
(dp4174
g68
(dp4175
g88
g89
ssg77
g4169
sg70
(lp4176
g227
asbag63
(g84
g65
NtRp4177
(dp4178
g68
(dp4179
g95
g96
ssg77
g4169
sg70
(lp4180
S':'
asbag63
(g84
g65
NtRp4181
(dp4182
g68
(dp4183
sg77
g4169
sg70
(lp4184
g63
(g64
g65
NtRp4185
(dp4186
g68
(dp4187
g76
I5
ssg77
g4181
sg70
(lp4188
g63
(g72
g65
NtRp4189
(dp4190
g68
(dp4191
g76
I4
ssg77
Nsg70
(lp4192
g63
(g79
g65
NtRp4193
(dp4194
g68
(dp4195
sg77
g4189
sg70
(lp4196
g63
(g84
g65
NtRp4197
(dp4198
g68
(dp4199
g88
g89
ssg77
g4193
sg70
(lp4200
S'session_id_threads_beta'
p4201
asbag63
(g84
g65
NtRp4202
(dp4203
g68
(dp4204
g95
g96
ssg77
g4193
sg70
(lp4205
S':'
asbag63
(g84
g65
NtRp4206
(dp4207
g68
(dp4208
sg77
g4193
sg70
(lp4209
g63
(g64
g65
NtRp4210
(dp4211
g68
(dp4212
g76
I4
ssg77
g4206
sg70
(lp4213
g63
(g72
g65
NtRp4214
(dp4215
g68
(dp4216
g76
I3
ssg77
Nsg70
(lp4217
g63
(g79
g65
NtRp4218
(dp4219
g68
(dp4220
sg77
g4214
sg70
(lp4221
g63
(g84
g65
NtRp4222
(dp4223
g68
(dp4224
g88
g89
ssg77
g4218
sg70
(lp4225
g277
asbag63
(g84
g65
NtRp4226
(dp4227
g68
(dp4228
g95
g96
ssg77
g4218
sg70
(lp4229
S':'
asbag63
(g84
g65
NtRp4230
(dp4231
g68
(dp4232
sg77
g4218
sg70
(lp4233
g63
(g64
g65
NtRp4234
(dp4235
g68
(dp4236
g76
I3
ssg77
g4230
sg70
(lp4237
S''
asbasbasbag63
(g79
g65
NtRp4238
(dp4239
g68
(dp4240
sg77
g4214
sg70
(lp4241
g63
(g84
g65
NtRp4242
(dp4243
g68
(dp4244
g88
g89
ssg77
g4238
sg70
(lp4245
g298
asbag63
(g84
g65
NtRp4246
(dp4247
g68
(dp4248
g95
g96
ssg77
g4238
sg70
(lp4249
S':'
asbag63
(g84
g65
NtRp4250
(dp4251
g68
(dp4252
sg77
g4238
sg70
(lp4253
g63
(g64
g65
NtRp4254
(dp4255
g68
(dp4256
g76
I3
ssg77
g4250
sg70
(lp4257
S''
asbasbasbag63
(g79
g65
NtRp4258
(dp4259
g68
(dp4260
sg77
g4214
sg70
(lp4261
g63
(g84
g65
NtRp4262
(dp4263
g68
(dp4264
g88
g89
ssg77
g4258
sg70
(lp4265
g319
asbag63
(g84
g65
NtRp4266
(dp4267
g68
(dp4268
g95
g96
ssg77
g4258
sg70
(lp4269
S':'
asbag63
(g84
g65
NtRp4270
(dp4271
g68
(dp4272
sg77
g4258
sg70
(lp4273
g63
(g64
g65
NtRp4274
(dp4275
g68
(dp4276
g76
I3
ssg77
g4270
sg70
(lp4277
S''
asbasbasbag63
(g79
g65
NtRp4278
(dp4279
g68
(dp4280
sg77
g4214
sg70
(lp4281
g63
(g84
g65
NtRp4282
(dp4283
g68
(dp4284
g88
g89
ssg77
g4278
sg70
(lp4285
g340
asbag63
(g84
g65
NtRp4286
(dp4287
g68
(dp4288
g95
g96
ssg77
g4278
sg70
(lp4289
S':'
asbag63
(g84
g65
NtRp4290
(dp4291
g68
(dp4292
sg77
g4278
sg70
(lp4293
g63
(g64
g65
NtRp4294
(dp4295
g68
(dp4296
g76
I3
ssg77
g4290
sg70
(lp4297
S''
asbasbasbag63
(g79
g65
NtRp4298
(dp4299
g68
(dp4300
sg77
g4214
sg70
(lp4301
g63
(g84
g65
NtRp4302
(dp4303
g68
(dp4304
g88
g89
ssg77
g4298
sg70
(lp4305
g361
asbag63
(g84
g65
NtRp4306
(dp4307
g68
(dp4308
g95
g96
ssg77
g4298
sg70
(lp4309
S':'
asbag63
(g84
g65
NtRp4310
(dp4311
g68
(dp4312
sg77
g4298
sg70
(lp4313
g63
(g64
g65
NtRp4314
(dp4315
g68
(dp4316
g76
I3
ssg77
g4310
sg70
(lp4317
S''
asbasbasbag63
(g79
g65
NtRp4318
(dp4319
g68
(dp4320
sg77
g4214
sg70
(lp4321
g63
(g84
g65
NtRp4322
(dp4323
g68
(dp4324
g88
g89
ssg77
g4318
sg70
(lp4325
g382
asbag63
(g84
g65
NtRp4326
(dp4327
g68
(dp4328
g95
g96
ssg77
g4318
sg70
(lp4329
S':'
asbag63
(g84
g65
NtRp4330
(dp4331
g68
(dp4332
sg77
g4318
sg70
(lp4333
g63
(g64
g65
NtRp4334
(dp4335
g68
(dp4336
g76
I3
ssg77
g4330
sg70
(lp4337
S'/'
asbasbasbag63
(g79
g65
NtRp4338
(dp4339
g68
(dp4340
sg77
g4214
sg70
(lp4341
g63
(g84
g65
NtRp4342
(dp4343
g68
(dp4344
g88
g89
ssg77
g4338
sg70
(lp4345
g403
asbag63
(g84
g65
NtRp4346
(dp4347
g68
(dp4348
g95
g96
ssg77
g4338
sg70
(lp4349
S':'
asbag63
(g84
g65
NtRp4350
(dp4351
g68
(dp4352
sg77
g4338
sg70
(lp4353
g63
(g64
g65
NtRp4354
(dp4355
g68
(dp4356
g76
I3
ssg77
g4350
sg70
(lp4357
S''
asbasbasbag63
(g79
g65
NtRp4358
(dp4359
g68
(dp4360
sg77
g4214
sg70
(lp4361
g63
(g84
g65
NtRp4362
(dp4363
g68
(dp4364
g88
g89
ssg77
g4358
sg70
(lp4365
g424
asbag63
(g84
g65
NtRp4366
(dp4367
g68
(dp4368
g95
g96
ssg77
g4358
sg70
(lp4369
S':'
asbag63
(g84
g65
NtRp4370
(dp4371
g68
(dp4372
sg77
g4358
sg70
(lp4373
g63
(g64
g65
NtRp4374
(dp4375
g68
(dp4376
g76
I3
ssg77
g4370
sg70
(lp4377
S''
asbasbasbasbasbasbasbasbasbasbasbag63
(g79
g65
NtRp4378
(dp4379
g68
(dp4380
sg77
g4144
sg70
(lp4381
g63
(g84
g65
NtRp4382
(dp4383
g68
(dp4384
g88
g89
ssg77
g4378
sg70
(lp4385
S'files'
p4386
asbag63
(g84
g65
NtRp4387
(dp4388
g68
(dp4389
g95
g96
ssg77
g4378
sg70
(lp4390
S':'
asbag63
(g84
g65
NtRp4391
(dp4392
g68
(dp4393
sg77
g4378
sg70
(lp4394
g63
(g64
g65
NtRp4395
(dp4396
g68
(dp4397
g76
I5
ssg77
g4391
sg70
(lp4398
g63
(g72
g65
NtRp4399
(dp4400
g68
(dp4401
g76
I4
ssg77
Nsg70
(lp4402
sbasbasbasbag63
(g79
g65
NtRp4403
(dp4404
g68
(dp4405
sg77
g4144
sg70
(lp4406
g63
(g84
g65
NtRp4407
(dp4408
g68
(dp4409
g88
g89
ssg77
g4403
sg70
(lp4410
S'flash'
p4411
asbag63
(g84
g65
NtRp4412
(dp4413
g68
(dp4414
g95
g96
ssg77
g4403
sg70
(lp4415
S':'
asbag63
(g84
g65
NtRp4416
(dp4417
g68
(dp4418
sg77
g4403
sg70
(lp4419
g63
(g64
g65
NtRp4420
(dp4421
g68
(dp4422
g76
I5
ssg77
g4416
sg70
(lp4423
S''
asbasbasbag63
(g79
g65
NtRp4424
(dp4425
g68
(dp4426
sg77
g4144
sg70
(lp4427
g63
(g84
g65
NtRp4428
(dp4429
g68
(dp4430
g88
g89
ssg77
g4424
sg70
(lp4431
S'generic_patterns'
p4432
asbag63
(g84
g65
NtRp4433
(dp4434
g68
(dp4435
g95
g96
ssg77
g4424
sg70
(lp4436
S':'
asbag63
(g84
g65
NtRp4437
(dp4438
g68
(dp4439
sg77
g4424
sg70
(lp4440
g63
(g64
g65
NtRp4441
(dp4442
g68
(dp4443
g76
I5
ssg77
g4437
sg70
(lp4444
g63
(g72
g65
NtRp4445
(dp4446
g68
(dp4447
g76
I4
ssg77
Nsg70
(lp4448
sbasbasbasbag63
(g79
g65
NtRp4449
(dp4450
g68
(dp4451
sg77
g4144
sg70
(lp4452
g63
(g84
g65
NtRp4453
(dp4454
g68
(dp4455
g88
g89
ssg77
g4449
sg70
(lp4456
S'headers'
p4457
asbag63
(g84
g65
NtRp4458
(dp4459
g68
(dp4460
g95
g96
ssg77
g4449
sg70
(lp4461
S':'
asbag63
(g84
g65
NtRp4462
(dp4463
g68
(dp4464
sg77
g4449
sg70
(lp4465
g63
(g64
g65
NtRp4466
(dp4467
g68
(dp4468
g76
I5
ssg77
g4462
sg70
(lp4469
g63
(g72
g65
NtRp4470
(dp4471
g68
(dp4472
g76
I4
ssg77
Nsg70
(lp4473
g63
(g79
g65
NtRp4474
(dp4475
g68
(dp4476
sg77
g4470
sg70
(lp4477
g63
(g84
g65
NtRp4478
(dp4479
g68
(dp4480
g88
g89
ssg77
g4474
sg70
(lp4481
S'Cache-Control'
p4482
asbag63
(g84
g65
NtRp4483
(dp4484
g68
(dp4485
g95
g96
ssg77
g4474
sg70
(lp4486
S':'
asbag63
(g84
g65
NtRp4487
(dp4488
g68
(dp4489
sg77
g4474
sg70
(lp4490
g63
(g64
g65
NtRp4491
(dp4492
g68
(dp4493
g76
I4
ssg77
g4487
sg70
(lp4494
S'no-store, no-cache, must-revalidate, post-check=0, pre-check=0'
p4495
asbasbasbag63
(g79
g65
NtRp4496
(dp4497
g68
(dp4498
sg77
g4470
sg70
(lp4499
g63
(g84
g65
NtRp4500
(dp4501
g68
(dp4502
g88
g89
ssg77
g4496
sg70
(lp4503
S'Content-Type'
p4504
asbag63
(g84
g65
NtRp4505
(dp4506
g68
(dp4507
g95
g96
ssg77
g4496
sg70
(lp4508
S':'
asbag63
(g84
g65
NtRp4509
(dp4510
g68
(dp4511
sg77
g4496
sg70
(lp4512
g63
(g64
g65
NtRp4513
(dp4514
g68
(dp4515
g76
I4
ssg77
g4509
sg70
(lp4516
S'text/html; charset=utf-8'
p4517
asbasbasbag63
(g79
g65
NtRp4518
(dp4519
g68
(dp4520
sg77
g4470
sg70
(lp4521
g63
(g84
g65
NtRp4522
(dp4523
g68
(dp4524
g88
g89
ssg77
g4518
sg70
(lp4525
S'Expires'
p4526
asbag63
(g84
g65
NtRp4527
(dp4528
g68
(dp4529
g95
g96
ssg77
g4518
sg70
(lp4530
S':'
asbag63
(g84
g65
NtRp4531
(dp4532
g68
(dp4533
sg77
g4518
sg70
(lp4534
g63
(g64
g65
NtRp4535
(dp4536
g68
(dp4537
g76
I4
ssg77
g4531
sg70
(lp4538
S'Fri, 23 Nov 2012 13:32:58 GMT'
p4539
asbasbasbag63
(g79
g65
NtRp4540
(dp4541
g68
(dp4542
sg77
g4470
sg70
(lp4543
g63
(g84
g65
NtRp4544
(dp4545
g68
(dp4546
g88
g89
ssg77
g4540
sg70
(lp4547
S'Pragma'
p4548
asbag63
(g84
g65
NtRp4549
(dp4550
g68
(dp4551
g95
g96
ssg77
g4540
sg70
(lp4552
S':'
asbag63
(g84
g65
NtRp4553
(dp4554
g68
(dp4555
sg77
g4540
sg70
(lp4556
g63
(g64
g65
NtRp4557
(dp4558
g68
(dp4559
g76
I4
ssg77
g4553
sg70
(lp4560
S'no-cache'
p4561
asbasbasbag63
(g79
g65
NtRp4562
(dp4563
g68
(dp4564
sg77
g4470
sg70
(lp4565
g63
(g84
g65
NtRp4566
(dp4567
g68
(dp4568
g88
g89
ssg77
g4562
sg70
(lp4569
S'X-Powered-By'
p4570
asbag63
(g84
g65
NtRp4571
(dp4572
g68
(dp4573
g95
g96
ssg77
g4562
sg70
(lp4574
S':'
asbag63
(g84
g65
NtRp4575
(dp4576
g68
(dp4577
sg77
g4562
sg70
(lp4578
g63
(g64
g65
NtRp4579
(dp4580
g68
(dp4581
g76
I4
ssg77
g4575
sg70
(lp4582
S'web2py'
p4583
asbasbasbasbasbasbasbag63
(g79
g65
NtRp4584
(dp4585
g68
(dp4586
sg77
g4144
sg70
(lp4587
g63
(g84
g65
NtRp4588
(dp4589
g68
(dp4590
g88
g89
ssg77
g4584
sg70
(lp4591
S'menu'
p4592
asbag63
(g84
g65
NtRp4593
(dp4594
g68
(dp4595
g95
g96
ssg77
g4584
sg70
(lp4596
S':'
asbag63
(g84
g65
NtRp4597
(dp4598
g68
(dp4599
sg77
g4584
sg70
(lp4600
g63
(g64
g65
NtRp4601
(dp4602
g68
(dp4603
g76
I5
ssg77
g4597
sg70
(lp4604
g63
(g72
g65
NtRp4605
(dp4606
g68
(dp4607
g76
I4
ssg77
Nsg70
(lp4608
g63
(g79
g65
NtRp4609
(dp4610
g68
(dp4611
sg77
g4605
sg70
(lp4612
g63
(g84
g65
NtRp4613
(dp4614
g68
(dp4615
sg77
g4609
sg70
(lp4616
g63
(g64
g65
NtRp4617
(dp4618
g68
(dp4619
g76
I4
ssg77
g4613
sg70
(lp4620
g63
(g72
g65
NtRp4621
(dp4622
g68
(dp4623
g76
I3
ssg77
Nsg70
(lp4624
g63
(g79
g65
NtRp4625
(dp4626
g68
(dp4627
sg77
g4621
sg70
(lp4628
g63
(g84
g65
NtRp4629
(dp4630
g68
(dp4631
sg77
g4625
sg70
(lp4632
g63
(g64
g65
NtRp4633
(dp4634
g68
(dp4635
g76
I3
ssg77
g4629
sg70
(lp4636
cgluon.languages
lazyT_unpickle
p4637
(S's\x07\x00\x00\x00Threads'
tRp4638
asbasbasbag63
(g79
g65
NtRp4639
(dp4640
g68
(dp4641
sg77
g4621
sg70
(lp4642
g63
(g84
g65
NtRp4643
(dp4644
g68
(dp4645
sg77
g4639
sg70
(lp4646
g63
(g64
g65
NtRp4647
(dp4648
g68
(dp4649
g76
I3
ssg77
g4643
sg70
(lp4650
g106
asbasbasbag63
(g79
g65
NtRp4651
(dp4652
g68
(dp4653
sg77
g4621
sg70
(lp4654
g63
(g84
g65
NtRp4655
(dp4656
g68
(dp4657
sg77
g4651
sg70
(lp4658
g63
(g64
g65
NtRp4659
(dp4660
g68
(dp4661
g76
I3
ssg77
g4655
sg70
(lp4662
S'/web2py/Threads_Beta/default/index'
p4663
asbasbasbag63
(g79
g65
NtRp4664
(dp4665
g68
(dp4666
sg77
g4621
sg70
(lp4667
g63
(g84
g65
NtRp4668
(dp4669
g68
(dp4670
sg77
g4664
sg70
(lp4671
g63
(g64
g65
NtRp4672
(dp4673
g68
(dp4674
g76
I3
ssg77
g4668
sg70
(lp4675
g63
(g72
g65
NtRp4676
(dp4677
g68
(dp4678
g76
I2
ssg77
Nsg70
(lp4679
sbasbasbasbasbasbasbasbag63
(g79
g65
NtRp4680
(dp4681
g68
(dp4682
sg77
g4605
sg70
(lp4683
g63
(g84
g65
NtRp4684
(dp4685
g68
(dp4686
sg77
g4680
sg70
(lp4687
g63
(g64
g65
NtRp4688
(dp4689
g68
(dp4690
g76
I4
ssg77
g4684
sg70
(lp4691
g63
(g72
g65
NtRp4692
(dp4693
g68
(dp4694
g76
I3
ssg77
Nsg70
(lp4695
g63
(g79
g65
NtRp4696
(dp4697
g68
(dp4698
sg77
g4692
sg70
(lp4699
g63
(g84
g65
NtRp4700
(dp4701
g68
(dp4702
sg77
g4696
sg70
(lp4703
g63
(g64
g65
NtRp4704
(dp4705
g68
(dp4706
g76
I3
ssg77
g4700
sg70
(lp4707
g4637
(S's\x08\x00\x00\x00Felicity'
tRp4708
asbasbasbag63
(g79
g65
NtRp4709
(dp4710
g68
(dp4711
sg77
g4692
sg70
(lp4712
g63
(g84
g65
NtRp4713
(dp4714
g68
(dp4715
sg77
g4709
sg70
(lp4716
g63
(g64
g65
NtRp4717
(dp4718
g68
(dp4719
g76
I3
ssg77
g4713
sg70
(lp4720
g106
asbasbasbag63
(g79
g65
NtRp4721
(dp4722
g68
(dp4723
sg77
g4692
sg70
(lp4724
g63
(g84
g65
NtRp4725
(dp4726
g68
(dp4727
sg77
g4721
sg70
(lp4728
g63
(g64
g65
NtRp4729
(dp4730
g68
(dp4731
g76
I3
ssg77
g4725
sg70
(lp4732
S'http://felicity.iiit.ac.in'
p4733
asbasbasbag63
(g79
g65
NtRp4734
(dp4735
g68
(dp4736
sg77
g4692
sg70
(lp4737
g63
(g84
g65
NtRp4738
(dp4739
g68
(dp4740
sg77
g4734
sg70
(lp4741
g63
(g64
g65
NtRp4742
(dp4743
g68
(dp4744
g76
I3
ssg77
g4738
sg70
(lp4745
g63
(g72
g65
NtRp4746
(dp4747
g68
(dp4748
g76
I2
ssg77
Nsg70
(lp4749
sbasbasbasbasbasbasbasbasbasbasbasbag63
(g79
g65
NtRp4750
(dp4751
g68
(dp4752
sg77
g4144
sg70
(lp4753
g63
(g84
g65
NtRp4754
(dp4755
g68
(dp4756
g88
g89
ssg77
g4750
sg70
(lp4757
S'meta'
p4758
asbag63
(g84
g65
NtRp4759
(dp4760
g68
(dp4761
g95
g96
ssg77
g4750
sg70
(lp4762
S':'
asbag63
(g84
g65
NtRp4763
(dp4764
g68
(dp4765
sg77
g4750
sg70
(lp4766
g63
(g64
g65
NtRp4767
(dp4768
g68
(dp4769
g76
I5
ssg77
g4763
sg70
(lp4770
g63
(g72
g65
NtRp4771
(dp4772
g68
(dp4773
g76
I4
ssg77
Nsg70
(lp4774
g63
(g79
g65
NtRp4775
(dp4776
g68
(dp4777
sg77
g4771
sg70
(lp4778
g63
(g84
g65
NtRp4779
(dp4780
g68
(dp4781
g88
g89
ssg77
g4775
sg70
(lp4782
S'author'
p4783
asbag63
(g84
g65
NtRp4784
(dp4785
g68
(dp4786
g95
g96
ssg77
g4775
sg70
(lp4787
S':'
asbag63
(g84
g65
NtRp4788
(dp4789
g68
(dp4790
sg77
g4775
sg70
(lp4791
g63
(g64
g65
NtRp4792
(dp4793
g68
(dp4794
g76
I4
ssg77
g4788
sg70
(lp4795
S'Your Name <you@example.com>'
p4796
asbasbasbag63
(g79
g65
NtRp4797
(dp4798
g68
(dp4799
sg77
g4771
sg70
(lp4800
g63
(g84
g65
NtRp4801
(dp4802
g68
(dp4803
g88
g89
ssg77
g4797
sg70
(lp4804
S'copyright'
p4805
asbag63
(g84
g65
NtRp4806
(dp4807
g68
(dp4808
g95
g96
ssg77
g4797
sg70
(lp4809
S':'
asbag63
(g84
g65
NtRp4810
(dp4811
g68
(dp4812
sg77
g4797
sg70
(lp4813
g63
(g64
g65
NtRp4814
(dp4815
g68
(dp4816
g76
I4
ssg77
g4810
sg70
(lp4817
S'Copyright 2011'
p4818
asbasbasbag63
(g79
g65
NtRp4819
(dp4820
g68
(dp4821
sg77
g4771
sg70
(lp4822
g63
(g84
g65
NtRp4823
(dp4824
g68
(dp4825
g88
g89
ssg77
g4819
sg70
(lp4826
S'description'
p4827
asbag63
(g84
g65
NtRp4828
(dp4829
g68
(dp4830
g95
g96
ssg77
g4819
sg70
(lp4831
S':'
asbag63
(g84
g65
NtRp4832
(dp4833
g68
(dp4834
sg77
g4819
sg70
(lp4835
g63
(g64
g65
NtRp4836
(dp4837
g68
(dp4838
g76
I4
ssg77
g4832
sg70
(lp4839
S'a cool new app'
p4840
asbasbasbag63
(g79
g65
NtRp4841
(dp4842
g68
(dp4843
sg77
g4771
sg70
(lp4844
g63
(g84
g65
NtRp4845
(dp4846
g68
(dp4847
g88
g89
ssg77
g4841
sg70
(lp4848
S'generator'
p4849
asbag63
(g84
g65
NtRp4850
(dp4851
g68
(dp4852
g95
g96
ssg77
g4841
sg70
(lp4853
S':'
asbag63
(g84
g65
NtRp4854
(dp4855
g68
(dp4856
sg77
g4841
sg70
(lp4857
g63
(g64
g65
NtRp4858
(dp4859
g68
(dp4860
g76
I4
ssg77
g4854
sg70
(lp4861
S'Web2py Web Framework'
p4862
asbasbasbag63
(g79
g65
NtRp4863
(dp4864
g68
(dp4865
sg77
g4771
sg70
(lp4866
g63
(g84
g65
NtRp4867
(dp4868
g68
(dp4869
g88
g89
ssg77
g4863
sg70
(lp4870
S'keywords'
p4871
asbag63
(g84
g65
NtRp4872
(dp4873
g68
(dp4874
g95
g96
ssg77
g4863
sg70
(lp4875
S':'
asbag63
(g84
g65
NtRp4876
(dp4877
g68
(dp4878
sg77
g4863
sg70
(lp4879
g63
(g64
g65
NtRp4880
(dp4881
g68
(dp4882
g76
I4
ssg77
g4876
sg70
(lp4883
S'web2py, python, framework'
p4884
asbasbasbasbasbasbasbag63
(g79
g65
NtRp4885
(dp4886
g68
(dp4887
sg77
g4144
sg70
(lp4888
g63
(g84
g65
NtRp4889
(dp4890
g68
(dp4891
g88
g89
ssg77
g4885
sg70
(lp4892
S'postprocessing'
p4893
asbag63
(g84
g65
NtRp4894
(dp4895
g68
(dp4896
g95
g96
ssg77
g4885
sg70
(lp4897
S':'
asbag63
(g84
g65
NtRp4898
(dp4899
g68
(dp4900
sg77
g4885
sg70
(lp4901
g63
(g64
g65
NtRp4902
(dp4903
g68
(dp4904
g76
I5
ssg77
g4898
sg70
(lp4905
g63
(g72
g65
NtRp4906
(dp4907
g68
(dp4908
g76
I4
ssg77
Nsg70
(lp4909
sbasbasbasbag63
(g79
g65
NtRp4910
(dp4911
g68
(dp4912
sg77
g4144
sg70
(lp4913
g63
(g84
g65
NtRp4914
(dp4915
g68
(dp4916
g88
g89
ssg77
g4910
sg70
(lp4917
S'session_file'
p4918
asbag63
(g84
g65
NtRp4919
(dp4920
g68
(dp4921
g95
g96
ssg77
g4910
sg70
(lp4922
S':'
asbag63
(g84
g65
NtRp4923
(dp4924
g68
(dp4925
sg77
g4910
sg70
(lp4926
g63
(g64
g65
NtRp4927
(dp4928
g68
(dp4929
g76
I5
ssg77
g4923
sg70
(lp4930
S"<open file '/var/www/web2py/applications/Threads_Beta/sessions/10.1.34.61-3114cc7b-425a-4da5-9d92-36a7f5bc0cd8', mode 'rb+' at 0x7fba28bd99c0>"
p4931
asbasbasbag63
(g79
g65
NtRp4932
(dp4933
g68
(dp4934
sg77
g4144
sg70
(lp4935
g63
(g84
g65
NtRp4936
(dp4937
g68
(dp4938
g88
g89
ssg77
g4932
sg70
(lp4939
S'session_filename'
p4940
asbag63
(g84
g65
NtRp4941
(dp4942
g68
(dp4943
g95
g96
ssg77
g4932
sg70
(lp4944
S':'
asbag63
(g84
g65
NtRp4945
(dp4946
g68
(dp4947
sg77
g4932
sg70
(lp4948
g63
(g64
g65
NtRp4949
(dp4950
g68
(dp4951
g76
I5
ssg77
g4945
sg70
(lp4952
S'/var/www/web2py/applications/Threads_Beta/sessions/10.1.34.61-3114cc7b-425a-4da5-9d92-36a7f5bc0cd8'
p4953
asbasbasbag63
(g79
g65
NtRp4954
(dp4955
g68
(dp4956
sg77
g4144
sg70
(lp4957
g63
(g84
g65
NtRp4958
(dp4959
g68
(dp4960
g88
g89
ssg77
g4954
sg70
(lp4961
S'session_id'
p4962
asbag63
(g84
g65
NtRp4963
(dp4964
g68
(dp4965
g95
g96
ssg77
g4954
sg70
(lp4966
S':'
asbag63
(g84
g65
NtRp4967
(dp4968
g68
(dp4969
sg77
g4954
sg70
(lp4970
g63
(g64
g65
NtRp4971
(dp4972
g68
(dp4973
g76
I5
ssg77
g4967
sg70
(lp4974
S'10.1.34.61-3114cc7b-425a-4da5-9d92-36a7f5bc0cd8'
p4975
asbasbasbag63
(g79
g65
NtRp4976
(dp4977
g68
(dp4978
sg77
g4144
sg70
(lp4979
g63
(g84
g65
NtRp4980
(dp4981
g68
(dp4982
g88
g89
ssg77
g4976
sg70
(lp4983
S'session_id_name'
p4984
asbag63
(g84
g65
NtRp4985
(dp4986
g68
(dp4987
g95
g96
ssg77
g4976
sg70
(lp4988
S':'
asbag63
(g84
g65
NtRp4989
(dp4990
g68
(dp4991
sg77
g4976
sg70
(lp4992
g63
(g64
g65
NtRp4993
(dp4994
g68
(dp4995
g76
I5
ssg77
g4989
sg70
(lp4996
g4201
asbasbasbag63
(g79
g65
NtRp4997
(dp4998
g68
(dp4999
sg77
g4144
sg70
(lp5000
g63
(g84
g65
NtRp5001
(dp5002
g68
(dp5003
g88
g89
ssg77
g4997
sg70
(lp5004
S'session_locked'
p5005
asbag63
(g84
g65
NtRp5006
(dp5007
g68
(dp5008
g95
g96
ssg77
g4997
sg70
(lp5009
S':'
asbag63
(g84
g65
NtRp5010
(dp5011
g68
(dp5012
sg77
g4997
sg70
(lp5013
g63
(g64
g65
NtRp5014
(dp5015
g68
(dp5016
g76
I5
ssg77
g5010
sg70
(lp5017
g1752
asbasbasbag63
(g79
g65
NtRp5018
(dp5019
g68
(dp5020
sg77
g4144
sg70
(lp5021
g63
(g84
g65
NtRp5022
(dp5023
g68
(dp5024
g88
g89
ssg77
g5018
sg70
(lp5025
S'session_new'
p5026
asbag63
(g84
g65
NtRp5027
(dp5028
g68
(dp5029
g95
g96
ssg77
g5018
sg70
(lp5030
S':'
asbag63
(g84
g65
NtRp5031
(dp5032
g68
(dp5033
sg77
g5018
sg70
(lp5034
g63
(g64
g65
NtRp5035
(dp5036
g68
(dp5037
g76
I5
ssg77
g5031
sg70
(lp5038
g106
asbasbasbag63
(g79
g65
NtRp5039
(dp5040
g68
(dp5041
sg77
g4144
sg70
(lp5042
g63
(g84
g65
NtRp5043
(dp5044
g68
(dp5045
g88
g89
ssg77
g5039
sg70
(lp5046
S'status'
p5047
asbag63
(g84
g65
NtRp5048
(dp5049
g68
(dp5050
g95
g96
ssg77
g5039
sg70
(lp5051
S':'
asbag63
(g84
g65
NtRp5052
(dp5053
g68
(dp5054
sg77
g5039
sg70
(lp5055
g63
(g64
g65
NtRp5056
(dp5057
g68
(dp5058
g76
I5
ssg77
g5052
sg70
(lp5059
S'200'
p5060
asbasbasbag63
(g79
g65
NtRp5061
(dp5062
g68
(dp5063
sg77
g4144
sg70
(lp5064
g63
(g84
g65
NtRp5065
(dp5066
g68
(dp5067
g88
g89
ssg77
g5061
sg70
(lp5068
S'subtitle'
p5069
asbag63
(g84
g65
NtRp5070
(dp5071
g68
(dp5072
g95
g96
ssg77
g5061
sg70
(lp5073
S':'
asbag63
(g84
g65
NtRp5074
(dp5075
g68
(dp5076
sg77
g5061
sg70
(lp5077
g63
(g64
g65
NtRp5078
(dp5079
g68
(dp5080
g76
I5
ssg77
g5074
sg70
(lp5081
g4637
(S's\r\x00\x00\x00customize me!'
tRp5082
asbasbasbag63
(g79
g65
NtRp5083
(dp5084
g68
(dp5085
sg77
g4144
sg70
(lp5086
g63
(g84
g65
NtRp5087
(dp5088
g68
(dp5089
g88
g89
ssg77
g5083
sg70
(lp5090
S'title'
p5091
asbag63
(g84
g65
NtRp5092
(dp5093
g68
(dp5094
g95
g96
ssg77
g5083
sg70
(lp5095
S':'
asbag63
(g84
g65
NtRp5096
(dp5097
g68
(dp5098
sg77
g5083
sg70
(lp5099
g63
(g64
g65
NtRp5100
(dp5101
g68
(dp5102
g76
I5
ssg77
g5096
sg70
(lp5103
S'Threads Beta'
p5104
asbasbasbag63
(g79
g65
NtRp5105
(dp5106
g68
(dp5107
sg77
g4144
sg70
(lp5108
g63
(g84
g65
NtRp5109
(dp5110
g68
(dp5111
g88
g89
ssg77
g5105
sg70
(lp5112
g2415
asbag63
(g84
g65
NtRp5113
(dp5114
g68
(dp5115
g95
g96
ssg77
g5105
sg70
(lp5116
S':'
asbag63
(g84
g65
NtRp5117
(dp5118
g68
(dp5119
sg77
g5105
sg70
(lp5120
g63
(g64
g65
NtRp5121
(dp5122
g68
(dp5123
g76
I5
ssg77
g5117
sg70
(lp5124
g2428
asbasbasbag63
(g79
g65
NtRp5125
(dp5126
g68
(dp5127
sg77
g4144
sg70
(lp5128
g63
(g84
g65
NtRp5129
(dp5130
g68
(dp5131
g88
g89
ssg77
g5125
sg70
(lp5132
S'view'
p5133
asbag63
(g84
g65
NtRp5134
(dp5135
g68
(dp5136
g95
g96
ssg77
g5125
sg70
(lp5137
S':'
asbag63
(g84
g65
NtRp5138
(dp5139
g68
(dp5140
sg77
g5125
sg70
(lp5141
g63
(g64
g65
NtRp5142
(dp5143
g68
(dp5144
g76
I5
ssg77
g5138
sg70
(lp5145
S'default/judge.html'
p5146
asbasbasbasbasbsS'locals'
p5147
(dp5148
S'file_descriptor'
p5149
S'<cStringIO.StringO object>'
p5150
sS'user_id'
p5151
S'1'
sS'key'
p5152
S"'file'"
p5153
sS'question_no'
p5154
S'3'
sS'event_id'
p5155
S'1'
sS'temp_storage_filename'
p5156
S"'/tmp/Felicity/submission_3_1_17GP7V.cpp'"
p5157
sg36
S"'tmp.cpp'"
p5158
sS'temp_storage_file'
p5159
S"'submission_3_1_17GP7V.cpp'"
p5160
sg2324
S'{\'event_id\': \'1\', \'file\': FieldStorage(\'file\', \'tmp.cpp\', \'#include<cstdio..."%d",&a);\\n\\tprintf("MADDY\\\'s BOND %d",a);\\n}\\n\'), \'question_no\': \'3\'}'
p5161
sS'temp_dir'
p5162
S"'/tmp/Felicity/'"
p5163
sS'file_size'
p5164
S'110'
p5165
sS'user_event'
p5166
S"<Row {'status': 'Bad Going!', 'user_id': '1', 'u..._record': <function <lambda> at 0x7fba3243a320>}>"
p5167
sssS'traceback'
p5168
S'Traceback (most recent call last):\n  File "/var/www/web2py/gluon/restricted.py", line 204, in restricted\n    exec ccode in environment\n  File "/var/www/web2py/applications/Threads_Beta/controllers/default.py", line 235, in <module>\n  File "/var/www/web2py/gluon/globals.py", line 172, in <lambda>\n    self._caller = lambda f: f()\n  File "/var/www/web2py/gluon/tools.py", line 2533, in f\n    return action(*a, **b)\n  File "/var/www/web2py/applications/Threads_Beta/controllers/default.py", line 123, in judge\n    shutil.copyfileobj(file_descriptor,open(temp_storage_filename,\'wb\'))\nIOError: [Errno 13] Permission denied: \'/tmp/Felicity/submission_3_1_17GP7V.cpp\'\n'
p5169
s.