(dp1
S'output'
p2
S"<class 'pycurl.error'> (52, 'Empty reply from server')"
p3
sS'layer'
p4
S'/var/www/web2py/applications/Threads_Beta/controllers/default.py'
p5
sS'code'
p6
S'# -*- coding: utf-8 -*-\n# this file is released under public domain and you can use without limitations\n\n#########################################################################\n## This is a samples controller\n## - index is the default action of any application\n## - user is required for authentication and authorization\n## - download is for downloading files uploaded in the db (does streaming)\n## - call exposes all registered services (none by default)\n#########################################################################\nimport cStringIO\nimport pycurl\nimport shutil\nimport string\nimport random\nimport os\nimport urllib\nimport json\ndef index():\n    """\n    example action using the internationalization operator T and flash\n    rendered by views/default/index.html or views/generic.html\n    """\n    response.flash = "Welcome to Felicity!"\n    events = db(db.events.id>0).select()\n    title = T(\'Threads at Felicity-2013\')\n    about = T(\'Threads is the annual online programming and quizzing event at Felicity. This sees great amount of participation from over  67 countries\')\n    return dict(events = events,about = about,title=title)\ndef event_home():\n    tab_id = int(request.get_vars[\'tab_id\'])\n    event_id = int(request.get_vars[\'event_id\'])\n    row = db((db.event_tab.id>0 )& (db.event_tab.event_id==event_id) & (db.event_tab.tab_id==tab_id)).select()\n\n    about = "Felicity is IIIT-Hyderabad\'s annual technno-cultural Festival."\n    title = "Error!"\n\n    if(row):\n        about = row[0].raw_content\n        title = row[0].title\n    tabs = db((db.event_tab.id>0) & (db.event_tab.event_id==event_id)).select()\n    return dict(about = about,title=title,tabs = tabs,event_id = event_id)\n\n\n@auth.requires_login()\ndef questions():\n    event_id = int(request.get_vars[\'event_id\'])\n    question_no = int(request.get_vars[\'question_no\'])\n    if \'message\' in request.get_vars.keys():\n        response.flash = request.get_vars[\'message\']\n\n    event_details= db(db.events.id==event_id).select()[0]\n    #If User is NOT registered for the given event , register him/her with default score = 0\n    user_id = auth.user.id \n    event_user_rows = db((db.event_user.event_id==event_id)&(db.event_user.user_id == user_id)).select()\n    if len(event_user_rows) <= 0:\n        response.flash = "Woa a new competitor!"\n        db.event_user.insert(event_id=event_id,user_id = user_id,score=0,status=\'Participating\',penalty=0,current_question=1)  \n    elif( int(event_details.flow_of_questions) == 1 ):\n        question_no= event_user_rows[0].current_question\n\n\n    #Tabs to be displayed on the RHS block\n    tabs = db((db.event_tab.id>0) & (db.event_tab.event_id==event_id)).select()\n    \n\n\n    #Comments Form\n    db.comments.user_id.default = user_id\n    db.comments.event_id.default = event_id\n    db.comments.question_no.default = question_no\n    form = SQLFORM(db.comments)\n    if form.process().accepted:\n        response.flash = "Comment will become public after moderation"\n\n    if(question_no > 0):\n        all_comments = db((db.comments.event_id==event_id)&(db.comments.question_no==question_no)).select()\n    else:\n        all_comments = []\n\n    \n    a = int(event_details.flow_of_questions)\n    response.flash = a\n    if(question_no == 0 and a == 2):\n        list_of_questions = db((db.question.id>0)&(db.question.event== event_id)).select()\n        question_title = "List of questions"\n        return dict(user_details = auth.user,question_title = question_title, list_of_questions=list_of_questions,tabs = tabs, event_id = event_id,form=form,comments=all_comments)\n    \n    else:\n        question_details = db((db.question.event ==event_id) & (db.question.question_no == question_no)).select()[0]\n        if(question_details):\n            question_title = question_details.title\n    \n            return dict(user_details = auth.user,question_title= question_title,question_statement = question_details.question, answer = question_details.answer,tabs=tabs,event_id=event_id,user_id = user_id,question_no = question_no,form=form,comments=all_comments)\n\n\n@auth.requires_login()\ndef judge():\n    question_no = int(request.get_vars[\'question_no\'])\n    event_id = int(request.get_vars[\'event_id\'])\n\n    user_id = auth.user.id\n    user_event = db((db.event_user.user_id == user_id)&(db.event_user.event_id==event_id)).select()[0]\n    question_no = int(user_event[\'current_question\'])\n    #Dictionary that will hold all the data to be passed to the black-box judge\n    post_vars = {}\n    file_size = 0\n    for key in request.vars.keys():\n        post_vars[key] = request.vars[key]\n    #If thtere is a file upload. NOTE that any question may have a MAXIMUM of one file upload per question.\n    if \'file\' in request.vars.keys():\n        # THis will take the file, write it on to the file and transfer it to the judge\'s local system.\n        # uses POST for input and SCP for transfering. Make sure that the judge\'s authorized_keys has the Apache\'s key in it. Basically a passwordless login should be enabled for user \'apache\'\n        filename = request.vars.file.filename\n        file_descriptor = request.vars.file.file\n        file_descriptor.seek(0,2)\n        file_size = file_descriptor.tell()\n        file_descriptor.seek(0,0)   \n        temp_dir = "/tmp/Felicity/"\n\n        # Temp filename = submission_<EVENT-ID>_<USER-ID>_<Unique-string>.<ext>\n        temp_storage_file = "submission_"+str(question_no)+"_"+str(event_id)+"_"+str(auth.user.id)+str(\'\'.join(random.choice(string.ascii_uppercase + string.digits) for x in range(5)))+os.path.splitext(filename)[1]\n        temp_storage_filename = temp_dir + temp_storage_file\n        shutil.copyfileobj(file_descriptor,open(temp_storage_filename,\'wb\'))\n         \n        row = db(db.events.id==event_id).select()[0]\n        #Transfer the string using SCP.\n        organizer = row[\'organizer\']\n        judge_ip = row[\'judge\'].split(\':\')[0]\n        os.system(\'scp "%s" "%s"@"%s":~/judge/uploads/.\'%(temp_storage_filename,organizer,judge_ip))\n        post_vars[\'file\'] = temp_storage_file\n        \n        \n\n\n\n    #Convert the variables to be passed into a form passable thru GET\n    data_post = urllib.urlencode(post_vars)\n\n    #Establish a connection, and communicate with the blackbox judge using cURL\n    #Based on what is sent to the black-box judge, it will reply with the following :\n    #    1. Event-ID\n    #    2. Score increment\n    #    3. Penalty increment\n    #    4. Current question in case of an event with sequential questions.\n    #    5. Status to be displayed : ususally "correct", "wrong" or the like\n    buf = cStringIO.StringIO()\n    c = pycurl.Curl()\n    curl_request = "http://localhost:10001"\n    c.setopt(pycurl.URL, curl_request)\n    c.setopt(pycurl.POST,1)\n    c.setopt(pycurl.POSTFIELDS, data_post)\n    c.setopt(pycurl.WRITEFUNCTION, buf.write)\n    c.perform()\n    ret_val = buf.getvalue()\n    buf.close()\n    #End of communication\n\n   \n    \n    response_dict = json.loads(ret_val) #converts the response string into a dictionary understandable by Python\n\n\n    \n    #Update the user with the response obtained above. \n    db((db.event_user.event_id == response_dict[\'event_id\'])&(db.event_user.user_id == user_id)).update(score = int(user_event[\'score\'])+response_dict[\'score\'], status = response_dict[\'status\'],penalty=int(response_dict[\'penalty\'])+int(user_event[\'penalty\']),current_question = int(response_dict[\'current_question\']))\n    response.flash = (response_dict[\'status\'])\n\n    #Re-direct Back to the Questions page. Either : list of questions for nonseq. type and current question for seq. type event.\n    redirect(\'questions?question_no=0&event_id=\'+str(event_id)+"&message="+response_dict[\'status\']) \n    return dict(text=ret_val)\n\n\n\ndef scoreboard():\n    event_id = request.get_vars[\'event_id\']\n    scorers = db(db.event_user.event_id == event_id).select(orderby=db.event_user.score)\n    tabs = db((db.event_tab.id>0) & (db.event_tab.event_id==event_id)).select()\n    return dict(scoreboard = scorers, tabs = tabs, event_id= event_id)\n\n\n\ndef user():\n    """\n    exposes:\n    http://..../[app]/default/user/login\n    http://..../[app]/default/user/logout\n    http://..../[app]/default/user/register\n    http://..../[app]/default/user/profile\n    http://..../[app]/default/user/retrieve_password\n    http://..../[app]/default/user/change_password\n    use @auth.requires_login()\n        @auth.requires_membership(\'group name\')\n        @auth.requires_permission(\'read\',\'table name\',record_id)\n    to decorate functions that need access control\n    """\n    return dict(form=auth())\n\n\ndef download():\n    """\n    allows downloading of uploaded files\n    http://..../[app]/default/download/[filename]\n    """\n    return response.download(request,db)\n\n\ndef call():\n    """\n    exposes services. for example:\n    http://..../[app]/default/call/jsonrpc\n    decorate with @services.jsonrpc the functions to expose\n    supports xml, json, xmlrpc, jsonrpc, amfrpc, rss, csv\n    """\n    return service()\n\n\n@auth.requires_signature()\ndef data():\n    """\n    http://..../[app]/default/data/tables\n    http://..../[app]/default/data/create/[table]\n    http://..../[app]/default/data/read/[table]/[id]\n    http://..../[app]/default/data/update/[table]/[id]\n    http://..../[app]/default/data/delete/[table]/[id]\n    http://..../[app]/default/data/select/[table]\n    http://..../[app]/default/data/search/[table]\n    but URLs must be signed, i.e. linked with\n      A(\'table\',_href=URL(\'data/tables\',user_signature=True))\n    or with the signed load operator\n      LOAD(\'default\',\'data.load\',args=\'tables\',ajax=True,user_signature=True)\n    """\n    return dict(form=crud())\n\n\nresponse._vars=response._caller(judge)\n'
p7
sS'snapshot'
p8
(dp9
S'exception'
p10
(dp11
S'__module__'
p12
S"'pycurl'"
p13
sS'__getslice__'
p14
S"<method-wrapper '__getslice__' of error object>"
p15
sS'__str__'
p16
S"<method-wrapper '__str__' of error object>"
p17
sS'__reduce__'
p18
S'<built-in method __reduce__ of error object>'
p19
sS'__dict__'
p20
S'{}'
p21
sS'__sizeof__'
p22
S'<built-in method __sizeof__ of error object>'
p23
sS'__weakref__'
p24
S'None'
p25
sS'__init__'
p26
S"<method-wrapper '__init__' of error object>"
p27
sS'__setattr__'
p28
S"<method-wrapper '__setattr__' of error object>"
p29
sS'__reduce_ex__'
p30
S'<built-in method __reduce_ex__ of error object>'
p31
sS'__new__'
p32
S'<built-in method __new__ of type object>'
p33
sS'__format__'
p34
S'<built-in method __format__ of error object>'
p35
sS'__class__'
p36
S"<class 'pycurl.error'>"
p37
sS'__doc__'
p38
S'None'
p39
sS'__getitem__'
p40
S"<method-wrapper '__getitem__' of error object>"
p41
sS'__setstate__'
p42
S'<built-in method __setstate__ of error object>'
p43
sS'__getattribute__'
p44
S"<method-wrapper '__getattribute__' of error object>"
p45
sS'args'
p46
S"(52, 'Empty reply from server')"
p47
sS'__subclasshook__'
p48
S'<built-in method __subclasshook__ of type object>'
p49
sS'__unicode__'
p50
S'<built-in method __unicode__ of error object>'
p51
sS'__delattr__'
p52
S"<method-wrapper '__delattr__' of error object>"
p53
sS'__repr__'
p54
S"<method-wrapper '__repr__' of error object>"
p55
sS'__hash__'
p56
S"<method-wrapper '__hash__' of error object>"
p57
ssS'evalue'
p58
S"(52, 'Empty reply from server')"
p59
sS'request'
p60
ccopy_reg
_reconstructor
p61
(cgluon.html
BEAUTIFY
p62
c__builtin__
object
p63
NtRp64
(dp65
S'attributes'
p66
(dp67
sS'components'
p68
(lp69
g61
(cgluon.html
TABLE
p70
g63
NtRp71
(dp72
g66
(dp73
S'level'
p74
I5
ssS'parent'
p75
Nsg68
(lp76
g61
(cgluon.html
TR
p77
g63
NtRp78
(dp79
g66
(dp80
sg75
g71
sg68
(lp81
g61
(cgluon.html
TD
p82
g63
NtRp83
(dp84
g66
(dp85
S'_style'
p86
S'font-weight:bold;vertical-align:top'
p87
ssg75
g78
sg68
(lp88
S'ajax'
p89
asbag61
(g82
g63
NtRp90
(dp91
g66
(dp92
S'_valign'
p93
S'top'
p94
ssg75
g78
sg68
(lp95
S':'
asbag61
(g82
g63
NtRp96
(dp97
g66
(dp98
sg75
g78
sg68
(lp99
g61
(g62
g63
NtRp100
(dp101
g66
(dp102
g74
I5
ssg75
g96
sg68
(lp103
S'False'
p104
asbasbasbag61
(g77
g63
NtRp105
(dp106
g66
(dp107
sg75
g71
sg68
(lp108
g61
(g82
g63
NtRp109
(dp110
g66
(dp111
g86
g87
ssg75
g105
sg68
(lp112
S'application'
p113
asbag61
(g82
g63
NtRp114
(dp115
g66
(dp116
g93
g94
ssg75
g105
sg68
(lp117
S':'
asbag61
(g82
g63
NtRp118
(dp119
g66
(dp120
sg75
g105
sg68
(lp121
g61
(g62
g63
NtRp122
(dp123
g66
(dp124
g74
I5
ssg75
g118
sg68
(lp125
S'Threads_Beta'
p126
asbasbasbag61
(g77
g63
NtRp127
(dp128
g66
(dp129
sg75
g71
sg68
(lp130
g61
(g82
g63
NtRp131
(dp132
g66
(dp133
g86
g87
ssg75
g127
sg68
(lp134
g46
asbag61
(g82
g63
NtRp135
(dp136
g66
(dp137
g93
g94
ssg75
g127
sg68
(lp138
S':'
asbag61
(g82
g63
NtRp139
(dp140
g66
(dp141
sg75
g127
sg68
(lp142
g61
(g62
g63
NtRp143
(dp144
g66
(dp145
g74
I5
ssg75
g139
sg68
(lp146
g61
(g70
g63
NtRp147
(dp148
g66
(dp149
g74
I4
ssg75
Nsg68
(lp150
sbasbasbasbag61
(g77
g63
NtRp151
(dp152
g66
(dp153
sg75
g71
sg68
(lp154
g61
(g82
g63
NtRp155
(dp156
g66
(dp157
g86
g87
ssg75
g151
sg68
(lp158
S'body'
p159
asbag61
(g82
g63
NtRp160
(dp161
g66
(dp162
g93
g94
ssg75
g151
sg68
(lp163
S':'
asbag61
(g82
g63
NtRp164
(dp165
g66
(dp166
sg75
g151
sg68
(lp167
g61
(g62
g63
NtRp168
(dp169
g66
(dp170
g74
I5
ssg75
g164
sg68
(lp171
S"<open file '<fdopen>', mode 'w+b' at 0x7fba2034b300>"
p172
asbasbasbag61
(g77
g63
NtRp173
(dp174
g66
(dp175
sg75
g71
sg68
(lp176
g61
(g82
g63
NtRp177
(dp178
g66
(dp179
g86
g87
ssg75
g173
sg68
(lp180
S'client'
p181
asbag61
(g82
g63
NtRp182
(dp183
g66
(dp184
g93
g94
ssg75
g173
sg68
(lp185
S':'
asbag61
(g82
g63
NtRp186
(dp187
g66
(dp188
sg75
g173
sg68
(lp189
g61
(g62
g63
NtRp190
(dp191
g66
(dp192
g74
I5
ssg75
g186
sg68
(lp193
S'10.1.34.61'
p194
asbasbasbag61
(g77
g63
NtRp195
(dp196
g66
(dp197
sg75
g71
sg68
(lp198
g61
(g82
g63
NtRp199
(dp200
g66
(dp201
g86
g87
ssg75
g195
sg68
(lp202
S'controller'
p203
asbag61
(g82
g63
NtRp204
(dp205
g66
(dp206
g93
g94
ssg75
g195
sg68
(lp207
S':'
asbag61
(g82
g63
NtRp208
(dp209
g66
(dp210
sg75
g195
sg68
(lp211
g61
(g62
g63
NtRp212
(dp213
g66
(dp214
g74
I5
ssg75
g208
sg68
(lp215
S'default'
p216
asbasbasbag61
(g77
g63
NtRp217
(dp218
g66
(dp219
sg75
g71
sg68
(lp220
g61
(g82
g63
NtRp221
(dp222
g66
(dp223
g86
g87
ssg75
g217
sg68
(lp224
S'cookies'
p225
asbag61
(g82
g63
NtRp226
(dp227
g66
(dp228
g93
g94
ssg75
g217
sg68
(lp229
S':'
asbag61
(g82
g63
NtRp230
(dp231
g66
(dp232
sg75
g217
sg68
(lp233
g61
(g62
g63
NtRp234
(dp235
g66
(dp236
g74
I5
ssg75
g230
sg68
(lp237
g61
(g70
g63
NtRp238
(dp239
g66
(dp240
g74
I4
ssg75
Nsg68
(lp241
g61
(g77
g63
NtRp242
(dp243
g66
(dp244
sg75
g238
sg68
(lp245
g61
(g82
g63
NtRp246
(dp247
g66
(dp248
g86
g87
ssg75
g242
sg68
(lp249
S'session_id_threads_beta'
p250
asbag61
(g82
g63
NtRp251
(dp252
g66
(dp253
g93
g94
ssg75
g242
sg68
(lp254
S':'
asbag61
(g82
g63
NtRp255
(dp256
g66
(dp257
sg75
g242
sg68
(lp258
g61
(g62
g63
NtRp259
(dp260
g66
(dp261
g74
I4
ssg75
g255
sg68
(lp262
g61
(g70
g63
NtRp263
(dp264
g66
(dp265
g74
I3
ssg75
Nsg68
(lp266
g61
(g77
g63
NtRp267
(dp268
g66
(dp269
sg75
g263
sg68
(lp270
g61
(g82
g63
NtRp271
(dp272
g66
(dp273
g86
g87
ssg75
g267
sg68
(lp274
S'comment'
p275
asbag61
(g82
g63
NtRp276
(dp277
g66
(dp278
g93
g94
ssg75
g267
sg68
(lp279
S':'
asbag61
(g82
g63
NtRp280
(dp281
g66
(dp282
sg75
g267
sg68
(lp283
g61
(g62
g63
NtRp284
(dp285
g66
(dp286
g74
I3
ssg75
g280
sg68
(lp287
S''
asbasbasbag61
(g77
g63
NtRp288
(dp289
g66
(dp290
sg75
g263
sg68
(lp291
g61
(g82
g63
NtRp292
(dp293
g66
(dp294
g86
g87
ssg75
g288
sg68
(lp295
S'domain'
p296
asbag61
(g82
g63
NtRp297
(dp298
g66
(dp299
g93
g94
ssg75
g288
sg68
(lp300
S':'
asbag61
(g82
g63
NtRp301
(dp302
g66
(dp303
sg75
g288
sg68
(lp304
g61
(g62
g63
NtRp305
(dp306
g66
(dp307
g74
I3
ssg75
g301
sg68
(lp308
S''
asbasbasbag61
(g77
g63
NtRp309
(dp310
g66
(dp311
sg75
g263
sg68
(lp312
g61
(g82
g63
NtRp313
(dp314
g66
(dp315
g86
g87
ssg75
g309
sg68
(lp316
S'expires'
p317
asbag61
(g82
g63
NtRp318
(dp319
g66
(dp320
g93
g94
ssg75
g309
sg68
(lp321
S':'
asbag61
(g82
g63
NtRp322
(dp323
g66
(dp324
sg75
g309
sg68
(lp325
g61
(g62
g63
NtRp326
(dp327
g66
(dp328
g74
I3
ssg75
g322
sg68
(lp329
S''
asbasbasbag61
(g77
g63
NtRp330
(dp331
g66
(dp332
sg75
g263
sg68
(lp333
g61
(g82
g63
NtRp334
(dp335
g66
(dp336
g86
g87
ssg75
g330
sg68
(lp337
S'httponly'
p338
asbag61
(g82
g63
NtRp339
(dp340
g66
(dp341
g93
g94
ssg75
g330
sg68
(lp342
S':'
asbag61
(g82
g63
NtRp343
(dp344
g66
(dp345
sg75
g330
sg68
(lp346
g61
(g62
g63
NtRp347
(dp348
g66
(dp349
g74
I3
ssg75
g343
sg68
(lp350
S''
asbasbasbag61
(g77
g63
NtRp351
(dp352
g66
(dp353
sg75
g263
sg68
(lp354
g61
(g82
g63
NtRp355
(dp356
g66
(dp357
g86
g87
ssg75
g351
sg68
(lp358
S'max-age'
p359
asbag61
(g82
g63
NtRp360
(dp361
g66
(dp362
g93
g94
ssg75
g351
sg68
(lp363
S':'
asbag61
(g82
g63
NtRp364
(dp365
g66
(dp366
sg75
g351
sg68
(lp367
g61
(g62
g63
NtRp368
(dp369
g66
(dp370
g74
I3
ssg75
g364
sg68
(lp371
S''
asbasbasbag61
(g77
g63
NtRp372
(dp373
g66
(dp374
sg75
g263
sg68
(lp375
g61
(g82
g63
NtRp376
(dp377
g66
(dp378
g86
g87
ssg75
g372
sg68
(lp379
S'path'
p380
asbag61
(g82
g63
NtRp381
(dp382
g66
(dp383
g93
g94
ssg75
g372
sg68
(lp384
S':'
asbag61
(g82
g63
NtRp385
(dp386
g66
(dp387
sg75
g372
sg68
(lp388
g61
(g62
g63
NtRp389
(dp390
g66
(dp391
g74
I3
ssg75
g385
sg68
(lp392
S''
asbasbasbag61
(g77
g63
NtRp393
(dp394
g66
(dp395
sg75
g263
sg68
(lp396
g61
(g82
g63
NtRp397
(dp398
g66
(dp399
g86
g87
ssg75
g393
sg68
(lp400
S'secure'
p401
asbag61
(g82
g63
NtRp402
(dp403
g66
(dp404
g93
g94
ssg75
g393
sg68
(lp405
S':'
asbag61
(g82
g63
NtRp406
(dp407
g66
(dp408
sg75
g393
sg68
(lp409
g61
(g62
g63
NtRp410
(dp411
g66
(dp412
g74
I3
ssg75
g406
sg68
(lp413
S''
asbasbasbag61
(g77
g63
NtRp414
(dp415
g66
(dp416
sg75
g263
sg68
(lp417
g61
(g82
g63
NtRp418
(dp419
g66
(dp420
g86
g87
ssg75
g414
sg68
(lp421
S'version'
p422
asbag61
(g82
g63
NtRp423
(dp424
g66
(dp425
g93
g94
ssg75
g414
sg68
(lp426
S':'
asbag61
(g82
g63
NtRp427
(dp428
g66
(dp429
sg75
g414
sg68
(lp430
g61
(g62
g63
NtRp431
(dp432
g66
(dp433
g74
I3
ssg75
g427
sg68
(lp434
S''
asbasbasbasbasbasbasbasbasbasbasbag61
(g77
g63
NtRp435
(dp436
g66
(dp437
sg75
g71
sg68
(lp438
g61
(g82
g63
NtRp439
(dp440
g66
(dp441
g86
g87
ssg75
g435
sg68
(lp442
S'env'
p443
asbag61
(g82
g63
NtRp444
(dp445
g66
(dp446
g93
g94
ssg75
g435
sg68
(lp447
S':'
asbag61
(g82
g63
NtRp448
(dp449
g66
(dp450
sg75
g435
sg68
(lp451
g61
(g62
g63
NtRp452
(dp453
g66
(dp454
g74
I5
ssg75
g448
sg68
(lp455
g61
(g70
g63
NtRp456
(dp457
g66
(dp458
g74
I4
ssg75
Nsg68
(lp459
g61
(g77
g63
NtRp460
(dp461
g66
(dp462
sg75
g456
sg68
(lp463
g61
(g82
g63
NtRp464
(dp465
g66
(dp466
g86
g87
ssg75
g460
sg68
(lp467
S'app_folders'
p468
asbag61
(g82
g63
NtRp469
(dp470
g66
(dp471
g93
g94
ssg75
g460
sg68
(lp472
S':'
asbag61
(g82
g63
NtRp473
(dp474
g66
(dp475
sg75
g460
sg68
(lp476
g61
(g62
g63
NtRp477
(dp478
g66
(dp479
g74
I4
ssg75
g473
sg68
(lp480
S"set(['/var/www/web2py/applications/Threads_Beta/', '/var/www/web2py/applications/welcome/', '/var/www/web2py/applications/ChatBot_V4/', '/var/www/web2py/applications/admin/'])"
p481
asbasbasbag61
(g77
g63
NtRp482
(dp483
g66
(dp484
sg75
g456
sg68
(lp485
g61
(g82
g63
NtRp486
(dp487
g66
(dp488
g86
g87
ssg75
g482
sg68
(lp489
S'applications_parent'
p490
asbag61
(g82
g63
NtRp491
(dp492
g66
(dp493
g93
g94
ssg75
g482
sg68
(lp494
S':'
asbag61
(g82
g63
NtRp495
(dp496
g66
(dp497
sg75
g482
sg68
(lp498
g61
(g62
g63
NtRp499
(dp500
g66
(dp501
g74
I4
ssg75
g495
sg68
(lp502
S'/var/www/web2py'
p503
asbasbasbag61
(g77
g63
NtRp504
(dp505
g66
(dp506
sg75
g456
sg68
(lp507
g61
(g82
g63
NtRp508
(dp509
g66
(dp510
g86
g87
ssg75
g504
sg68
(lp511
S'content_length'
p512
asbag61
(g82
g63
NtRp513
(dp514
g66
(dp515
g93
g94
ssg75
g504
sg68
(lp516
S':'
asbag61
(g82
g63
NtRp517
(dp518
g66
(dp519
sg75
g504
sg68
(lp520
g61
(g62
g63
NtRp521
(dp522
g66
(dp523
g74
I4
ssg75
g517
sg68
(lp524
S'326'
p525
asbasbasbag61
(g77
g63
NtRp526
(dp527
g66
(dp528
sg75
g456
sg68
(lp529
g61
(g82
g63
NtRp530
(dp531
g66
(dp532
g86
g87
ssg75
g526
sg68
(lp533
S'content_type'
p534
asbag61
(g82
g63
NtRp535
(dp536
g66
(dp537
g93
g94
ssg75
g526
sg68
(lp538
S':'
asbag61
(g82
g63
NtRp539
(dp540
g66
(dp541
sg75
g526
sg68
(lp542
g61
(g62
g63
NtRp543
(dp544
g66
(dp545
g74
I4
ssg75
g539
sg68
(lp546
S'multipart/form-data; boundary=---------------------------163119444615421411244068351'
p547
asbasbasbag61
(g77
g63
NtRp548
(dp549
g66
(dp550
sg75
g456
sg68
(lp551
g61
(g82
g63
NtRp552
(dp553
g66
(dp554
g86
g87
ssg75
g548
sg68
(lp555
S'db_sessions'
p556
asbag61
(g82
g63
NtRp557
(dp558
g66
(dp559
g93
g94
ssg75
g548
sg68
(lp560
S':'
asbag61
(g82
g63
NtRp561
(dp562
g66
(dp563
sg75
g548
sg68
(lp564
g61
(g62
g63
NtRp565
(dp566
g66
(dp567
g74
I4
ssg75
g561
sg68
(lp568
S'set([])'
p569
asbasbasbag61
(g77
g63
NtRp570
(dp571
g66
(dp572
sg75
g456
sg68
(lp573
g61
(g82
g63
NtRp574
(dp575
g66
(dp576
g86
g87
ssg75
g570
sg68
(lp577
S'debugging'
p578
asbag61
(g82
g63
NtRp579
(dp580
g66
(dp581
g93
g94
ssg75
g570
sg68
(lp582
S':'
asbag61
(g82
g63
NtRp583
(dp584
g66
(dp585
sg75
g570
sg68
(lp586
g61
(g62
g63
NtRp587
(dp588
g66
(dp589
g74
I4
ssg75
g583
sg68
(lp590
g104
asbasbasbag61
(g77
g63
NtRp591
(dp592
g66
(dp593
sg75
g456
sg68
(lp594
g61
(g82
g63
NtRp595
(dp596
g66
(dp597
g86
g87
ssg75
g591
sg68
(lp598
S'document_root'
p599
asbag61
(g82
g63
NtRp600
(dp601
g66
(dp602
g93
g94
ssg75
g591
sg68
(lp603
S':'
asbag61
(g82
g63
NtRp604
(dp605
g66
(dp606
sg75
g591
sg68
(lp607
g61
(g62
g63
NtRp608
(dp609
g66
(dp610
g74
I4
ssg75
g604
sg68
(lp611
S'/var/www/html'
p612
asbasbasbag61
(g77
g63
NtRp613
(dp614
g66
(dp615
sg75
g456
sg68
(lp616
g61
(g82
g63
NtRp617
(dp618
g66
(dp619
g86
g87
ssg75
g613
sg68
(lp620
S'gateway_interface'
p621
asbag61
(g82
g63
NtRp622
(dp623
g66
(dp624
g93
g94
ssg75
g613
sg68
(lp625
S':'
asbag61
(g82
g63
NtRp626
(dp627
g66
(dp628
sg75
g613
sg68
(lp629
g61
(g62
g63
NtRp630
(dp631
g66
(dp632
g74
I4
ssg75
g626
sg68
(lp633
S'CGI/1.1'
p634
asbasbasbag61
(g77
g63
NtRp635
(dp636
g66
(dp637
sg75
g456
sg68
(lp638
g61
(g82
g63
NtRp639
(dp640
g66
(dp641
g86
g87
ssg75
g635
sg68
(lp642
S'gluon_parent'
p643
asbag61
(g82
g63
NtRp644
(dp645
g66
(dp646
g93
g94
ssg75
g635
sg68
(lp647
S':'
asbag61
(g82
g63
NtRp648
(dp649
g66
(dp650
sg75
g635
sg68
(lp651
g61
(g62
g63
NtRp652
(dp653
g66
(dp654
g74
I4
ssg75
g648
sg68
(lp655
g503
asbasbasbag61
(g77
g63
NtRp656
(dp657
g66
(dp658
sg75
g456
sg68
(lp659
g61
(g82
g63
NtRp660
(dp661
g66
(dp662
g86
g87
ssg75
g656
sg68
(lp663
S'http_accept'
p664
asbag61
(g82
g63
NtRp665
(dp666
g66
(dp667
g93
g94
ssg75
g656
sg68
(lp668
S':'
asbag61
(g82
g63
NtRp669
(dp670
g66
(dp671
sg75
g656
sg68
(lp672
g61
(g62
g63
NtRp673
(dp674
g66
(dp675
g74
I4
ssg75
g669
sg68
(lp676
S'text/html,application/xhtml+xml,application/xml;q=0.9,*/*;q=0.8'
p677
asbasbasbag61
(g77
g63
NtRp678
(dp679
g66
(dp680
sg75
g456
sg68
(lp681
g61
(g82
g63
NtRp682
(dp683
g66
(dp684
g86
g87
ssg75
g678
sg68
(lp685
S'http_accept_encoding'
p686
asbag61
(g82
g63
NtRp687
(dp688
g66
(dp689
g93
g94
ssg75
g678
sg68
(lp690
S':'
asbag61
(g82
g63
NtRp691
(dp692
g66
(dp693
sg75
g678
sg68
(lp694
g61
(g62
g63
NtRp695
(dp696
g66
(dp697
g74
I4
ssg75
g691
sg68
(lp698
S'gzip, deflate'
p699
asbasbasbag61
(g77
g63
NtRp700
(dp701
g66
(dp702
sg75
g456
sg68
(lp703
g61
(g82
g63
NtRp704
(dp705
g66
(dp706
g86
g87
ssg75
g700
sg68
(lp707
S'http_accept_language'
p708
asbag61
(g82
g63
NtRp709
(dp710
g66
(dp711
g93
g94
ssg75
g700
sg68
(lp712
S':'
asbag61
(g82
g63
NtRp713
(dp714
g66
(dp715
sg75
g700
sg68
(lp716
g61
(g62
g63
NtRp717
(dp718
g66
(dp719
g74
I4
ssg75
g713
sg68
(lp720
S'en-us,en;q=0.5'
p721
asbasbasbag61
(g77
g63
NtRp722
(dp723
g66
(dp724
sg75
g456
sg68
(lp725
g61
(g82
g63
NtRp726
(dp727
g66
(dp728
g86
g87
ssg75
g722
sg68
(lp729
S'http_cache_control'
p730
asbag61
(g82
g63
NtRp731
(dp732
g66
(dp733
g93
g94
ssg75
g722
sg68
(lp734
S':'
asbag61
(g82
g63
NtRp735
(dp736
g66
(dp737
sg75
g722
sg68
(lp738
g61
(g62
g63
NtRp739
(dp740
g66
(dp741
g74
I4
ssg75
g735
sg68
(lp742
S'no-cache'
p743
asbasbasbag61
(g77
g63
NtRp744
(dp745
g66
(dp746
sg75
g456
sg68
(lp747
g61
(g82
g63
NtRp748
(dp749
g66
(dp750
g86
g87
ssg75
g744
sg68
(lp751
S'http_connection'
p752
asbag61
(g82
g63
NtRp753
(dp754
g66
(dp755
g93
g94
ssg75
g744
sg68
(lp756
S':'
asbag61
(g82
g63
NtRp757
(dp758
g66
(dp759
sg75
g744
sg68
(lp760
g61
(g62
g63
NtRp761
(dp762
g66
(dp763
g74
I4
ssg75
g757
sg68
(lp764
S'keep-alive'
p765
asbasbasbag61
(g77
g63
NtRp766
(dp767
g66
(dp768
sg75
g456
sg68
(lp769
g61
(g82
g63
NtRp770
(dp771
g66
(dp772
g86
g87
ssg75
g766
sg68
(lp773
S'http_cookie'
p774
asbag61
(g82
g63
NtRp775
(dp776
g66
(dp777
g93
g94
ssg75
g766
sg68
(lp778
S':'
asbag61
(g82
g63
NtRp779
(dp780
g66
(dp781
sg75
g766
sg68
(lp782
g61
(g62
g63
NtRp783
(dp784
g66
(dp785
g74
I4
ssg75
g779
sg68
(lp786
S'session_id_threads_beta=10.1.34.61-3114cc7b-425a-4da5-9d92-36a7f5bc0cd8; __utma=47423280.1696301220.1353671655.1353671655.1353675902.2; __utmc=47423280; __utmz=47423280.1353671655.1.1.utmcsr=(direct)|utmccn=(direct)|utmcmd=(none); __utmb=47423280.9.10.1353675902'
p787
asbasbasbag61
(g77
g63
NtRp788
(dp789
g66
(dp790
sg75
g456
sg68
(lp791
g61
(g82
g63
NtRp792
(dp793
g66
(dp794
g86
g87
ssg75
g788
sg68
(lp795
S'http_host'
p796
asbag61
(g82
g63
NtRp797
(dp798
g66
(dp799
g93
g94
ssg75
g788
sg68
(lp800
S':'
asbag61
(g82
g63
NtRp801
(dp802
g66
(dp803
sg75
g788
sg68
(lp804
g61
(g62
g63
NtRp805
(dp806
g66
(dp807
g74
I4
ssg75
g801
sg68
(lp808
S'felicity.iiit.ac.in'
p809
asbasbasbag61
(g77
g63
NtRp810
(dp811
g66
(dp812
sg75
g456
sg68
(lp813
g61
(g82
g63
NtRp814
(dp815
g66
(dp816
g86
g87
ssg75
g810
sg68
(lp817
S'http_pragma'
p818
asbag61
(g82
g63
NtRp819
(dp820
g66
(dp821
g93
g94
ssg75
g810
sg68
(lp822
S':'
asbag61
(g82
g63
NtRp823
(dp824
g66
(dp825
sg75
g810
sg68
(lp826
g61
(g62
g63
NtRp827
(dp828
g66
(dp829
g74
I4
ssg75
g823
sg68
(lp830
S'no-cache'
p831
asbasbasbag61
(g77
g63
NtRp832
(dp833
g66
(dp834
sg75
g456
sg68
(lp835
g61
(g82
g63
NtRp836
(dp837
g66
(dp838
g86
g87
ssg75
g832
sg68
(lp839
S'http_referer'
p840
asbag61
(g82
g63
NtRp841
(dp842
g66
(dp843
g93
g94
ssg75
g832
sg68
(lp844
S':'
asbag61
(g82
g63
NtRp845
(dp846
g66
(dp847
sg75
g832
sg68
(lp848
g61
(g62
g63
NtRp849
(dp850
g66
(dp851
g74
I4
ssg75
g845
sg68
(lp852
S'http://felicity.iiit.ac.in/web2py/Threads_Beta/default/questions?question_no=0&event_id=1&message=Bad%20Going!'
p853
asbasbasbag61
(g77
g63
NtRp854
(dp855
g66
(dp856
sg75
g456
sg68
(lp857
g61
(g82
g63
NtRp858
(dp859
g66
(dp860
g86
g87
ssg75
g854
sg68
(lp861
S'http_user_agent'
p862
asbag61
(g82
g63
NtRp863
(dp864
g66
(dp865
g93
g94
ssg75
g854
sg68
(lp866
S':'
asbag61
(g82
g63
NtRp867
(dp868
g66
(dp869
sg75
g854
sg68
(lp870
g61
(g62
g63
NtRp871
(dp872
g66
(dp873
g74
I4
ssg75
g867
sg68
(lp874
S'Mozilla/5.0 (X11; Linux x86_64; rv:10.0.10) Gecko/20121027 Firefox/10.0.10'
p875
asbasbasbag61
(g77
g63
NtRp876
(dp877
g66
(dp878
sg75
g456
sg68
(lp879
g61
(g82
g63
NtRp880
(dp881
g66
(dp882
g86
g87
ssg75
g876
sg68
(lp883
S'is_jython'
p884
asbag61
(g82
g63
NtRp885
(dp886
g66
(dp887
g93
g94
ssg75
g876
sg68
(lp888
S':'
asbag61
(g82
g63
NtRp889
(dp890
g66
(dp891
sg75
g876
sg68
(lp892
g61
(g62
g63
NtRp893
(dp894
g66
(dp895
g74
I4
ssg75
g889
sg68
(lp896
g104
asbasbasbag61
(g77
g63
NtRp897
(dp898
g66
(dp899
sg75
g456
sg68
(lp900
g61
(g82
g63
NtRp901
(dp902
g66
(dp903
g86
g87
ssg75
g897
sg68
(lp904
S'is_pypy'
p905
asbag61
(g82
g63
NtRp906
(dp907
g66
(dp908
g93
g94
ssg75
g897
sg68
(lp909
S':'
asbag61
(g82
g63
NtRp910
(dp911
g66
(dp912
sg75
g897
sg68
(lp913
g61
(g62
g63
NtRp914
(dp915
g66
(dp916
g74
I4
ssg75
g910
sg68
(lp917
g104
asbasbasbag61
(g77
g63
NtRp918
(dp919
g66
(dp920
sg75
g456
sg68
(lp921
g61
(g82
g63
NtRp922
(dp923
g66
(dp924
g86
g87
ssg75
g918
sg68
(lp925
S'mod_wsgi_application_group'
p926
asbag61
(g82
g63
NtRp927
(dp928
g66
(dp929
g93
g94
ssg75
g918
sg68
(lp930
S':'
asbag61
(g82
g63
NtRp931
(dp932
g66
(dp933
sg75
g918
sg68
(lp934
g61
(g62
g63
NtRp935
(dp936
g66
(dp937
g74
I4
ssg75
g931
sg68
(lp938
S'felicity.iiit.ac.in|/web2py'
p939
asbasbasbag61
(g77
g63
NtRp940
(dp941
g66
(dp942
sg75
g456
sg68
(lp943
g61
(g82
g63
NtRp944
(dp945
g66
(dp946
g86
g87
ssg75
g940
sg68
(lp947
S'mod_wsgi_callable_object'
p948
asbag61
(g82
g63
NtRp949
(dp950
g66
(dp951
g93
g94
ssg75
g940
sg68
(lp952
S':'
asbag61
(g82
g63
NtRp953
(dp954
g66
(dp955
sg75
g940
sg68
(lp956
g61
(g62
g63
NtRp957
(dp958
g66
(dp959
g74
I4
ssg75
g953
sg68
(lp960
S'application'
p961
asbasbasbag61
(g77
g63
NtRp962
(dp963
g66
(dp964
sg75
g456
sg68
(lp965
g61
(g82
g63
NtRp966
(dp967
g66
(dp968
g86
g87
ssg75
g962
sg68
(lp969
S'mod_wsgi_handler_script'
p970
asbag61
(g82
g63
NtRp971
(dp972
g66
(dp973
g93
g94
ssg75
g962
sg68
(lp974
S':'
asbag61
(g82
g63
NtRp975
(dp976
g66
(dp977
sg75
g962
sg68
(lp978
g61
(g62
g63
NtRp979
(dp980
g66
(dp981
g74
I4
ssg75
g975
sg68
(lp982
S''
asbasbasbag61
(g77
g63
NtRp983
(dp984
g66
(dp985
sg75
g456
sg68
(lp986
g61
(g82
g63
NtRp987
(dp988
g66
(dp989
g86
g87
ssg75
g983
sg68
(lp990
S'mod_wsgi_input_chunked'
p991
asbag61
(g82
g63
NtRp992
(dp993
g66
(dp994
g93
g94
ssg75
g983
sg68
(lp995
S':'
asbag61
(g82
g63
NtRp996
(dp997
g66
(dp998
sg75
g983
sg68
(lp999
g61
(g62
g63
NtRp1000
(dp1001
g66
(dp1002
g74
I4
ssg75
g996
sg68
(lp1003
S'0'
asbasbasbag61
(g77
g63
NtRp1004
(dp1005
g66
(dp1006
sg75
g456
sg68
(lp1007
g61
(g82
g63
NtRp1008
(dp1009
g66
(dp1010
g86
g87
ssg75
g1004
sg68
(lp1011
S'mod_wsgi_listener_host'
p1012
asbag61
(g82
g63
NtRp1013
(dp1014
g66
(dp1015
g93
g94
ssg75
g1004
sg68
(lp1016
S':'
asbag61
(g82
g63
NtRp1017
(dp1018
g66
(dp1019
sg75
g1004
sg68
(lp1020
g61
(g62
g63
NtRp1021
(dp1022
g66
(dp1023
g74
I4
ssg75
g1017
sg68
(lp1024
S''
asbasbasbag61
(g77
g63
NtRp1025
(dp1026
g66
(dp1027
sg75
g456
sg68
(lp1028
g61
(g82
g63
NtRp1029
(dp1030
g66
(dp1031
g86
g87
ssg75
g1025
sg68
(lp1032
S'mod_wsgi_listener_port'
p1033
asbag61
(g82
g63
NtRp1034
(dp1035
g66
(dp1036
g93
g94
ssg75
g1025
sg68
(lp1037
S':'
asbag61
(g82
g63
NtRp1038
(dp1039
g66
(dp1040
sg75
g1025
sg68
(lp1041
g61
(g62
g63
NtRp1042
(dp1043
g66
(dp1044
g74
I4
ssg75
g1038
sg68
(lp1045
S'80'
p1046
asbasbasbag61
(g77
g63
NtRp1047
(dp1048
g66
(dp1049
sg75
g456
sg68
(lp1050
g61
(g82
g63
NtRp1051
(dp1052
g66
(dp1053
g86
g87
ssg75
g1047
sg68
(lp1054
S'mod_wsgi_process_group'
p1055
asbag61
(g82
g63
NtRp1056
(dp1057
g66
(dp1058
g93
g94
ssg75
g1047
sg68
(lp1059
S':'
asbag61
(g82
g63
NtRp1060
(dp1061
g66
(dp1062
sg75
g1047
sg68
(lp1063
g61
(g62
g63
NtRp1064
(dp1065
g66
(dp1066
g74
I4
ssg75
g1060
sg68
(lp1067
S'web2py'
p1068
asbasbasbag61
(g77
g63
NtRp1069
(dp1070
g66
(dp1071
sg75
g456
sg68
(lp1072
g61
(g82
g63
NtRp1073
(dp1074
g66
(dp1075
g86
g87
ssg75
g1069
sg68
(lp1076
S'mod_wsgi_request_handler'
p1077
asbag61
(g82
g63
NtRp1078
(dp1079
g66
(dp1080
g93
g94
ssg75
g1069
sg68
(lp1081
S':'
asbag61
(g82
g63
NtRp1082
(dp1083
g66
(dp1084
sg75
g1069
sg68
(lp1085
g61
(g62
g63
NtRp1086
(dp1087
g66
(dp1088
g74
I4
ssg75
g1082
sg68
(lp1089
S'wsgi-script'
p1090
asbasbasbag61
(g77
g63
NtRp1091
(dp1092
g66
(dp1093
sg75
g456
sg68
(lp1094
g61
(g82
g63
NtRp1095
(dp1096
g66
(dp1097
g86
g87
ssg75
g1091
sg68
(lp1098
S'mod_wsgi_script_reloading'
p1099
asbag61
(g82
g63
NtRp1100
(dp1101
g66
(dp1102
g93
g94
ssg75
g1091
sg68
(lp1103
S':'
asbag61
(g82
g63
NtRp1104
(dp1105
g66
(dp1106
sg75
g1091
sg68
(lp1107
g61
(g62
g63
NtRp1108
(dp1109
g66
(dp1110
g74
I4
ssg75
g1104
sg68
(lp1111
S'1'
asbasbasbag61
(g77
g63
NtRp1112
(dp1113
g66
(dp1114
sg75
g456
sg68
(lp1115
g61
(g82
g63
NtRp1116
(dp1117
g66
(dp1118
g86
g87
ssg75
g1112
sg68
(lp1119
S'mod_wsgi_version'
p1120
asbag61
(g82
g63
NtRp1121
(dp1122
g66
(dp1123
g93
g94
ssg75
g1112
sg68
(lp1124
S':'
asbag61
(g82
g63
NtRp1125
(dp1126
g66
(dp1127
sg75
g1112
sg68
(lp1128
g61
(g62
g63
NtRp1129
(dp1130
g66
(dp1131
g74
I4
ssg75
g1125
sg68
(lp1132
g61
(g70
g63
NtRp1133
(dp1134
g66
(dp1135
g74
I3
ssg75
Nsg68
(lp1136
g61
(g77
g63
NtRp1137
(dp1138
g66
(dp1139
sg75
g1133
sg68
(lp1140
g61
(g82
g63
NtRp1141
(dp1142
g66
(dp1143
sg75
g1137
sg68
(lp1144
g61
(g62
g63
NtRp1145
(dp1146
g66
(dp1147
g74
I3
ssg75
g1141
sg68
(lp1148
S'3'
asbasbasbag61
(g77
g63
NtRp1149
(dp1150
g66
(dp1151
sg75
g1133
sg68
(lp1152
g61
(g82
g63
NtRp1153
(dp1154
g66
(dp1155
sg75
g1149
sg68
(lp1156
g61
(g62
g63
NtRp1157
(dp1158
g66
(dp1159
g74
I3
ssg75
g1153
sg68
(lp1160
S'2'
asbasbasbasbasbasbasbag61
(g77
g63
NtRp1161
(dp1162
g66
(dp1163
sg75
g456
sg68
(lp1164
g61
(g82
g63
NtRp1165
(dp1166
g66
(dp1167
g86
g87
ssg75
g1161
sg68
(lp1168
S'path_info'
p1169
asbag61
(g82
g63
NtRp1170
(dp1171
g66
(dp1172
g93
g94
ssg75
g1161
sg68
(lp1173
S':'
asbag61
(g82
g63
NtRp1174
(dp1175
g66
(dp1176
sg75
g1161
sg68
(lp1177
g61
(g62
g63
NtRp1178
(dp1179
g66
(dp1180
g74
I4
ssg75
g1174
sg68
(lp1181
S'/Threads_Beta/default/judge'
p1182
asbasbasbag61
(g77
g63
NtRp1183
(dp1184
g66
(dp1185
sg75
g456
sg68
(lp1186
g61
(g82
g63
NtRp1187
(dp1188
g66
(dp1189
g86
g87
ssg75
g1183
sg68
(lp1190
S'path_translated'
p1191
asbag61
(g82
g63
NtRp1192
(dp1193
g66
(dp1194
g93
g94
ssg75
g1183
sg68
(lp1195
S':'
asbag61
(g82
g63
NtRp1196
(dp1197
g66
(dp1198
sg75
g1183
sg68
(lp1199
g61
(g62
g63
NtRp1200
(dp1201
g66
(dp1202
g74
I4
ssg75
g1196
sg68
(lp1203
S'/var/www/html/Threads_Beta/default/judge'
p1204
asbasbasbag61
(g77
g63
NtRp1205
(dp1206
g66
(dp1207
sg75
g456
sg68
(lp1208
g61
(g82
g63
NtRp1209
(dp1210
g66
(dp1211
g86
g87
ssg75
g1205
sg68
(lp1212
S'query_string'
p1213
asbag61
(g82
g63
NtRp1214
(dp1215
g66
(dp1216
g93
g94
ssg75
g1205
sg68
(lp1217
S':'
asbag61
(g82
g63
NtRp1218
(dp1219
g66
(dp1220
sg75
g1205
sg68
(lp1221
g61
(g62
g63
NtRp1222
(dp1223
g66
(dp1224
g74
I4
ssg75
g1218
sg68
(lp1225
S'event_id=1&question_no=3'
p1226
asbasbasbag61
(g77
g63
NtRp1227
(dp1228
g66
(dp1229
sg75
g456
sg68
(lp1230
g61
(g82
g63
NtRp1231
(dp1232
g66
(dp1233
g86
g87
ssg75
g1227
sg68
(lp1234
S'remote_addr'
p1235
asbag61
(g82
g63
NtRp1236
(dp1237
g66
(dp1238
g93
g94
ssg75
g1227
sg68
(lp1239
S':'
asbag61
(g82
g63
NtRp1240
(dp1241
g66
(dp1242
sg75
g1227
sg68
(lp1243
g61
(g62
g63
NtRp1244
(dp1245
g66
(dp1246
g74
I4
ssg75
g1240
sg68
(lp1247
g194
asbasbasbag61
(g77
g63
NtRp1248
(dp1249
g66
(dp1250
sg75
g456
sg68
(lp1251
g61
(g82
g63
NtRp1252
(dp1253
g66
(dp1254
g86
g87
ssg75
g1248
sg68
(lp1255
S'remote_port'
p1256
asbag61
(g82
g63
NtRp1257
(dp1258
g66
(dp1259
g93
g94
ssg75
g1248
sg68
(lp1260
S':'
asbag61
(g82
g63
NtRp1261
(dp1262
g66
(dp1263
sg75
g1248
sg68
(lp1264
g61
(g62
g63
NtRp1265
(dp1266
g66
(dp1267
g74
I4
ssg75
g1261
sg68
(lp1268
S'38632'
p1269
asbasbasbag61
(g77
g63
NtRp1270
(dp1271
g66
(dp1272
sg75
g456
sg68
(lp1273
g61
(g82
g63
NtRp1274
(dp1275
g66
(dp1276
g86
g87
ssg75
g1270
sg68
(lp1277
S'request_method'
p1278
asbag61
(g82
g63
NtRp1279
(dp1280
g66
(dp1281
g93
g94
ssg75
g1270
sg68
(lp1282
S':'
asbag61
(g82
g63
NtRp1283
(dp1284
g66
(dp1285
sg75
g1270
sg68
(lp1286
g61
(g62
g63
NtRp1287
(dp1288
g66
(dp1289
g74
I4
ssg75
g1283
sg68
(lp1290
S'POST'
p1291
asbasbasbag61
(g77
g63
NtRp1292
(dp1293
g66
(dp1294
sg75
g456
sg68
(lp1295
g61
(g82
g63
NtRp1296
(dp1297
g66
(dp1298
g86
g87
ssg75
g1292
sg68
(lp1299
S'request_uri'
p1300
asbag61
(g82
g63
NtRp1301
(dp1302
g66
(dp1303
g93
g94
ssg75
g1292
sg68
(lp1304
S':'
asbag61
(g82
g63
NtRp1305
(dp1306
g66
(dp1307
sg75
g1292
sg68
(lp1308
g61
(g62
g63
NtRp1309
(dp1310
g66
(dp1311
g74
I4
ssg75
g1305
sg68
(lp1312
S'/Threads_Beta/default/judge?event_id=1&question_no=3'
p1313
asbasbasbag61
(g77
g63
NtRp1314
(dp1315
g66
(dp1316
sg75
g456
sg68
(lp1317
g61
(g82
g63
NtRp1318
(dp1319
g66
(dp1320
g86
g87
ssg75
g1314
sg68
(lp1321
S'script_filename'
p1322
asbag61
(g82
g63
NtRp1323
(dp1324
g66
(dp1325
g93
g94
ssg75
g1314
sg68
(lp1326
S':'
asbag61
(g82
g63
NtRp1327
(dp1328
g66
(dp1329
sg75
g1314
sg68
(lp1330
g61
(g62
g63
NtRp1331
(dp1332
g66
(dp1333
g74
I4
ssg75
g1327
sg68
(lp1334
S'/var/www/web2py/wsgihandler.py'
p1335
asbasbasbag61
(g77
g63
NtRp1336
(dp1337
g66
(dp1338
sg75
g456
sg68
(lp1339
g61
(g82
g63
NtRp1340
(dp1341
g66
(dp1342
g86
g87
ssg75
g1336
sg68
(lp1343
S'script_name'
p1344
asbag61
(g82
g63
NtRp1345
(dp1346
g66
(dp1347
g93
g94
ssg75
g1336
sg68
(lp1348
S':'
asbag61
(g82
g63
NtRp1349
(dp1350
g66
(dp1351
sg75
g1336
sg68
(lp1352
g61
(g62
g63
NtRp1353
(dp1354
g66
(dp1355
g74
I4
ssg75
g1349
sg68
(lp1356
S'/web2py'
p1357
asbasbasbag61
(g77
g63
NtRp1358
(dp1359
g66
(dp1360
sg75
g456
sg68
(lp1361
g61
(g82
g63
NtRp1362
(dp1363
g66
(dp1364
g86
g87
ssg75
g1358
sg68
(lp1365
S'server_addr'
p1366
asbag61
(g82
g63
NtRp1367
(dp1368
g66
(dp1369
g93
g94
ssg75
g1358
sg68
(lp1370
S':'
asbag61
(g82
g63
NtRp1371
(dp1372
g66
(dp1373
sg75
g1358
sg68
(lp1374
g61
(g62
g63
NtRp1375
(dp1376
g66
(dp1377
g74
I4
ssg75
g1371
sg68
(lp1378
S'10.4.3.65'
p1379
asbasbasbag61
(g77
g63
NtRp1380
(dp1381
g66
(dp1382
sg75
g456
sg68
(lp1383
g61
(g82
g63
NtRp1384
(dp1385
g66
(dp1386
g86
g87
ssg75
g1380
sg68
(lp1387
S'server_admin'
p1388
asbag61
(g82
g63
NtRp1389
(dp1390
g66
(dp1391
g93
g94
ssg75
g1380
sg68
(lp1392
S':'
asbag61
(g82
g63
NtRp1393
(dp1394
g66
(dp1395
sg75
g1380
sg68
(lp1396
g61
(g62
g63
NtRp1397
(dp1398
g66
(dp1399
g74
I4
ssg75
g1393
sg68
(lp1400
S'madhavan[dot]chetlur[at]students.iiit.ac.in'
p1401
asbasbasbag61
(g77
g63
NtRp1402
(dp1403
g66
(dp1404
sg75
g456
sg68
(lp1405
g61
(g82
g63
NtRp1406
(dp1407
g66
(dp1408
g86
g87
ssg75
g1402
sg68
(lp1409
S'server_name'
p1410
asbag61
(g82
g63
NtRp1411
(dp1412
g66
(dp1413
g93
g94
ssg75
g1402
sg68
(lp1414
S':'
asbag61
(g82
g63
NtRp1415
(dp1416
g66
(dp1417
sg75
g1402
sg68
(lp1418
g61
(g62
g63
NtRp1419
(dp1420
g66
(dp1421
g74
I4
ssg75
g1415
sg68
(lp1422
S'felicity.iiit.ac.in'
p1423
asbasbasbag61
(g77
g63
NtRp1424
(dp1425
g66
(dp1426
sg75
g456
sg68
(lp1427
g61
(g82
g63
NtRp1428
(dp1429
g66
(dp1430
g86
g87
ssg75
g1424
sg68
(lp1431
S'server_port'
p1432
asbag61
(g82
g63
NtRp1433
(dp1434
g66
(dp1435
g93
g94
ssg75
g1424
sg68
(lp1436
S':'
asbag61
(g82
g63
NtRp1437
(dp1438
g66
(dp1439
sg75
g1424
sg68
(lp1440
g61
(g62
g63
NtRp1441
(dp1442
g66
(dp1443
g74
I4
ssg75
g1437
sg68
(lp1444
S'80'
p1445
asbasbasbag61
(g77
g63
NtRp1446
(dp1447
g66
(dp1448
sg75
g456
sg68
(lp1449
g61
(g82
g63
NtRp1450
(dp1451
g66
(dp1452
g86
g87
ssg75
g1446
sg68
(lp1453
S'server_protocol'
p1454
asbag61
(g82
g63
NtRp1455
(dp1456
g66
(dp1457
g93
g94
ssg75
g1446
sg68
(lp1458
S':'
asbag61
(g82
g63
NtRp1459
(dp1460
g66
(dp1461
sg75
g1446
sg68
(lp1462
g61
(g62
g63
NtRp1463
(dp1464
g66
(dp1465
g74
I4
ssg75
g1459
sg68
(lp1466
S'HTTP/1.1'
p1467
asbasbasbag61
(g77
g63
NtRp1468
(dp1469
g66
(dp1470
sg75
g456
sg68
(lp1471
g61
(g82
g63
NtRp1472
(dp1473
g66
(dp1474
g86
g87
ssg75
g1468
sg68
(lp1475
S'server_signature'
p1476
asbag61
(g82
g63
NtRp1477
(dp1478
g66
(dp1479
g93
g94
ssg75
g1468
sg68
(lp1480
S':'
asbag61
(g82
g63
NtRp1481
(dp1482
g66
(dp1483
sg75
g1468
sg68
(lp1484
g61
(g62
g63
NtRp1485
(dp1486
g66
(dp1487
g74
I4
ssg75
g1481
sg68
(lp1488
S''
asbasbasbag61
(g77
g63
NtRp1489
(dp1490
g66
(dp1491
sg75
g456
sg68
(lp1492
g61
(g82
g63
NtRp1493
(dp1494
g66
(dp1495
g86
g87
ssg75
g1489
sg68
(lp1496
S'server_software'
p1497
asbag61
(g82
g63
NtRp1498
(dp1499
g66
(dp1500
g93
g94
ssg75
g1489
sg68
(lp1501
S':'
asbag61
(g82
g63
NtRp1502
(dp1503
g66
(dp1504
sg75
g1489
sg68
(lp1505
g61
(g62
g63
NtRp1506
(dp1507
g66
(dp1508
g74
I4
ssg75
g1502
sg68
(lp1509
S'Apache'
p1510
asbasbasbag61
(g77
g63
NtRp1511
(dp1512
g66
(dp1513
sg75
g456
sg68
(lp1514
g61
(g82
g63
NtRp1515
(dp1516
g66
(dp1517
g86
g87
ssg75
g1511
sg68
(lp1518
S'web2py_original_uri'
p1519
asbag61
(g82
g63
NtRp1520
(dp1521
g66
(dp1522
g93
g94
ssg75
g1511
sg68
(lp1523
S':'
asbag61
(g82
g63
NtRp1524
(dp1525
g66
(dp1526
sg75
g1511
sg68
(lp1527
g61
(g62
g63
NtRp1528
(dp1529
g66
(dp1530
g74
I4
ssg75
g1524
sg68
(lp1531
S'/Threads_Beta/default/judge?event_id=1&question_no=3'
p1532
asbasbasbag61
(g77
g63
NtRp1533
(dp1534
g66
(dp1535
sg75
g456
sg68
(lp1536
g61
(g82
g63
NtRp1537
(dp1538
g66
(dp1539
g86
g87
ssg75
g1533
sg68
(lp1540
S'web2py_path'
p1541
asbag61
(g82
g63
NtRp1542
(dp1543
g66
(dp1544
g93
g94
ssg75
g1533
sg68
(lp1545
S':'
asbag61
(g82
g63
NtRp1546
(dp1547
g66
(dp1548
sg75
g1533
sg68
(lp1549
g61
(g62
g63
NtRp1550
(dp1551
g66
(dp1552
g74
I4
ssg75
g1546
sg68
(lp1553
g503
asbasbasbag61
(g77
g63
NtRp1554
(dp1555
g66
(dp1556
sg75
g456
sg68
(lp1557
g61
(g82
g63
NtRp1558
(dp1559
g66
(dp1560
g86
g87
ssg75
g1554
sg68
(lp1561
S'web2py_version'
p1562
asbag61
(g82
g63
NtRp1563
(dp1564
g66
(dp1565
g93
g94
ssg75
g1554
sg68
(lp1566
S':'
asbag61
(g82
g63
NtRp1567
(dp1568
g66
(dp1569
sg75
g1554
sg68
(lp1570
g61
(g62
g63
NtRp1571
(dp1572
g66
(dp1573
g74
I4
ssg75
g1567
sg68
(lp1574
g61
(g70
g63
NtRp1575
(dp1576
g66
(dp1577
g74
I3
ssg75
Nsg68
(lp1578
g61
(g77
g63
NtRp1579
(dp1580
g66
(dp1581
sg75
g1575
sg68
(lp1582
g61
(g82
g63
NtRp1583
(dp1584
g66
(dp1585
sg75
g1579
sg68
(lp1586
g61
(g62
g63
NtRp1587
(dp1588
g66
(dp1589
g74
I3
ssg75
g1583
sg68
(lp1590
S'1'
asbasbasbag61
(g77
g63
NtRp1591
(dp1592
g66
(dp1593
sg75
g1575
sg68
(lp1594
g61
(g82
g63
NtRp1595
(dp1596
g66
(dp1597
sg75
g1591
sg68
(lp1598
g61
(g62
g63
NtRp1599
(dp1600
g66
(dp1601
g74
I3
ssg75
g1595
sg68
(lp1602
S'99'
p1603
asbasbasbag61
(g77
g63
NtRp1604
(dp1605
g66
(dp1606
sg75
g1575
sg68
(lp1607
g61
(g82
g63
NtRp1608
(dp1609
g66
(dp1610
sg75
g1604
sg68
(lp1611
g61
(g62
g63
NtRp1612
(dp1613
g66
(dp1614
g74
I3
ssg75
g1608
sg68
(lp1615
S'4'
asbasbasbag61
(g77
g63
NtRp1616
(dp1617
g66
(dp1618
sg75
g1575
sg68
(lp1619
g61
(g82
g63
NtRp1620
(dp1621
g66
(dp1622
sg75
g1616
sg68
(lp1623
g61
(g62
g63
NtRp1624
(dp1625
g66
(dp1626
g74
I3
ssg75
g1620
sg68
(lp1627
S'datetime.datetime(2011, 12, 14, 14, 46, 14)'
p1628
asbasbasbag61
(g77
g63
NtRp1629
(dp1630
g66
(dp1631
sg75
g1575
sg68
(lp1632
g61
(g82
g63
NtRp1633
(dp1634
g66
(dp1635
sg75
g1629
sg68
(lp1636
g61
(g62
g63
NtRp1637
(dp1638
g66
(dp1639
g74
I3
ssg75
g1633
sg68
(lp1640
S'stable'
p1641
asbasbasbasbasbasbasbag61
(g77
g63
NtRp1642
(dp1643
g66
(dp1644
sg75
g456
sg68
(lp1645
g61
(g82
g63
NtRp1646
(dp1647
g66
(dp1648
g86
g87
ssg75
g1642
sg68
(lp1649
S'wsgi_errors'
p1650
asbag61
(g82
g63
NtRp1651
(dp1652
g66
(dp1653
g93
g94
ssg75
g1642
sg68
(lp1654
S':'
asbag61
(g82
g63
NtRp1655
(dp1656
g66
(dp1657
sg75
g1642
sg68
(lp1658
g61
(g62
g63
NtRp1659
(dp1660
g66
(dp1661
g74
I4
ssg75
g1655
sg68
(lp1662
S'<mod_wsgi.Log object at 0x7fba3235f530>'
p1663
asbasbasbag61
(g77
g63
NtRp1664
(dp1665
g66
(dp1666
sg75
g456
sg68
(lp1667
g61
(g82
g63
NtRp1668
(dp1669
g66
(dp1670
g86
g87
ssg75
g1664
sg68
(lp1671
S'wsgi_file_wrapper'
p1672
asbag61
(g82
g63
NtRp1673
(dp1674
g66
(dp1675
g93
g94
ssg75
g1664
sg68
(lp1676
S':'
asbag61
(g82
g63
NtRp1677
(dp1678
g66
(dp1679
sg75
g1664
sg68
(lp1680
g61
(g62
g63
NtRp1681
(dp1682
g66
(dp1683
g74
I4
ssg75
g1677
sg68
(lp1684
S'<built-in method file_wrapper of mod_wsgi.Adapter object at 0x7fba3243aa80>'
p1685
asbasbasbag61
(g77
g63
NtRp1686
(dp1687
g66
(dp1688
sg75
g456
sg68
(lp1689
g61
(g82
g63
NtRp1690
(dp1691
g66
(dp1692
g86
g87
ssg75
g1686
sg68
(lp1693
S'wsgi_input'
p1694
asbag61
(g82
g63
NtRp1695
(dp1696
g66
(dp1697
g93
g94
ssg75
g1686
sg68
(lp1698
S':'
asbag61
(g82
g63
NtRp1699
(dp1700
g66
(dp1701
sg75
g1686
sg68
(lp1702
g61
(g62
g63
NtRp1703
(dp1704
g66
(dp1705
g74
I4
ssg75
g1699
sg68
(lp1706
S'<mod_wsgi.Input object at 0x7fba3235fb30>'
p1707
asbasbasbag61
(g77
g63
NtRp1708
(dp1709
g66
(dp1710
sg75
g456
sg68
(lp1711
g61
(g82
g63
NtRp1712
(dp1713
g66
(dp1714
g86
g87
ssg75
g1708
sg68
(lp1715
S'wsgi_multiprocess'
p1716
asbag61
(g82
g63
NtRp1717
(dp1718
g66
(dp1719
g93
g94
ssg75
g1708
sg68
(lp1720
S':'
asbag61
(g82
g63
NtRp1721
(dp1722
g66
(dp1723
sg75
g1708
sg68
(lp1724
g61
(g62
g63
NtRp1725
(dp1726
g66
(dp1727
g74
I4
ssg75
g1721
sg68
(lp1728
g104
asbasbasbag61
(g77
g63
NtRp1729
(dp1730
g66
(dp1731
sg75
g456
sg68
(lp1732
g61
(g82
g63
NtRp1733
(dp1734
g66
(dp1735
g86
g87
ssg75
g1729
sg68
(lp1736
S'wsgi_multithread'
p1737
asbag61
(g82
g63
NtRp1738
(dp1739
g66
(dp1740
g93
g94
ssg75
g1729
sg68
(lp1741
S':'
asbag61
(g82
g63
NtRp1742
(dp1743
g66
(dp1744
sg75
g1729
sg68
(lp1745
g61
(g62
g63
NtRp1746
(dp1747
g66
(dp1748
g74
I4
ssg75
g1742
sg68
(lp1749
S'True'
p1750
asbasbasbag61
(g77
g63
NtRp1751
(dp1752
g66
(dp1753
sg75
g456
sg68
(lp1754
g61
(g82
g63
NtRp1755
(dp1756
g66
(dp1757
g86
g87
ssg75
g1751
sg68
(lp1758
S'wsgi_run_once'
p1759
asbag61
(g82
g63
NtRp1760
(dp1761
g66
(dp1762
g93
g94
ssg75
g1751
sg68
(lp1763
S':'
asbag61
(g82
g63
NtRp1764
(dp1765
g66
(dp1766
sg75
g1751
sg68
(lp1767
g61
(g62
g63
NtRp1768
(dp1769
g66
(dp1770
g74
I4
ssg75
g1764
sg68
(lp1771
g104
asbasbasbag61
(g77
g63
NtRp1772
(dp1773
g66
(dp1774
sg75
g456
sg68
(lp1775
g61
(g82
g63
NtRp1776
(dp1777
g66
(dp1778
g86
g87
ssg75
g1772
sg68
(lp1779
S'wsgi_url_scheme'
p1780
asbag61
(g82
g63
NtRp1781
(dp1782
g66
(dp1783
g93
g94
ssg75
g1772
sg68
(lp1784
S':'
asbag61
(g82
g63
NtRp1785
(dp1786
g66
(dp1787
sg75
g1772
sg68
(lp1788
g61
(g62
g63
NtRp1789
(dp1790
g66
(dp1791
g74
I4
ssg75
g1785
sg68
(lp1792
S'http'
p1793
asbasbasbag61
(g77
g63
NtRp1794
(dp1795
g66
(dp1796
sg75
g456
sg68
(lp1797
g61
(g82
g63
NtRp1798
(dp1799
g66
(dp1800
g86
g87
ssg75
g1794
sg68
(lp1801
S'wsgi_version'
p1802
asbag61
(g82
g63
NtRp1803
(dp1804
g66
(dp1805
g93
g94
ssg75
g1794
sg68
(lp1806
S':'
asbag61
(g82
g63
NtRp1807
(dp1808
g66
(dp1809
sg75
g1794
sg68
(lp1810
g61
(g62
g63
NtRp1811
(dp1812
g66
(dp1813
g74
I4
ssg75
g1807
sg68
(lp1814
g61
(g70
g63
NtRp1815
(dp1816
g66
(dp1817
g74
I3
ssg75
Nsg68
(lp1818
g61
(g77
g63
NtRp1819
(dp1820
g66
(dp1821
sg75
g1815
sg68
(lp1822
g61
(g82
g63
NtRp1823
(dp1824
g66
(dp1825
sg75
g1819
sg68
(lp1826
g61
(g62
g63
NtRp1827
(dp1828
g66
(dp1829
g74
I3
ssg75
g1823
sg68
(lp1830
S'1'
asbasbasbag61
(g77
g63
NtRp1831
(dp1832
g66
(dp1833
sg75
g1815
sg68
(lp1834
g61
(g82
g63
NtRp1835
(dp1836
g66
(dp1837
sg75
g1831
sg68
(lp1838
g61
(g62
g63
NtRp1839
(dp1840
g66
(dp1841
g74
I3
ssg75
g1835
sg68
(lp1842
S'1'
asbasbasbasbasbasbasbasbasbasbasbag61
(g77
g63
NtRp1843
(dp1844
g66
(dp1845
sg75
g71
sg68
(lp1846
g61
(g82
g63
NtRp1847
(dp1848
g66
(dp1849
g86
g87
ssg75
g1843
sg68
(lp1850
S'extension'
p1851
asbag61
(g82
g63
NtRp1852
(dp1853
g66
(dp1854
g93
g94
ssg75
g1843
sg68
(lp1855
S':'
asbag61
(g82
g63
NtRp1856
(dp1857
g66
(dp1858
sg75
g1843
sg68
(lp1859
g61
(g62
g63
NtRp1860
(dp1861
g66
(dp1862
g74
I5
ssg75
g1856
sg68
(lp1863
S'html'
p1864
asbasbasbag61
(g77
g63
NtRp1865
(dp1866
g66
(dp1867
sg75
g71
sg68
(lp1868
g61
(g82
g63
NtRp1869
(dp1870
g66
(dp1871
g86
g87
ssg75
g1865
sg68
(lp1872
S'folder'
p1873
asbag61
(g82
g63
NtRp1874
(dp1875
g66
(dp1876
g93
g94
ssg75
g1865
sg68
(lp1877
S':'
asbag61
(g82
g63
NtRp1878
(dp1879
g66
(dp1880
sg75
g1865
sg68
(lp1881
g61
(g62
g63
NtRp1882
(dp1883
g66
(dp1884
g74
I5
ssg75
g1878
sg68
(lp1885
S'/var/www/web2py/applications/Threads_Beta/'
p1886
asbasbasbag61
(g77
g63
NtRp1887
(dp1888
g66
(dp1889
sg75
g71
sg68
(lp1890
g61
(g82
g63
NtRp1891
(dp1892
g66
(dp1893
g86
g87
ssg75
g1887
sg68
(lp1894
S'function'
p1895
asbag61
(g82
g63
NtRp1896
(dp1897
g66
(dp1898
g93
g94
ssg75
g1887
sg68
(lp1899
S':'
asbag61
(g82
g63
NtRp1900
(dp1901
g66
(dp1902
sg75
g1887
sg68
(lp1903
g61
(g62
g63
NtRp1904
(dp1905
g66
(dp1906
g74
I5
ssg75
g1900
sg68
(lp1907
S'judge'
p1908
asbasbasbag61
(g77
g63
NtRp1909
(dp1910
g66
(dp1911
sg75
g71
sg68
(lp1912
g61
(g82
g63
NtRp1913
(dp1914
g66
(dp1915
g86
g87
ssg75
g1909
sg68
(lp1916
S'get_vars'
p1917
asbag61
(g82
g63
NtRp1918
(dp1919
g66
(dp1920
g93
g94
ssg75
g1909
sg68
(lp1921
S':'
asbag61
(g82
g63
NtRp1922
(dp1923
g66
(dp1924
sg75
g1909
sg68
(lp1925
g61
(g62
g63
NtRp1926
(dp1927
g66
(dp1928
g74
I5
ssg75
g1922
sg68
(lp1929
g61
(g70
g63
NtRp1930
(dp1931
g66
(dp1932
g74
I4
ssg75
Nsg68
(lp1933
g61
(g77
g63
NtRp1934
(dp1935
g66
(dp1936
sg75
g1930
sg68
(lp1937
g61
(g82
g63
NtRp1938
(dp1939
g66
(dp1940
g86
g87
ssg75
g1934
sg68
(lp1941
S'event_id'
p1942
asbag61
(g82
g63
NtRp1943
(dp1944
g66
(dp1945
g93
g94
ssg75
g1934
sg68
(lp1946
S':'
asbag61
(g82
g63
NtRp1947
(dp1948
g66
(dp1949
sg75
g1934
sg68
(lp1950
g61
(g62
g63
NtRp1951
(dp1952
g66
(dp1953
g74
I4
ssg75
g1947
sg68
(lp1954
S'1'
asbasbasbag61
(g77
g63
NtRp1955
(dp1956
g66
(dp1957
sg75
g1930
sg68
(lp1958
g61
(g82
g63
NtRp1959
(dp1960
g66
(dp1961
g86
g87
ssg75
g1955
sg68
(lp1962
S'question_no'
p1963
asbag61
(g82
g63
NtRp1964
(dp1965
g66
(dp1966
g93
g94
ssg75
g1955
sg68
(lp1967
S':'
asbag61
(g82
g63
NtRp1968
(dp1969
g66
(dp1970
sg75
g1955
sg68
(lp1971
g61
(g62
g63
NtRp1972
(dp1973
g66
(dp1974
g74
I4
ssg75
g1968
sg68
(lp1975
S'3'
asbasbasbasbasbasbasbag61
(g77
g63
NtRp1976
(dp1977
g66
(dp1978
sg75
g71
sg68
(lp1979
g61
(g82
g63
NtRp1980
(dp1981
g66
(dp1982
g86
g87
ssg75
g1976
sg68
(lp1983
S'global_settings'
p1984
asbag61
(g82
g63
NtRp1985
(dp1986
g66
(dp1987
g93
g94
ssg75
g1976
sg68
(lp1988
S':'
asbag61
(g82
g63
NtRp1989
(dp1990
g66
(dp1991
sg75
g1976
sg68
(lp1992
g61
(g62
g63
NtRp1993
(dp1994
g66
(dp1995
g74
I5
ssg75
g1989
sg68
(lp1996
g61
(g70
g63
NtRp1997
(dp1998
g66
(dp1999
g74
I4
ssg75
Nsg68
(lp2000
g61
(g77
g63
NtRp2001
(dp2002
g66
(dp2003
sg75
g1997
sg68
(lp2004
g61
(g82
g63
NtRp2005
(dp2006
g66
(dp2007
g86
g87
ssg75
g2001
sg68
(lp2008
g468
asbag61
(g82
g63
NtRp2009
(dp2010
g66
(dp2011
g93
g94
ssg75
g2001
sg68
(lp2012
S':'
asbag61
(g82
g63
NtRp2013
(dp2014
g66
(dp2015
sg75
g2001
sg68
(lp2016
g61
(g62
g63
NtRp2017
(dp2018
g66
(dp2019
g74
I4
ssg75
g2013
sg68
(lp2020
S"set(['/var/www/web2py/applications/Threads_Beta/', '/var/www/web2py/applications/welcome/', '/var/www/web2py/applications/ChatBot_V4/', '/var/www/web2py/applications/admin/'])"
p2021
asbasbasbag61
(g77
g63
NtRp2022
(dp2023
g66
(dp2024
sg75
g1997
sg68
(lp2025
g61
(g82
g63
NtRp2026
(dp2027
g66
(dp2028
g86
g87
ssg75
g2022
sg68
(lp2029
g490
asbag61
(g82
g63
NtRp2030
(dp2031
g66
(dp2032
g93
g94
ssg75
g2022
sg68
(lp2033
S':'
asbag61
(g82
g63
NtRp2034
(dp2035
g66
(dp2036
sg75
g2022
sg68
(lp2037
g61
(g62
g63
NtRp2038
(dp2039
g66
(dp2040
g74
I4
ssg75
g2034
sg68
(lp2041
g503
asbasbasbag61
(g77
g63
NtRp2042
(dp2043
g66
(dp2044
sg75
g1997
sg68
(lp2045
g61
(g82
g63
NtRp2046
(dp2047
g66
(dp2048
g86
g87
ssg75
g2042
sg68
(lp2049
g556
asbag61
(g82
g63
NtRp2050
(dp2051
g66
(dp2052
g93
g94
ssg75
g2042
sg68
(lp2053
S':'
asbag61
(g82
g63
NtRp2054
(dp2055
g66
(dp2056
sg75
g2042
sg68
(lp2057
g61
(g62
g63
NtRp2058
(dp2059
g66
(dp2060
g74
I4
ssg75
g2054
sg68
(lp2061
S'set([])'
p2062
asbasbasbag61
(g77
g63
NtRp2063
(dp2064
g66
(dp2065
sg75
g1997
sg68
(lp2066
g61
(g82
g63
NtRp2067
(dp2068
g66
(dp2069
g86
g87
ssg75
g2063
sg68
(lp2070
g578
asbag61
(g82
g63
NtRp2071
(dp2072
g66
(dp2073
g93
g94
ssg75
g2063
sg68
(lp2074
S':'
asbag61
(g82
g63
NtRp2075
(dp2076
g66
(dp2077
sg75
g2063
sg68
(lp2078
g61
(g62
g63
NtRp2079
(dp2080
g66
(dp2081
g74
I4
ssg75
g2075
sg68
(lp2082
g104
asbasbasbag61
(g77
g63
NtRp2083
(dp2084
g66
(dp2085
sg75
g1997
sg68
(lp2086
g61
(g82
g63
NtRp2087
(dp2088
g66
(dp2089
g86
g87
ssg75
g2083
sg68
(lp2090
g643
asbag61
(g82
g63
NtRp2091
(dp2092
g66
(dp2093
g93
g94
ssg75
g2083
sg68
(lp2094
S':'
asbag61
(g82
g63
NtRp2095
(dp2096
g66
(dp2097
sg75
g2083
sg68
(lp2098
g61
(g62
g63
NtRp2099
(dp2100
g66
(dp2101
g74
I4
ssg75
g2095
sg68
(lp2102
g503
asbasbasbag61
(g77
g63
NtRp2103
(dp2104
g66
(dp2105
sg75
g1997
sg68
(lp2106
g61
(g82
g63
NtRp2107
(dp2108
g66
(dp2109
g86
g87
ssg75
g2103
sg68
(lp2110
g884
asbag61
(g82
g63
NtRp2111
(dp2112
g66
(dp2113
g93
g94
ssg75
g2103
sg68
(lp2114
S':'
asbag61
(g82
g63
NtRp2115
(dp2116
g66
(dp2117
sg75
g2103
sg68
(lp2118
g61
(g62
g63
NtRp2119
(dp2120
g66
(dp2121
g74
I4
ssg75
g2115
sg68
(lp2122
g104
asbasbasbag61
(g77
g63
NtRp2123
(dp2124
g66
(dp2125
sg75
g1997
sg68
(lp2126
g61
(g82
g63
NtRp2127
(dp2128
g66
(dp2129
g86
g87
ssg75
g2123
sg68
(lp2130
g905
asbag61
(g82
g63
NtRp2131
(dp2132
g66
(dp2133
g93
g94
ssg75
g2123
sg68
(lp2134
S':'
asbag61
(g82
g63
NtRp2135
(dp2136
g66
(dp2137
sg75
g2123
sg68
(lp2138
g61
(g62
g63
NtRp2139
(dp2140
g66
(dp2141
g74
I4
ssg75
g2135
sg68
(lp2142
g104
asbasbasbag61
(g77
g63
NtRp2143
(dp2144
g66
(dp2145
sg75
g1997
sg68
(lp2146
g61
(g82
g63
NtRp2147
(dp2148
g66
(dp2149
g86
g87
ssg75
g2143
sg68
(lp2150
g1562
asbag61
(g82
g63
NtRp2151
(dp2152
g66
(dp2153
g93
g94
ssg75
g2143
sg68
(lp2154
S':'
asbag61
(g82
g63
NtRp2155
(dp2156
g66
(dp2157
sg75
g2143
sg68
(lp2158
g61
(g62
g63
NtRp2159
(dp2160
g66
(dp2161
g74
I4
ssg75
g2155
sg68
(lp2162
g61
(g70
g63
NtRp2163
(dp2164
g66
(dp2165
g74
I3
ssg75
Nsg68
(lp2166
g61
(g77
g63
NtRp2167
(dp2168
g66
(dp2169
sg75
g2163
sg68
(lp2170
g61
(g82
g63
NtRp2171
(dp2172
g66
(dp2173
sg75
g2167
sg68
(lp2174
g61
(g62
g63
NtRp2175
(dp2176
g66
(dp2177
g74
I3
ssg75
g2171
sg68
(lp2178
S'1'
asbasbasbag61
(g77
g63
NtRp2179
(dp2180
g66
(dp2181
sg75
g2163
sg68
(lp2182
g61
(g82
g63
NtRp2183
(dp2184
g66
(dp2185
sg75
g2179
sg68
(lp2186
g61
(g62
g63
NtRp2187
(dp2188
g66
(dp2189
g74
I3
ssg75
g2183
sg68
(lp2190
S'99'
p2191
asbasbasbag61
(g77
g63
NtRp2192
(dp2193
g66
(dp2194
sg75
g2163
sg68
(lp2195
g61
(g82
g63
NtRp2196
(dp2197
g66
(dp2198
sg75
g2192
sg68
(lp2199
g61
(g62
g63
NtRp2200
(dp2201
g66
(dp2202
g74
I3
ssg75
g2196
sg68
(lp2203
S'4'
asbasbasbag61
(g77
g63
NtRp2204
(dp2205
g66
(dp2206
sg75
g2163
sg68
(lp2207
g61
(g82
g63
NtRp2208
(dp2209
g66
(dp2210
sg75
g2204
sg68
(lp2211
g61
(g62
g63
NtRp2212
(dp2213
g66
(dp2214
g74
I3
ssg75
g2208
sg68
(lp2215
S'datetime.datetime(2011, 12, 14, 14, 46, 14)'
p2216
asbasbasbag61
(g77
g63
NtRp2217
(dp2218
g66
(dp2219
sg75
g2163
sg68
(lp2220
g61
(g82
g63
NtRp2221
(dp2222
g66
(dp2223
sg75
g2217
sg68
(lp2224
g61
(g62
g63
NtRp2225
(dp2226
g66
(dp2227
g74
I3
ssg75
g2221
sg68
(lp2228
g1641
asbasbasbasbasbasbasbasbasbasbasbag61
(g77
g63
NtRp2229
(dp2230
g66
(dp2231
sg75
g71
sg68
(lp2232
g61
(g82
g63
NtRp2233
(dp2234
g66
(dp2235
g86
g87
ssg75
g2229
sg68
(lp2236
S'is_https'
p2237
asbag61
(g82
g63
NtRp2238
(dp2239
g66
(dp2240
g93
g94
ssg75
g2229
sg68
(lp2241
S':'
asbag61
(g82
g63
NtRp2242
(dp2243
g66
(dp2244
sg75
g2229
sg68
(lp2245
g61
(g62
g63
NtRp2246
(dp2247
g66
(dp2248
g74
I5
ssg75
g2242
sg68
(lp2249
g104
asbasbasbag61
(g77
g63
NtRp2250
(dp2251
g66
(dp2252
sg75
g71
sg68
(lp2253
g61
(g82
g63
NtRp2254
(dp2255
g66
(dp2256
g86
g87
ssg75
g2250
sg68
(lp2257
S'is_local'
p2258
asbag61
(g82
g63
NtRp2259
(dp2260
g66
(dp2261
g93
g94
ssg75
g2250
sg68
(lp2262
S':'
asbag61
(g82
g63
NtRp2263
(dp2264
g66
(dp2265
sg75
g2250
sg68
(lp2266
g61
(g62
g63
NtRp2267
(dp2268
g66
(dp2269
g74
I5
ssg75
g2263
sg68
(lp2270
g104
asbasbasbag61
(g77
g63
NtRp2271
(dp2272
g66
(dp2273
sg75
g71
sg68
(lp2274
g61
(g82
g63
NtRp2275
(dp2276
g66
(dp2277
g86
g87
ssg75
g2271
sg68
(lp2278
S'is_restful'
p2279
asbag61
(g82
g63
NtRp2280
(dp2281
g66
(dp2282
g93
g94
ssg75
g2271
sg68
(lp2283
S':'
asbag61
(g82
g63
NtRp2284
(dp2285
g66
(dp2286
sg75
g2271
sg68
(lp2287
g61
(g62
g63
NtRp2288
(dp2289
g66
(dp2290
g74
I5
ssg75
g2284
sg68
(lp2291
g104
asbasbasbag61
(g77
g63
NtRp2292
(dp2293
g66
(dp2294
sg75
g71
sg68
(lp2295
g61
(g82
g63
NtRp2296
(dp2297
g66
(dp2298
g86
g87
ssg75
g2292
sg68
(lp2299
S'now'
p2300
asbag61
(g82
g63
NtRp2301
(dp2302
g66
(dp2303
g93
g94
ssg75
g2292
sg68
(lp2304
S':'
asbag61
(g82
g63
NtRp2305
(dp2306
g66
(dp2307
sg75
g2292
sg68
(lp2308
g61
(g62
g63
NtRp2309
(dp2310
g66
(dp2311
g74
I5
ssg75
g2305
sg68
(lp2312
S'datetime.datetime(2012, 11, 23, 19, 3, 20, 282657)'
p2313
asbasbasbag61
(g77
g63
NtRp2314
(dp2315
g66
(dp2316
sg75
g71
sg68
(lp2317
g61
(g82
g63
NtRp2318
(dp2319
g66
(dp2320
g86
g87
ssg75
g2314
sg68
(lp2321
S'post_vars'
p2322
asbag61
(g82
g63
NtRp2323
(dp2324
g66
(dp2325
g93
g94
ssg75
g2314
sg68
(lp2326
S':'
asbag61
(g82
g63
NtRp2327
(dp2328
g66
(dp2329
sg75
g2314
sg68
(lp2330
g61
(g62
g63
NtRp2331
(dp2332
g66
(dp2333
g74
I5
ssg75
g2327
sg68
(lp2334
g61
(g70
g63
NtRp2335
(dp2336
g66
(dp2337
g74
I4
ssg75
Nsg68
(lp2338
g61
(g77
g63
NtRp2339
(dp2340
g66
(dp2341
sg75
g2335
sg68
(lp2342
g61
(g82
g63
NtRp2343
(dp2344
g66
(dp2345
g86
g87
ssg75
g2339
sg68
(lp2346
S'file'
p2347
asbag61
(g82
g63
NtRp2348
(dp2349
g66
(dp2350
g93
g94
ssg75
g2339
sg68
(lp2351
S':'
asbag61
(g82
g63
NtRp2352
(dp2353
g66
(dp2354
sg75
g2339
sg68
(lp2355
g61
(g62
g63
NtRp2356
(dp2357
g66
(dp2358
g74
I4
ssg75
g2352
sg68
(lp2359
S'FieldStorage object'
p2360
asbasbasbasbasbasbasbag61
(g77
g63
NtRp2361
(dp2362
g66
(dp2363
sg75
g71
sg68
(lp2364
g61
(g82
g63
NtRp2365
(dp2366
g66
(dp2367
g86
g87
ssg75
g2361
sg68
(lp2368
S'url'
p2369
asbag61
(g82
g63
NtRp2370
(dp2371
g66
(dp2372
g93
g94
ssg75
g2361
sg68
(lp2373
S':'
asbag61
(g82
g63
NtRp2374
(dp2375
g66
(dp2376
sg75
g2361
sg68
(lp2377
g61
(g62
g63
NtRp2378
(dp2379
g66
(dp2380
g74
I5
ssg75
g2374
sg68
(lp2381
S'/web2py/Threads_Beta/default/judge'
p2382
asbasbasbag61
(g77
g63
NtRp2383
(dp2384
g66
(dp2385
sg75
g71
sg68
(lp2386
g61
(g82
g63
NtRp2387
(dp2388
g66
(dp2389
g86
g87
ssg75
g2383
sg68
(lp2390
S'utcnow'
p2391
asbag61
(g82
g63
NtRp2392
(dp2393
g66
(dp2394
g93
g94
ssg75
g2383
sg68
(lp2395
S':'
asbag61
(g82
g63
NtRp2396
(dp2397
g66
(dp2398
sg75
g2383
sg68
(lp2399
g61
(g62
g63
NtRp2400
(dp2401
g66
(dp2402
g74
I5
ssg75
g2396
sg68
(lp2403
S'datetime.datetime(2012, 11, 23, 13, 33, 20, 282685)'
p2404
asbasbasbag61
(g77
g63
NtRp2405
(dp2406
g66
(dp2407
sg75
g71
sg68
(lp2408
g61
(g82
g63
NtRp2409
(dp2410
g66
(dp2411
g86
g87
ssg75
g2405
sg68
(lp2412
S'uuid'
p2413
asbag61
(g82
g63
NtRp2414
(dp2415
g66
(dp2416
g93
g94
ssg75
g2405
sg68
(lp2417
S':'
asbag61
(g82
g63
NtRp2418
(dp2419
g66
(dp2420
sg75
g2405
sg68
(lp2421
g61
(g62
g63
NtRp2422
(dp2423
g66
(dp2424
g74
I5
ssg75
g2418
sg68
(lp2425
S'Threads_Beta/10.1.34.61.2012-11-23.19-03-20.daf49dd3-37af-423c-8961-9a1ddf8c57f1'
p2426
asbasbasbag61
(g77
g63
NtRp2427
(dp2428
g66
(dp2429
sg75
g71
sg68
(lp2430
g61
(g82
g63
NtRp2431
(dp2432
g66
(dp2433
g86
g87
ssg75
g2427
sg68
(lp2434
S'vars'
p2435
asbag61
(g82
g63
NtRp2436
(dp2437
g66
(dp2438
g93
g94
ssg75
g2427
sg68
(lp2439
S':'
asbag61
(g82
g63
NtRp2440
(dp2441
g66
(dp2442
sg75
g2427
sg68
(lp2443
g61
(g62
g63
NtRp2444
(dp2445
g66
(dp2446
g74
I5
ssg75
g2440
sg68
(lp2447
g61
(g70
g63
NtRp2448
(dp2449
g66
(dp2450
g74
I4
ssg75
Nsg68
(lp2451
g61
(g77
g63
NtRp2452
(dp2453
g66
(dp2454
sg75
g2448
sg68
(lp2455
g61
(g82
g63
NtRp2456
(dp2457
g66
(dp2458
g86
g87
ssg75
g2452
sg68
(lp2459
g1942
asbag61
(g82
g63
NtRp2460
(dp2461
g66
(dp2462
g93
g94
ssg75
g2452
sg68
(lp2463
S':'
asbag61
(g82
g63
NtRp2464
(dp2465
g66
(dp2466
sg75
g2452
sg68
(lp2467
g61
(g62
g63
NtRp2468
(dp2469
g66
(dp2470
g74
I4
ssg75
g2464
sg68
(lp2471
S'1'
asbasbasbag61
(g77
g63
NtRp2472
(dp2473
g66
(dp2474
sg75
g2448
sg68
(lp2475
g61
(g82
g63
NtRp2476
(dp2477
g66
(dp2478
g86
g87
ssg75
g2472
sg68
(lp2479
g2347
asbag61
(g82
g63
NtRp2480
(dp2481
g66
(dp2482
g93
g94
ssg75
g2472
sg68
(lp2483
S':'
asbag61
(g82
g63
NtRp2484
(dp2485
g66
(dp2486
sg75
g2472
sg68
(lp2487
g61
(g62
g63
NtRp2488
(dp2489
g66
(dp2490
g74
I4
ssg75
g2484
sg68
(lp2491
g2360
asbasbasbag61
(g77
g63
NtRp2492
(dp2493
g66
(dp2494
sg75
g2448
sg68
(lp2495
g61
(g82
g63
NtRp2496
(dp2497
g66
(dp2498
g86
g87
ssg75
g2492
sg68
(lp2499
g1963
asbag61
(g82
g63
NtRp2500
(dp2501
g66
(dp2502
g93
g94
ssg75
g2492
sg68
(lp2503
S':'
asbag61
(g82
g63
NtRp2504
(dp2505
g66
(dp2506
sg75
g2492
sg68
(lp2507
g61
(g62
g63
NtRp2508
(dp2509
g66
(dp2510
g74
I4
ssg75
g2504
sg68
(lp2511
S'3'
asbasbasbasbasbasbasbag61
(g77
g63
NtRp2512
(dp2513
g66
(dp2514
sg75
g71
sg68
(lp2515
g61
(g82
g63
NtRp2516
(dp2517
g66
(dp2518
g86
g87
ssg75
g2512
sg68
(lp2519
S'wsgi'
p2520
asbag61
(g82
g63
NtRp2521
(dp2522
g66
(dp2523
g93
g94
ssg75
g2512
sg68
(lp2524
S':'
asbag61
(g82
g63
NtRp2525
(dp2526
g66
(dp2527
sg75
g2512
sg68
(lp2528
g61
(g62
g63
NtRp2529
(dp2530
g66
(dp2531
g74
I5
ssg75
g2525
sg68
(lp2532
g61
(g70
g63
NtRp2533
(dp2534
g66
(dp2535
g74
I4
ssg75
Nsg68
(lp2536
g61
(g77
g63
NtRp2537
(dp2538
g66
(dp2539
sg75
g2533
sg68
(lp2540
g61
(g82
g63
NtRp2541
(dp2542
g66
(dp2543
g86
g87
ssg75
g2537
sg68
(lp2544
S'environ'
p2545
asbag61
(g82
g63
NtRp2546
(dp2547
g66
(dp2548
g93
g94
ssg75
g2537
sg68
(lp2549
S':'
asbag61
(g82
g63
NtRp2550
(dp2551
g66
(dp2552
sg75
g2537
sg68
(lp2553
g61
(g62
g63
NtRp2554
(dp2555
g66
(dp2556
g74
I4
ssg75
g2550
sg68
(lp2557
g61
(g70
g63
NtRp2558
(dp2559
g66
(dp2560
g74
I3
ssg75
Nsg68
(lp2561
g61
(g77
g63
NtRp2562
(dp2563
g66
(dp2564
sg75
g2558
sg68
(lp2565
g61
(g82
g63
NtRp2566
(dp2567
g66
(dp2568
g86
g87
ssg75
g2562
sg68
(lp2569
S'CONTENT_LENGTH'
p2570
asbag61
(g82
g63
NtRp2571
(dp2572
g66
(dp2573
g93
g94
ssg75
g2562
sg68
(lp2574
S':'
asbag61
(g82
g63
NtRp2575
(dp2576
g66
(dp2577
sg75
g2562
sg68
(lp2578
g61
(g62
g63
NtRp2579
(dp2580
g66
(dp2581
g74
I3
ssg75
g2575
sg68
(lp2582
g525
asbasbasbag61
(g77
g63
NtRp2583
(dp2584
g66
(dp2585
sg75
g2558
sg68
(lp2586
g61
(g82
g63
NtRp2587
(dp2588
g66
(dp2589
g86
g87
ssg75
g2583
sg68
(lp2590
S'CONTENT_TYPE'
p2591
asbag61
(g82
g63
NtRp2592
(dp2593
g66
(dp2594
g93
g94
ssg75
g2583
sg68
(lp2595
S':'
asbag61
(g82
g63
NtRp2596
(dp2597
g66
(dp2598
sg75
g2583
sg68
(lp2599
g61
(g62
g63
NtRp2600
(dp2601
g66
(dp2602
g74
I3
ssg75
g2596
sg68
(lp2603
g547
asbasbasbag61
(g77
g63
NtRp2604
(dp2605
g66
(dp2606
sg75
g2558
sg68
(lp2607
g61
(g82
g63
NtRp2608
(dp2609
g66
(dp2610
g86
g87
ssg75
g2604
sg68
(lp2611
S'DOCUMENT_ROOT'
p2612
asbag61
(g82
g63
NtRp2613
(dp2614
g66
(dp2615
g93
g94
ssg75
g2604
sg68
(lp2616
S':'
asbag61
(g82
g63
NtRp2617
(dp2618
g66
(dp2619
sg75
g2604
sg68
(lp2620
g61
(g62
g63
NtRp2621
(dp2622
g66
(dp2623
g74
I3
ssg75
g2617
sg68
(lp2624
g612
asbasbasbag61
(g77
g63
NtRp2625
(dp2626
g66
(dp2627
sg75
g2558
sg68
(lp2628
g61
(g82
g63
NtRp2629
(dp2630
g66
(dp2631
g86
g87
ssg75
g2625
sg68
(lp2632
S'GATEWAY_INTERFACE'
p2633
asbag61
(g82
g63
NtRp2634
(dp2635
g66
(dp2636
g93
g94
ssg75
g2625
sg68
(lp2637
S':'
asbag61
(g82
g63
NtRp2638
(dp2639
g66
(dp2640
sg75
g2625
sg68
(lp2641
g61
(g62
g63
NtRp2642
(dp2643
g66
(dp2644
g74
I3
ssg75
g2638
sg68
(lp2645
g634
asbasbasbag61
(g77
g63
NtRp2646
(dp2647
g66
(dp2648
sg75
g2558
sg68
(lp2649
g61
(g82
g63
NtRp2650
(dp2651
g66
(dp2652
g86
g87
ssg75
g2646
sg68
(lp2653
S'HTTP_ACCEPT'
p2654
asbag61
(g82
g63
NtRp2655
(dp2656
g66
(dp2657
g93
g94
ssg75
g2646
sg68
(lp2658
S':'
asbag61
(g82
g63
NtRp2659
(dp2660
g66
(dp2661
sg75
g2646
sg68
(lp2662
g61
(g62
g63
NtRp2663
(dp2664
g66
(dp2665
g74
I3
ssg75
g2659
sg68
(lp2666
g677
asbasbasbag61
(g77
g63
NtRp2667
(dp2668
g66
(dp2669
sg75
g2558
sg68
(lp2670
g61
(g82
g63
NtRp2671
(dp2672
g66
(dp2673
g86
g87
ssg75
g2667
sg68
(lp2674
S'HTTP_ACCEPT_ENCODING'
p2675
asbag61
(g82
g63
NtRp2676
(dp2677
g66
(dp2678
g93
g94
ssg75
g2667
sg68
(lp2679
S':'
asbag61
(g82
g63
NtRp2680
(dp2681
g66
(dp2682
sg75
g2667
sg68
(lp2683
g61
(g62
g63
NtRp2684
(dp2685
g66
(dp2686
g74
I3
ssg75
g2680
sg68
(lp2687
g699
asbasbasbag61
(g77
g63
NtRp2688
(dp2689
g66
(dp2690
sg75
g2558
sg68
(lp2691
g61
(g82
g63
NtRp2692
(dp2693
g66
(dp2694
g86
g87
ssg75
g2688
sg68
(lp2695
S'HTTP_ACCEPT_LANGUAGE'
p2696
asbag61
(g82
g63
NtRp2697
(dp2698
g66
(dp2699
g93
g94
ssg75
g2688
sg68
(lp2700
S':'
asbag61
(g82
g63
NtRp2701
(dp2702
g66
(dp2703
sg75
g2688
sg68
(lp2704
g61
(g62
g63
NtRp2705
(dp2706
g66
(dp2707
g74
I3
ssg75
g2701
sg68
(lp2708
g721
asbasbasbag61
(g77
g63
NtRp2709
(dp2710
g66
(dp2711
sg75
g2558
sg68
(lp2712
g61
(g82
g63
NtRp2713
(dp2714
g66
(dp2715
g86
g87
ssg75
g2709
sg68
(lp2716
S'HTTP_CACHE_CONTROL'
p2717
asbag61
(g82
g63
NtRp2718
(dp2719
g66
(dp2720
g93
g94
ssg75
g2709
sg68
(lp2721
S':'
asbag61
(g82
g63
NtRp2722
(dp2723
g66
(dp2724
sg75
g2709
sg68
(lp2725
g61
(g62
g63
NtRp2726
(dp2727
g66
(dp2728
g74
I3
ssg75
g2722
sg68
(lp2729
g743
asbasbasbag61
(g77
g63
NtRp2730
(dp2731
g66
(dp2732
sg75
g2558
sg68
(lp2733
g61
(g82
g63
NtRp2734
(dp2735
g66
(dp2736
g86
g87
ssg75
g2730
sg68
(lp2737
S'HTTP_CONNECTION'
p2738
asbag61
(g82
g63
NtRp2739
(dp2740
g66
(dp2741
g93
g94
ssg75
g2730
sg68
(lp2742
S':'
asbag61
(g82
g63
NtRp2743
(dp2744
g66
(dp2745
sg75
g2730
sg68
(lp2746
g61
(g62
g63
NtRp2747
(dp2748
g66
(dp2749
g74
I3
ssg75
g2743
sg68
(lp2750
g765
asbasbasbag61
(g77
g63
NtRp2751
(dp2752
g66
(dp2753
sg75
g2558
sg68
(lp2754
g61
(g82
g63
NtRp2755
(dp2756
g66
(dp2757
g86
g87
ssg75
g2751
sg68
(lp2758
S'HTTP_COOKIE'
p2759
asbag61
(g82
g63
NtRp2760
(dp2761
g66
(dp2762
g93
g94
ssg75
g2751
sg68
(lp2763
S':'
asbag61
(g82
g63
NtRp2764
(dp2765
g66
(dp2766
sg75
g2751
sg68
(lp2767
g61
(g62
g63
NtRp2768
(dp2769
g66
(dp2770
g74
I3
ssg75
g2764
sg68
(lp2771
g787
asbasbasbag61
(g77
g63
NtRp2772
(dp2773
g66
(dp2774
sg75
g2558
sg68
(lp2775
g61
(g82
g63
NtRp2776
(dp2777
g66
(dp2778
g86
g87
ssg75
g2772
sg68
(lp2779
S'HTTP_HOST'
p2780
asbag61
(g82
g63
NtRp2781
(dp2782
g66
(dp2783
g93
g94
ssg75
g2772
sg68
(lp2784
S':'
asbag61
(g82
g63
NtRp2785
(dp2786
g66
(dp2787
sg75
g2772
sg68
(lp2788
g61
(g62
g63
NtRp2789
(dp2790
g66
(dp2791
g74
I3
ssg75
g2785
sg68
(lp2792
g809
asbasbasbag61
(g77
g63
NtRp2793
(dp2794
g66
(dp2795
sg75
g2558
sg68
(lp2796
g61
(g82
g63
NtRp2797
(dp2798
g66
(dp2799
g86
g87
ssg75
g2793
sg68
(lp2800
S'HTTP_PRAGMA'
p2801
asbag61
(g82
g63
NtRp2802
(dp2803
g66
(dp2804
g93
g94
ssg75
g2793
sg68
(lp2805
S':'
asbag61
(g82
g63
NtRp2806
(dp2807
g66
(dp2808
sg75
g2793
sg68
(lp2809
g61
(g62
g63
NtRp2810
(dp2811
g66
(dp2812
g74
I3
ssg75
g2806
sg68
(lp2813
g831
asbasbasbag61
(g77
g63
NtRp2814
(dp2815
g66
(dp2816
sg75
g2558
sg68
(lp2817
g61
(g82
g63
NtRp2818
(dp2819
g66
(dp2820
g86
g87
ssg75
g2814
sg68
(lp2821
S'HTTP_REFERER'
p2822
asbag61
(g82
g63
NtRp2823
(dp2824
g66
(dp2825
g93
g94
ssg75
g2814
sg68
(lp2826
S':'
asbag61
(g82
g63
NtRp2827
(dp2828
g66
(dp2829
sg75
g2814
sg68
(lp2830
g61
(g62
g63
NtRp2831
(dp2832
g66
(dp2833
g74
I3
ssg75
g2827
sg68
(lp2834
g853
asbasbasbag61
(g77
g63
NtRp2835
(dp2836
g66
(dp2837
sg75
g2558
sg68
(lp2838
g61
(g82
g63
NtRp2839
(dp2840
g66
(dp2841
g86
g87
ssg75
g2835
sg68
(lp2842
S'HTTP_USER_AGENT'
p2843
asbag61
(g82
g63
NtRp2844
(dp2845
g66
(dp2846
g93
g94
ssg75
g2835
sg68
(lp2847
S':'
asbag61
(g82
g63
NtRp2848
(dp2849
g66
(dp2850
sg75
g2835
sg68
(lp2851
g61
(g62
g63
NtRp2852
(dp2853
g66
(dp2854
g74
I3
ssg75
g2848
sg68
(lp2855
g875
asbasbasbag61
(g77
g63
NtRp2856
(dp2857
g66
(dp2858
sg75
g2558
sg68
(lp2859
g61
(g82
g63
NtRp2860
(dp2861
g66
(dp2862
g86
g87
ssg75
g2856
sg68
(lp2863
S'PATH_INFO'
p2864
asbag61
(g82
g63
NtRp2865
(dp2866
g66
(dp2867
g93
g94
ssg75
g2856
sg68
(lp2868
S':'
asbag61
(g82
g63
NtRp2869
(dp2870
g66
(dp2871
sg75
g2856
sg68
(lp2872
g61
(g62
g63
NtRp2873
(dp2874
g66
(dp2875
g74
I3
ssg75
g2869
sg68
(lp2876
g1182
asbasbasbag61
(g77
g63
NtRp2877
(dp2878
g66
(dp2879
sg75
g2558
sg68
(lp2880
g61
(g82
g63
NtRp2881
(dp2882
g66
(dp2883
g86
g87
ssg75
g2877
sg68
(lp2884
S'PATH_TRANSLATED'
p2885
asbag61
(g82
g63
NtRp2886
(dp2887
g66
(dp2888
g93
g94
ssg75
g2877
sg68
(lp2889
S':'
asbag61
(g82
g63
NtRp2890
(dp2891
g66
(dp2892
sg75
g2877
sg68
(lp2893
g61
(g62
g63
NtRp2894
(dp2895
g66
(dp2896
g74
I3
ssg75
g2890
sg68
(lp2897
g1204
asbasbasbag61
(g77
g63
NtRp2898
(dp2899
g66
(dp2900
sg75
g2558
sg68
(lp2901
g61
(g82
g63
NtRp2902
(dp2903
g66
(dp2904
g86
g87
ssg75
g2898
sg68
(lp2905
S'QUERY_STRING'
p2906
asbag61
(g82
g63
NtRp2907
(dp2908
g66
(dp2909
g93
g94
ssg75
g2898
sg68
(lp2910
S':'
asbag61
(g82
g63
NtRp2911
(dp2912
g66
(dp2913
sg75
g2898
sg68
(lp2914
g61
(g62
g63
NtRp2915
(dp2916
g66
(dp2917
g74
I3
ssg75
g2911
sg68
(lp2918
g1226
asbasbasbag61
(g77
g63
NtRp2919
(dp2920
g66
(dp2921
sg75
g2558
sg68
(lp2922
g61
(g82
g63
NtRp2923
(dp2924
g66
(dp2925
g86
g87
ssg75
g2919
sg68
(lp2926
S'REMOTE_ADDR'
p2927
asbag61
(g82
g63
NtRp2928
(dp2929
g66
(dp2930
g93
g94
ssg75
g2919
sg68
(lp2931
S':'
asbag61
(g82
g63
NtRp2932
(dp2933
g66
(dp2934
sg75
g2919
sg68
(lp2935
g61
(g62
g63
NtRp2936
(dp2937
g66
(dp2938
g74
I3
ssg75
g2932
sg68
(lp2939
g194
asbasbasbag61
(g77
g63
NtRp2940
(dp2941
g66
(dp2942
sg75
g2558
sg68
(lp2943
g61
(g82
g63
NtRp2944
(dp2945
g66
(dp2946
g86
g87
ssg75
g2940
sg68
(lp2947
S'REMOTE_PORT'
p2948
asbag61
(g82
g63
NtRp2949
(dp2950
g66
(dp2951
g93
g94
ssg75
g2940
sg68
(lp2952
S':'
asbag61
(g82
g63
NtRp2953
(dp2954
g66
(dp2955
sg75
g2940
sg68
(lp2956
g61
(g62
g63
NtRp2957
(dp2958
g66
(dp2959
g74
I3
ssg75
g2953
sg68
(lp2960
g1269
asbasbasbag61
(g77
g63
NtRp2961
(dp2962
g66
(dp2963
sg75
g2558
sg68
(lp2964
g61
(g82
g63
NtRp2965
(dp2966
g66
(dp2967
g86
g87
ssg75
g2961
sg68
(lp2968
S'REQUEST_METHOD'
p2969
asbag61
(g82
g63
NtRp2970
(dp2971
g66
(dp2972
g93
g94
ssg75
g2961
sg68
(lp2973
S':'
asbag61
(g82
g63
NtRp2974
(dp2975
g66
(dp2976
sg75
g2961
sg68
(lp2977
g61
(g62
g63
NtRp2978
(dp2979
g66
(dp2980
g74
I3
ssg75
g2974
sg68
(lp2981
g1291
asbasbasbag61
(g77
g63
NtRp2982
(dp2983
g66
(dp2984
sg75
g2558
sg68
(lp2985
g61
(g82
g63
NtRp2986
(dp2987
g66
(dp2988
g86
g87
ssg75
g2982
sg68
(lp2989
S'REQUEST_URI'
p2990
asbag61
(g82
g63
NtRp2991
(dp2992
g66
(dp2993
g93
g94
ssg75
g2982
sg68
(lp2994
S':'
asbag61
(g82
g63
NtRp2995
(dp2996
g66
(dp2997
sg75
g2982
sg68
(lp2998
g61
(g62
g63
NtRp2999
(dp3000
g66
(dp3001
g74
I3
ssg75
g2995
sg68
(lp3002
g1313
asbasbasbag61
(g77
g63
NtRp3003
(dp3004
g66
(dp3005
sg75
g2558
sg68
(lp3006
g61
(g82
g63
NtRp3007
(dp3008
g66
(dp3009
g86
g87
ssg75
g3003
sg68
(lp3010
S'SCRIPT_FILENAME'
p3011
asbag61
(g82
g63
NtRp3012
(dp3013
g66
(dp3014
g93
g94
ssg75
g3003
sg68
(lp3015
S':'
asbag61
(g82
g63
NtRp3016
(dp3017
g66
(dp3018
sg75
g3003
sg68
(lp3019
g61
(g62
g63
NtRp3020
(dp3021
g66
(dp3022
g74
I3
ssg75
g3016
sg68
(lp3023
g1335
asbasbasbag61
(g77
g63
NtRp3024
(dp3025
g66
(dp3026
sg75
g2558
sg68
(lp3027
g61
(g82
g63
NtRp3028
(dp3029
g66
(dp3030
g86
g87
ssg75
g3024
sg68
(lp3031
S'SCRIPT_NAME'
p3032
asbag61
(g82
g63
NtRp3033
(dp3034
g66
(dp3035
g93
g94
ssg75
g3024
sg68
(lp3036
S':'
asbag61
(g82
g63
NtRp3037
(dp3038
g66
(dp3039
sg75
g3024
sg68
(lp3040
g61
(g62
g63
NtRp3041
(dp3042
g66
(dp3043
g74
I3
ssg75
g3037
sg68
(lp3044
g1357
asbasbasbag61
(g77
g63
NtRp3045
(dp3046
g66
(dp3047
sg75
g2558
sg68
(lp3048
g61
(g82
g63
NtRp3049
(dp3050
g66
(dp3051
g86
g87
ssg75
g3045
sg68
(lp3052
S'SERVER_ADDR'
p3053
asbag61
(g82
g63
NtRp3054
(dp3055
g66
(dp3056
g93
g94
ssg75
g3045
sg68
(lp3057
S':'
asbag61
(g82
g63
NtRp3058
(dp3059
g66
(dp3060
sg75
g3045
sg68
(lp3061
g61
(g62
g63
NtRp3062
(dp3063
g66
(dp3064
g74
I3
ssg75
g3058
sg68
(lp3065
g1379
asbasbasbag61
(g77
g63
NtRp3066
(dp3067
g66
(dp3068
sg75
g2558
sg68
(lp3069
g61
(g82
g63
NtRp3070
(dp3071
g66
(dp3072
g86
g87
ssg75
g3066
sg68
(lp3073
S'SERVER_ADMIN'
p3074
asbag61
(g82
g63
NtRp3075
(dp3076
g66
(dp3077
g93
g94
ssg75
g3066
sg68
(lp3078
S':'
asbag61
(g82
g63
NtRp3079
(dp3080
g66
(dp3081
sg75
g3066
sg68
(lp3082
g61
(g62
g63
NtRp3083
(dp3084
g66
(dp3085
g74
I3
ssg75
g3079
sg68
(lp3086
g1401
asbasbasbag61
(g77
g63
NtRp3087
(dp3088
g66
(dp3089
sg75
g2558
sg68
(lp3090
g61
(g82
g63
NtRp3091
(dp3092
g66
(dp3093
g86
g87
ssg75
g3087
sg68
(lp3094
S'SERVER_NAME'
p3095
asbag61
(g82
g63
NtRp3096
(dp3097
g66
(dp3098
g93
g94
ssg75
g3087
sg68
(lp3099
S':'
asbag61
(g82
g63
NtRp3100
(dp3101
g66
(dp3102
sg75
g3087
sg68
(lp3103
g61
(g62
g63
NtRp3104
(dp3105
g66
(dp3106
g74
I3
ssg75
g3100
sg68
(lp3107
g1423
asbasbasbag61
(g77
g63
NtRp3108
(dp3109
g66
(dp3110
sg75
g2558
sg68
(lp3111
g61
(g82
g63
NtRp3112
(dp3113
g66
(dp3114
g86
g87
ssg75
g3108
sg68
(lp3115
S'SERVER_PORT'
p3116
asbag61
(g82
g63
NtRp3117
(dp3118
g66
(dp3119
g93
g94
ssg75
g3108
sg68
(lp3120
S':'
asbag61
(g82
g63
NtRp3121
(dp3122
g66
(dp3123
sg75
g3108
sg68
(lp3124
g61
(g62
g63
NtRp3125
(dp3126
g66
(dp3127
g74
I3
ssg75
g3121
sg68
(lp3128
g1445
asbasbasbag61
(g77
g63
NtRp3129
(dp3130
g66
(dp3131
sg75
g2558
sg68
(lp3132
g61
(g82
g63
NtRp3133
(dp3134
g66
(dp3135
g86
g87
ssg75
g3129
sg68
(lp3136
S'SERVER_PROTOCOL'
p3137
asbag61
(g82
g63
NtRp3138
(dp3139
g66
(dp3140
g93
g94
ssg75
g3129
sg68
(lp3141
S':'
asbag61
(g82
g63
NtRp3142
(dp3143
g66
(dp3144
sg75
g3129
sg68
(lp3145
g61
(g62
g63
NtRp3146
(dp3147
g66
(dp3148
g74
I3
ssg75
g3142
sg68
(lp3149
g1467
asbasbasbag61
(g77
g63
NtRp3150
(dp3151
g66
(dp3152
sg75
g2558
sg68
(lp3153
g61
(g82
g63
NtRp3154
(dp3155
g66
(dp3156
g86
g87
ssg75
g3150
sg68
(lp3157
S'SERVER_SIGNATURE'
p3158
asbag61
(g82
g63
NtRp3159
(dp3160
g66
(dp3161
g93
g94
ssg75
g3150
sg68
(lp3162
S':'
asbag61
(g82
g63
NtRp3163
(dp3164
g66
(dp3165
sg75
g3150
sg68
(lp3166
g61
(g62
g63
NtRp3167
(dp3168
g66
(dp3169
g74
I3
ssg75
g3163
sg68
(lp3170
S''
asbasbasbag61
(g77
g63
NtRp3171
(dp3172
g66
(dp3173
sg75
g2558
sg68
(lp3174
g61
(g82
g63
NtRp3175
(dp3176
g66
(dp3177
g86
g87
ssg75
g3171
sg68
(lp3178
S'SERVER_SOFTWARE'
p3179
asbag61
(g82
g63
NtRp3180
(dp3181
g66
(dp3182
g93
g94
ssg75
g3171
sg68
(lp3183
S':'
asbag61
(g82
g63
NtRp3184
(dp3185
g66
(dp3186
sg75
g3171
sg68
(lp3187
g61
(g62
g63
NtRp3188
(dp3189
g66
(dp3190
g74
I3
ssg75
g3184
sg68
(lp3191
g1510
asbasbasbag61
(g77
g63
NtRp3192
(dp3193
g66
(dp3194
sg75
g2558
sg68
(lp3195
g61
(g82
g63
NtRp3196
(dp3197
g66
(dp3198
g86
g87
ssg75
g3192
sg68
(lp3199
S'WEB2PY_ORIGINAL_URI'
p3200
asbag61
(g82
g63
NtRp3201
(dp3202
g66
(dp3203
g93
g94
ssg75
g3192
sg68
(lp3204
S':'
asbag61
(g82
g63
NtRp3205
(dp3206
g66
(dp3207
sg75
g3192
sg68
(lp3208
g61
(g62
g63
NtRp3209
(dp3210
g66
(dp3211
g74
I3
ssg75
g3205
sg68
(lp3212
g1532
asbasbasbag61
(g77
g63
NtRp3213
(dp3214
g66
(dp3215
sg75
g2558
sg68
(lp3216
g61
(g82
g63
NtRp3217
(dp3218
g66
(dp3219
g86
g87
ssg75
g3213
sg68
(lp3220
S'mod_wsgi.application_group'
p3221
asbag61
(g82
g63
NtRp3222
(dp3223
g66
(dp3224
g93
g94
ssg75
g3213
sg68
(lp3225
S':'
asbag61
(g82
g63
NtRp3226
(dp3227
g66
(dp3228
sg75
g3213
sg68
(lp3229
g61
(g62
g63
NtRp3230
(dp3231
g66
(dp3232
g74
I3
ssg75
g3226
sg68
(lp3233
g939
asbasbasbag61
(g77
g63
NtRp3234
(dp3235
g66
(dp3236
sg75
g2558
sg68
(lp3237
g61
(g82
g63
NtRp3238
(dp3239
g66
(dp3240
g86
g87
ssg75
g3234
sg68
(lp3241
S'mod_wsgi.callable_object'
p3242
asbag61
(g82
g63
NtRp3243
(dp3244
g66
(dp3245
g93
g94
ssg75
g3234
sg68
(lp3246
S':'
asbag61
(g82
g63
NtRp3247
(dp3248
g66
(dp3249
sg75
g3234
sg68
(lp3250
g61
(g62
g63
NtRp3251
(dp3252
g66
(dp3253
g74
I3
ssg75
g3247
sg68
(lp3254
g961
asbasbasbag61
(g77
g63
NtRp3255
(dp3256
g66
(dp3257
sg75
g2558
sg68
(lp3258
g61
(g82
g63
NtRp3259
(dp3260
g66
(dp3261
g86
g87
ssg75
g3255
sg68
(lp3262
S'mod_wsgi.handler_script'
p3263
asbag61
(g82
g63
NtRp3264
(dp3265
g66
(dp3266
g93
g94
ssg75
g3255
sg68
(lp3267
S':'
asbag61
(g82
g63
NtRp3268
(dp3269
g66
(dp3270
sg75
g3255
sg68
(lp3271
g61
(g62
g63
NtRp3272
(dp3273
g66
(dp3274
g74
I3
ssg75
g3268
sg68
(lp3275
S''
asbasbasbag61
(g77
g63
NtRp3276
(dp3277
g66
(dp3278
sg75
g2558
sg68
(lp3279
g61
(g82
g63
NtRp3280
(dp3281
g66
(dp3282
g86
g87
ssg75
g3276
sg68
(lp3283
S'mod_wsgi.input_chunked'
p3284
asbag61
(g82
g63
NtRp3285
(dp3286
g66
(dp3287
g93
g94
ssg75
g3276
sg68
(lp3288
S':'
asbag61
(g82
g63
NtRp3289
(dp3290
g66
(dp3291
sg75
g3276
sg68
(lp3292
g61
(g62
g63
NtRp3293
(dp3294
g66
(dp3295
g74
I3
ssg75
g3289
sg68
(lp3296
S'0'
asbasbasbag61
(g77
g63
NtRp3297
(dp3298
g66
(dp3299
sg75
g2558
sg68
(lp3300
g61
(g82
g63
NtRp3301
(dp3302
g66
(dp3303
g86
g87
ssg75
g3297
sg68
(lp3304
S'mod_wsgi.listener_host'
p3305
asbag61
(g82
g63
NtRp3306
(dp3307
g66
(dp3308
g93
g94
ssg75
g3297
sg68
(lp3309
S':'
asbag61
(g82
g63
NtRp3310
(dp3311
g66
(dp3312
sg75
g3297
sg68
(lp3313
g61
(g62
g63
NtRp3314
(dp3315
g66
(dp3316
g74
I3
ssg75
g3310
sg68
(lp3317
S''
asbasbasbag61
(g77
g63
NtRp3318
(dp3319
g66
(dp3320
sg75
g2558
sg68
(lp3321
g61
(g82
g63
NtRp3322
(dp3323
g66
(dp3324
g86
g87
ssg75
g3318
sg68
(lp3325
S'mod_wsgi.listener_port'
p3326
asbag61
(g82
g63
NtRp3327
(dp3328
g66
(dp3329
g93
g94
ssg75
g3318
sg68
(lp3330
S':'
asbag61
(g82
g63
NtRp3331
(dp3332
g66
(dp3333
sg75
g3318
sg68
(lp3334
g61
(g62
g63
NtRp3335
(dp3336
g66
(dp3337
g74
I3
ssg75
g3331
sg68
(lp3338
g1046
asbasbasbag61
(g77
g63
NtRp3339
(dp3340
g66
(dp3341
sg75
g2558
sg68
(lp3342
g61
(g82
g63
NtRp3343
(dp3344
g66
(dp3345
g86
g87
ssg75
g3339
sg68
(lp3346
S'mod_wsgi.process_group'
p3347
asbag61
(g82
g63
NtRp3348
(dp3349
g66
(dp3350
g93
g94
ssg75
g3339
sg68
(lp3351
S':'
asbag61
(g82
g63
NtRp3352
(dp3353
g66
(dp3354
sg75
g3339
sg68
(lp3355
g61
(g62
g63
NtRp3356
(dp3357
g66
(dp3358
g74
I3
ssg75
g3352
sg68
(lp3359
g1068
asbasbasbag61
(g77
g63
NtRp3360
(dp3361
g66
(dp3362
sg75
g2558
sg68
(lp3363
g61
(g82
g63
NtRp3364
(dp3365
g66
(dp3366
g86
g87
ssg75
g3360
sg68
(lp3367
S'mod_wsgi.request_handler'
p3368
asbag61
(g82
g63
NtRp3369
(dp3370
g66
(dp3371
g93
g94
ssg75
g3360
sg68
(lp3372
S':'
asbag61
(g82
g63
NtRp3373
(dp3374
g66
(dp3375
sg75
g3360
sg68
(lp3376
g61
(g62
g63
NtRp3377
(dp3378
g66
(dp3379
g74
I3
ssg75
g3373
sg68
(lp3380
g1090
asbasbasbag61
(g77
g63
NtRp3381
(dp3382
g66
(dp3383
sg75
g2558
sg68
(lp3384
g61
(g82
g63
NtRp3385
(dp3386
g66
(dp3387
g86
g87
ssg75
g3381
sg68
(lp3388
S'mod_wsgi.script_reloading'
p3389
asbag61
(g82
g63
NtRp3390
(dp3391
g66
(dp3392
g93
g94
ssg75
g3381
sg68
(lp3393
S':'
asbag61
(g82
g63
NtRp3394
(dp3395
g66
(dp3396
sg75
g3381
sg68
(lp3397
g61
(g62
g63
NtRp3398
(dp3399
g66
(dp3400
g74
I3
ssg75
g3394
sg68
(lp3401
S'1'
asbasbasbag61
(g77
g63
NtRp3402
(dp3403
g66
(dp3404
sg75
g2558
sg68
(lp3405
g61
(g82
g63
NtRp3406
(dp3407
g66
(dp3408
g86
g87
ssg75
g3402
sg68
(lp3409
S'mod_wsgi.version'
p3410
asbag61
(g82
g63
NtRp3411
(dp3412
g66
(dp3413
g93
g94
ssg75
g3402
sg68
(lp3414
S':'
asbag61
(g82
g63
NtRp3415
(dp3416
g66
(dp3417
sg75
g3402
sg68
(lp3418
g61
(g62
g63
NtRp3419
(dp3420
g66
(dp3421
g74
I3
ssg75
g3415
sg68
(lp3422
g61
(g70
g63
NtRp3423
(dp3424
g66
(dp3425
g74
I2
ssg75
Nsg68
(lp3426
g61
(g77
g63
NtRp3427
(dp3428
g66
(dp3429
sg75
g3423
sg68
(lp3430
g61
(g82
g63
NtRp3431
(dp3432
g66
(dp3433
sg75
g3427
sg68
(lp3434
g61
(g62
g63
NtRp3435
(dp3436
g66
(dp3437
g74
I2
ssg75
g3431
sg68
(lp3438
S'3'
asbasbasbag61
(g77
g63
NtRp3439
(dp3440
g66
(dp3441
sg75
g3423
sg68
(lp3442
g61
(g82
g63
NtRp3443
(dp3444
g66
(dp3445
sg75
g3439
sg68
(lp3446
g61
(g62
g63
NtRp3447
(dp3448
g66
(dp3449
g74
I2
ssg75
g3443
sg68
(lp3450
S'2'
asbasbasbasbasbasbasbag61
(g77
g63
NtRp3451
(dp3452
g66
(dp3453
sg75
g2558
sg68
(lp3454
g61
(g82
g63
NtRp3455
(dp3456
g66
(dp3457
g86
g87
ssg75
g3451
sg68
(lp3458
S'wsgi.errors'
p3459
asbag61
(g82
g63
NtRp3460
(dp3461
g66
(dp3462
g93
g94
ssg75
g3451
sg68
(lp3463
S':'
asbag61
(g82
g63
NtRp3464
(dp3465
g66
(dp3466
sg75
g3451
sg68
(lp3467
g61
(g62
g63
NtRp3468
(dp3469
g66
(dp3470
g74
I3
ssg75
g3464
sg68
(lp3471
S'<mod_wsgi.Log object at 0x7fba3235f530>'
p3472
asbasbasbag61
(g77
g63
NtRp3473
(dp3474
g66
(dp3475
sg75
g2558
sg68
(lp3476
g61
(g82
g63
NtRp3477
(dp3478
g66
(dp3479
g86
g87
ssg75
g3473
sg68
(lp3480
S'wsgi.file_wrapper'
p3481
asbag61
(g82
g63
NtRp3482
(dp3483
g66
(dp3484
g93
g94
ssg75
g3473
sg68
(lp3485
S':'
asbag61
(g82
g63
NtRp3486
(dp3487
g66
(dp3488
sg75
g3473
sg68
(lp3489
g61
(g62
g63
NtRp3490
(dp3491
g66
(dp3492
g74
I3
ssg75
g3486
sg68
(lp3493
S'<built-in method file_wrapper of mod_wsgi.Adapter object at 0x7fba3243aa80>'
p3494
asbasbasbag61
(g77
g63
NtRp3495
(dp3496
g66
(dp3497
sg75
g2558
sg68
(lp3498
g61
(g82
g63
NtRp3499
(dp3500
g66
(dp3501
g86
g87
ssg75
g3495
sg68
(lp3502
S'wsgi.input'
p3503
asbag61
(g82
g63
NtRp3504
(dp3505
g66
(dp3506
g93
g94
ssg75
g3495
sg68
(lp3507
S':'
asbag61
(g82
g63
NtRp3508
(dp3509
g66
(dp3510
sg75
g3495
sg68
(lp3511
g61
(g62
g63
NtRp3512
(dp3513
g66
(dp3514
g74
I3
ssg75
g3508
sg68
(lp3515
S"<open file '<fdopen>', mode 'w+b' at 0x7fba2034b300>"
p3516
asbasbasbag61
(g77
g63
NtRp3517
(dp3518
g66
(dp3519
sg75
g2558
sg68
(lp3520
g61
(g82
g63
NtRp3521
(dp3522
g66
(dp3523
g86
g87
ssg75
g3517
sg68
(lp3524
S'wsgi.multiprocess'
p3525
asbag61
(g82
g63
NtRp3526
(dp3527
g66
(dp3528
g93
g94
ssg75
g3517
sg68
(lp3529
S':'
asbag61
(g82
g63
NtRp3530
(dp3531
g66
(dp3532
sg75
g3517
sg68
(lp3533
g61
(g62
g63
NtRp3534
(dp3535
g66
(dp3536
g74
I3
ssg75
g3530
sg68
(lp3537
g104
asbasbasbag61
(g77
g63
NtRp3538
(dp3539
g66
(dp3540
sg75
g2558
sg68
(lp3541
g61
(g82
g63
NtRp3542
(dp3543
g66
(dp3544
g86
g87
ssg75
g3538
sg68
(lp3545
S'wsgi.multithread'
p3546
asbag61
(g82
g63
NtRp3547
(dp3548
g66
(dp3549
g93
g94
ssg75
g3538
sg68
(lp3550
S':'
asbag61
(g82
g63
NtRp3551
(dp3552
g66
(dp3553
sg75
g3538
sg68
(lp3554
g61
(g62
g63
NtRp3555
(dp3556
g66
(dp3557
g74
I3
ssg75
g3551
sg68
(lp3558
g1750
asbasbasbag61
(g77
g63
NtRp3559
(dp3560
g66
(dp3561
sg75
g2558
sg68
(lp3562
g61
(g82
g63
NtRp3563
(dp3564
g66
(dp3565
g86
g87
ssg75
g3559
sg68
(lp3566
S'wsgi.run_once'
p3567
asbag61
(g82
g63
NtRp3568
(dp3569
g66
(dp3570
g93
g94
ssg75
g3559
sg68
(lp3571
S':'
asbag61
(g82
g63
NtRp3572
(dp3573
g66
(dp3574
sg75
g3559
sg68
(lp3575
g61
(g62
g63
NtRp3576
(dp3577
g66
(dp3578
g74
I3
ssg75
g3572
sg68
(lp3579
g104
asbasbasbag61
(g77
g63
NtRp3580
(dp3581
g66
(dp3582
sg75
g2558
sg68
(lp3583
g61
(g82
g63
NtRp3584
(dp3585
g66
(dp3586
g86
g87
ssg75
g3580
sg68
(lp3587
S'wsgi.url_scheme'
p3588
asbag61
(g82
g63
NtRp3589
(dp3590
g66
(dp3591
g93
g94
ssg75
g3580
sg68
(lp3592
S':'
asbag61
(g82
g63
NtRp3593
(dp3594
g66
(dp3595
sg75
g3580
sg68
(lp3596
g61
(g62
g63
NtRp3597
(dp3598
g66
(dp3599
g74
I3
ssg75
g3593
sg68
(lp3600
g1793
asbasbasbag61
(g77
g63
NtRp3601
(dp3602
g66
(dp3603
sg75
g2558
sg68
(lp3604
g61
(g82
g63
NtRp3605
(dp3606
g66
(dp3607
g86
g87
ssg75
g3601
sg68
(lp3608
S'wsgi.version'
p3609
asbag61
(g82
g63
NtRp3610
(dp3611
g66
(dp3612
g93
g94
ssg75
g3601
sg68
(lp3613
S':'
asbag61
(g82
g63
NtRp3614
(dp3615
g66
(dp3616
sg75
g3601
sg68
(lp3617
g61
(g62
g63
NtRp3618
(dp3619
g66
(dp3620
g74
I3
ssg75
g3614
sg68
(lp3621
S'1'
asbasbasbasbasbasbasbasbasbasbasbasbasbsS'frames'
p3622
(lp3623
(dp3624
S'file'
p3625
S'/var/www/web2py/gluon/restricted.py'
p3626
sS'dump'
p3627
(dp3628
S'environment'
p3629
S"{'A': <class 'gluon.html.A'>, 'Auth': <class 'gluon.tools.Auth'>, 'B': <class 'gluon.html.B'>, 'BEAUTIFY': <class 'gluon.html.BEAUTIFY'>, 'BODY': <class 'gluon.html.BODY'>, 'BR': <class 'gluon.html.BR'>, 'BUTTON': <class 'gluon.html.BUTTON'>, 'CAT': <class 'gluon.html.CAT'>, 'CENTER': <class 'gluon.html.CENTER'>, 'CLEANUP': <class 'gluon.validators.CLEANUP'>, ...}"
p3630
sS'ccode'
p3631
S'<code object <module> at 0x7fba31f080a8, file "/...ns/Threads_Beta/controllers/default.py", line 11>'
p3632
ssS'lnum'
p3633
I204
sS'lines'
p3634
(dp3635
I199
S'    try:'
p3636
sI200
S'        if type(code) == types.CodeType:'
p3637
sI201
S'            ccode = code'
p3638
sI202
S'        else:'
p3639
sI203
S'            ccode = compile2(code,layer)'
p3640
sI204
S'        exec ccode in environment'
p3641
sI205
S'    except HTTP:'
p3642
sI206
S'        raise'
p3643
sI207
S'    except RestrictedError:'
p3644
sI208
S'        # do not encapsulate (obfuscate) the original RestrictedError'
p3645
ssS'call'
p3646
S"(code='# -*- coding: utf-8 -*-\\n# this file is released ...crud())\\n\\n\\nresponse._vars=response._caller(judge)\\n', environment={'A': <class 'gluon.html.A'>, 'Auth': <class 'gluon.tools.Auth'>, 'B': <class 'gluon.html.B'>, 'BEAUTIFY': <class 'gluon.html.BEAUTIFY'>, 'BODY': <class 'gluon.html.BODY'>, 'BR': <class 'gluon.html.BR'>, 'BUTTON': <class 'gluon.html.BUTTON'>, 'CAT': <class 'gluon.html.CAT'>, 'CENTER': <class 'gluon.html.CENTER'>, 'CLEANUP': <class 'gluon.validators.CLEANUP'>, ...}, layer='/var/www/web2py/applications/Threads_Beta/controllers/default.py')"
p3647
sS'func'
p3648
S'restricted'
p3649
sa(dp3650
g3625
S'/var/www/web2py/applications/Threads_Beta/controllers/default.py'
p3651
sg3627
(dp3652
sg3633
I235
sg3634
(dp3653
I224
S'    http://..../[app]/default/data/delete/[table]/[id]'
p3654
sI225
S'    http://..../[app]/default/data/select/[table]'
p3655
sI226
S'    http://..../[app]/default/data/search/[table]'
p3656
sI227
S'    but URLs must be signed, i.e. linked with'
p3657
sI228
S"      A('table',_href=URL('data/tables',user_signature=True))"
p3658
sI229
S'    or with the signed load operator'
p3659
sI230
S"      LOAD('default','data.load',args='tables',ajax=True,user_signature=True)"
p3660
sI231
S'    """'
p3661
sI232
S'    return dict(form=crud())'
p3662
sI233
S''
ssg3646
S'()'
p3663
sg3648
S'<module>'
p3664
sa(dp3665
g3625
S'/var/www/web2py/gluon/globals.py'
p3666
sg3627
(dp3667
S'self'
p3668
S'undefined'
p3669
sS'f'
S'<function judge>'
p3670
ssg3633
I172
sg3634
(dp3671
I167
S'        self.meta = Storage()      # used by web2py_ajax.html'
p3672
sI168
S'        self.menu = []             # used by the default view layout'
p3673
sI169
S'        self.files = []            # used by web2py_ajax.html'
p3674
sI170
S'        self.generic_patterns = [] # patterns to allow generic views'
p3675
sI171
S'        self._vars = None'
p3676
sI172
S'        self._caller = lambda f: f()'
p3677
sI173
S'        self._view_environment = None'
p3678
sI174
S'        self._custom_commit = None'
p3679
sI175
S'        self._custom_rollback = None'
p3680
sI176
S''
ssg3646
S'(f=<function judge>)'
p3681
sg3648
S'<lambda>'
p3682
sa(dp3683
g3625
S'/var/www/web2py/gluon/tools.py'
p3684
sg3627
(dp3685
S'action'
p3686
S'<function judge>'
p3687
sS'a'
S'()'
p3688
sS'b'
g21
ssg3633
I2533
sg3634
(dp3689
I2528
S'                # otherwise case 3 would be ok.'
p3690
sI2529
S'                if not (callable(condition) and condition() == True) and not condition == True:'
p3691
sI2530
S'                    current.session.flash = self.messages.access_denied'
p3692
sI2531
S'                    return call_or_redirect('
p3693
sI2532
S'                        self.settings.on_failed_authorization)'
p3694
sI2533
S'                return action(*a, **b)'
p3695
sI2534
S'            f.__doc__ = action.__doc__'
p3696
sI2535
S'            f.__name__ = action.__name__'
p3697
sI2536
S'            f.__dict__.update(action.__dict__)'
p3698
sI2537
S'            return f'
p3699
ssg3646
S'(*a=(), **b={})'
p3700
sg3648
S'f'
sa(dp3701
g3625
S'/var/www/web2py/applications/Threads_Beta/controllers/default.py'
p3702
sg3627
(dp3703
S'c'
S'<pycurl.Curl object>'
p3704
sS'c.perform'
p3705
S'<built-in method perform of pycurl.Curl object>'
p3706
ssg3633
I153
sg3634
(dp3707
I148
S'    curl_request = "http://localhost:10001"'
p3708
sI149
S'    c.setopt(pycurl.URL, curl_request)'
p3709
sI150
S'    c.setopt(pycurl.POST,1)'
p3710
sI151
S'    c.setopt(pycurl.POSTFIELDS, data_post)'
p3711
sI152
S'    c.setopt(pycurl.WRITEFUNCTION, buf.write)'
p3712
sI153
S'    c.perform()'
p3713
sI154
S'    ret_val = buf.getvalue()'
p3714
sI155
S'    buf.close()'
p3715
sI156
S'    #End of communication'
p3716
sI157
S''
ssg3646
S'()'
p3717
sg3648
S'judge'
p3718
sasS'pyver'
p3719
S'Python 2.6.6: /usr/bin/python'
p3720
sS'session'
p3721
g61
(g62
g63
NtRp3722
(dp3723
g66
(dp3724
sg68
(lp3725
g61
(g70
g63
NtRp3726
(dp3727
g66
(dp3728
g74
I5
ssg75
Nsg68
(lp3729
g61
(g77
g63
NtRp3730
(dp3731
g66
(dp3732
sg75
g3726
sg68
(lp3733
g61
(g82
g63
NtRp3734
(dp3735
g66
(dp3736
g86
g87
ssg75
g3730
sg68
(lp3737
S'auth'
p3738
asbag61
(g82
g63
NtRp3739
(dp3740
g66
(dp3741
g93
g94
ssg75
g3730
sg68
(lp3742
S':'
asbag61
(g82
g63
NtRp3743
(dp3744
g66
(dp3745
sg75
g3730
sg68
(lp3746
g61
(g62
g63
NtRp3747
(dp3748
g66
(dp3749
g74
I5
ssg75
g3743
sg68
(lp3750
g61
(g70
g63
NtRp3751
(dp3752
g66
(dp3753
g74
I4
ssg75
Nsg68
(lp3754
g61
(g77
g63
NtRp3755
(dp3756
g66
(dp3757
sg75
g3751
sg68
(lp3758
g61
(g82
g63
NtRp3759
(dp3760
g66
(dp3761
g86
g87
ssg75
g3755
sg68
(lp3762
S'expiration'
p3763
asbag61
(g82
g63
NtRp3764
(dp3765
g66
(dp3766
g93
g94
ssg75
g3755
sg68
(lp3767
S':'
asbag61
(g82
g63
NtRp3768
(dp3769
g66
(dp3770
sg75
g3755
sg68
(lp3771
g61
(g62
g63
NtRp3772
(dp3773
g66
(dp3774
g74
I4
ssg75
g3768
sg68
(lp3775
S'2592000'
p3776
asbasbasbag61
(g77
g63
NtRp3777
(dp3778
g66
(dp3779
sg75
g3751
sg68
(lp3780
g61
(g82
g63
NtRp3781
(dp3782
g66
(dp3783
g86
g87
ssg75
g3777
sg68
(lp3784
S'hmac_key'
p3785
asbag61
(g82
g63
NtRp3786
(dp3787
g66
(dp3788
g93
g94
ssg75
g3777
sg68
(lp3789
S':'
asbag61
(g82
g63
NtRp3790
(dp3791
g66
(dp3792
sg75
g3777
sg68
(lp3793
g61
(g62
g63
NtRp3794
(dp3795
g66
(dp3796
g74
I4
ssg75
g3790
sg68
(lp3797
S'a5a44f2c-f23d-4a51-93f9-76b99ac8fcf4'
p3798
asbasbasbag61
(g77
g63
NtRp3799
(dp3800
g66
(dp3801
sg75
g3751
sg68
(lp3802
g61
(g82
g63
NtRp3803
(dp3804
g66
(dp3805
g86
g87
ssg75
g3799
sg68
(lp3806
S'last_visit'
p3807
asbag61
(g82
g63
NtRp3808
(dp3809
g66
(dp3810
g93
g94
ssg75
g3799
sg68
(lp3811
S':'
asbag61
(g82
g63
NtRp3812
(dp3813
g66
(dp3814
sg75
g3799
sg68
(lp3815
g61
(g62
g63
NtRp3816
(dp3817
g66
(dp3818
g74
I4
ssg75
g3812
sg68
(lp3819
S'datetime.datetime(2012, 11, 23, 17, 14, 41, 677528)'
p3820
asbasbasbag61
(g77
g63
NtRp3821
(dp3822
g66
(dp3823
sg75
g3751
sg68
(lp3824
g61
(g82
g63
NtRp3825
(dp3826
g66
(dp3827
g86
g87
ssg75
g3821
sg68
(lp3828
S'remember'
p3829
asbag61
(g82
g63
NtRp3830
(dp3831
g66
(dp3832
g93
g94
ssg75
g3821
sg68
(lp3833
S':'
asbag61
(g82
g63
NtRp3834
(dp3835
g66
(dp3836
sg75
g3821
sg68
(lp3837
g61
(g62
g63
NtRp3838
(dp3839
g66
(dp3840
g74
I4
ssg75
g3834
sg68
(lp3841
g104
asbasbasbag61
(g77
g63
NtRp3842
(dp3843
g66
(dp3844
sg75
g3751
sg68
(lp3845
g61
(g82
g63
NtRp3846
(dp3847
g66
(dp3848
g86
g87
ssg75
g3842
sg68
(lp3849
S'user'
p3850
asbag61
(g82
g63
NtRp3851
(dp3852
g66
(dp3853
g93
g94
ssg75
g3842
sg68
(lp3854
S':'
asbag61
(g82
g63
NtRp3855
(dp3856
g66
(dp3857
sg75
g3842
sg68
(lp3858
g61
(g62
g63
NtRp3859
(dp3860
g66
(dp3861
g74
I4
ssg75
g3855
sg68
(lp3862
g61
(g70
g63
NtRp3863
(dp3864
g66
(dp3865
g74
I3
ssg75
Nsg68
(lp3866
g61
(g77
g63
NtRp3867
(dp3868
g66
(dp3869
sg75
g3863
sg68
(lp3870
g61
(g82
g63
NtRp3871
(dp3872
g66
(dp3873
g86
g87
ssg75
g3867
sg68
(lp3874
S'about'
p3875
asbag61
(g82
g63
NtRp3876
(dp3877
g66
(dp3878
g93
g94
ssg75
g3867
sg68
(lp3879
S':'
asbag61
(g82
g63
NtRp3880
(dp3881
g66
(dp3882
sg75
g3867
sg68
(lp3883
g61
(g62
g63
NtRp3884
(dp3885
g66
(dp3886
g74
I3
ssg75
g3880
sg68
(lp3887
S'I made this portal'
p3888
asbasbasbag61
(g77
g63
NtRp3889
(dp3890
g66
(dp3891
sg75
g3863
sg68
(lp3892
g61
(g82
g63
NtRp3893
(dp3894
g66
(dp3895
g86
g87
ssg75
g3889
sg68
(lp3896
S'contact'
p3897
asbag61
(g82
g63
NtRp3898
(dp3899
g66
(dp3900
g93
g94
ssg75
g3889
sg68
(lp3901
S':'
asbag61
(g82
g63
NtRp3902
(dp3903
g66
(dp3904
sg75
g3889
sg68
(lp3905
g61
(g62
g63
NtRp3906
(dp3907
g66
(dp3908
g74
I3
ssg75
g3902
sg68
(lp3909
S'None'
p3910
asbasbasbag61
(g77
g63
NtRp3911
(dp3912
g66
(dp3913
sg75
g3863
sg68
(lp3914
g61
(g82
g63
NtRp3915
(dp3916
g66
(dp3917
g86
g87
ssg75
g3911
sg68
(lp3918
S'email'
p3919
asbag61
(g82
g63
NtRp3920
(dp3921
g66
(dp3922
g93
g94
ssg75
g3911
sg68
(lp3923
S':'
asbag61
(g82
g63
NtRp3924
(dp3925
g66
(dp3926
sg75
g3911
sg68
(lp3927
g61
(g62
g63
NtRp3928
(dp3929
g66
(dp3930
g74
I3
ssg75
g3924
sg68
(lp3931
S'madhavan@felicity.iiit.ac.in'
p3932
asbasbasbag61
(g77
g63
NtRp3933
(dp3934
g66
(dp3935
sg75
g3863
sg68
(lp3936
g61
(g82
g63
NtRp3937
(dp3938
g66
(dp3939
g86
g87
ssg75
g3933
sg68
(lp3940
S'first_name'
p3941
asbag61
(g82
g63
NtRp3942
(dp3943
g66
(dp3944
g93
g94
ssg75
g3933
sg68
(lp3945
S':'
asbag61
(g82
g63
NtRp3946
(dp3947
g66
(dp3948
sg75
g3933
sg68
(lp3949
g61
(g62
g63
NtRp3950
(dp3951
g66
(dp3952
g74
I3
ssg75
g3946
sg68
(lp3953
S'Madhavan'
p3954
asbasbasbag61
(g77
g63
NtRp3955
(dp3956
g66
(dp3957
sg75
g3863
sg68
(lp3958
g61
(g82
g63
NtRp3959
(dp3960
g66
(dp3961
g86
g87
ssg75
g3955
sg68
(lp3962
S'handle'
p3963
asbag61
(g82
g63
NtRp3964
(dp3965
g66
(dp3966
g93
g94
ssg75
g3955
sg68
(lp3967
S':'
asbag61
(g82
g63
NtRp3968
(dp3969
g66
(dp3970
sg75
g3955
sg68
(lp3971
g61
(g62
g63
NtRp3972
(dp3973
g66
(dp3974
g74
I3
ssg75
g3968
sg68
(lp3975
S'Maddy'
p3976
asbasbasbag61
(g77
g63
NtRp3977
(dp3978
g66
(dp3979
sg75
g3863
sg68
(lp3980
g61
(g82
g63
NtRp3981
(dp3982
g66
(dp3983
g86
g87
ssg75
g3977
sg68
(lp3984
S'id'
p3985
asbag61
(g82
g63
NtRp3986
(dp3987
g66
(dp3988
g93
g94
ssg75
g3977
sg68
(lp3989
S':'
asbag61
(g82
g63
NtRp3990
(dp3991
g66
(dp3992
sg75
g3977
sg68
(lp3993
g61
(g62
g63
NtRp3994
(dp3995
g66
(dp3996
g74
I3
ssg75
g3990
sg68
(lp3997
S'1'
asbasbasbag61
(g77
g63
NtRp3998
(dp3999
g66
(dp4000
sg75
g3863
sg68
(lp4001
g61
(g82
g63
NtRp4002
(dp4003
g66
(dp4004
g86
g87
ssg75
g3998
sg68
(lp4005
S'last_name'
p4006
asbag61
(g82
g63
NtRp4007
(dp4008
g66
(dp4009
g93
g94
ssg75
g3998
sg68
(lp4010
S':'
asbag61
(g82
g63
NtRp4011
(dp4012
g66
(dp4013
sg75
g3998
sg68
(lp4014
g61
(g62
g63
NtRp4015
(dp4016
g66
(dp4017
g74
I3
ssg75
g4011
sg68
(lp4018
S'Malolan'
p4019
asbasbasbag61
(g77
g63
NtRp4020
(dp4021
g66
(dp4022
sg75
g3863
sg68
(lp4023
g61
(g82
g63
NtRp4024
(dp4025
g66
(dp4026
g86
g87
ssg75
g4020
sg68
(lp4027
S'password'
p4028
asbag61
(g82
g63
NtRp4029
(dp4030
g66
(dp4031
g93
g94
ssg75
g4020
sg68
(lp4032
S':'
asbag61
(g82
g63
NtRp4033
(dp4034
g66
(dp4035
sg75
g4020
sg68
(lp4036
g61
(g62
g63
NtRp4037
(dp4038
g66
(dp4039
g74
I3
ssg75
g4033
sg68
(lp4040
S'3e7dcbfef4ccdcc3bc90aa39b8721c0d'
p4041
asbasbasbag61
(g77
g63
NtRp4042
(dp4043
g66
(dp4044
sg75
g3863
sg68
(lp4045
g61
(g82
g63
NtRp4046
(dp4047
g66
(dp4048
g86
g87
ssg75
g4042
sg68
(lp4049
S'profile_pic'
p4050
asbag61
(g82
g63
NtRp4051
(dp4052
g66
(dp4053
g93
g94
ssg75
g4042
sg68
(lp4054
S':'
asbag61
(g82
g63
NtRp4055
(dp4056
g66
(dp4057
sg75
g4042
sg68
(lp4058
g61
(g62
g63
NtRp4059
(dp4060
g66
(dp4061
g74
I3
ssg75
g4055
sg68
(lp4062
S'auth_user.profile_pic.bcae818b083bbf8e.53637265656e73686f742d312e706e67.png'
p4063
asbasbasbag61
(g77
g63
NtRp4064
(dp4065
g66
(dp4066
sg75
g3863
sg68
(lp4067
g61
(g82
g63
NtRp4068
(dp4069
g66
(dp4070
g86
g87
ssg75
g4064
sg68
(lp4071
S'registration_id'
p4072
asbag61
(g82
g63
NtRp4073
(dp4074
g66
(dp4075
g93
g94
ssg75
g4064
sg68
(lp4076
S':'
asbag61
(g82
g63
NtRp4077
(dp4078
g66
(dp4079
sg75
g4064
sg68
(lp4080
g61
(g62
g63
NtRp4081
(dp4082
g66
(dp4083
g74
I3
ssg75
g4077
sg68
(lp4084
S''
asbasbasbag61
(g77
g63
NtRp4085
(dp4086
g66
(dp4087
sg75
g3863
sg68
(lp4088
g61
(g82
g63
NtRp4089
(dp4090
g66
(dp4091
g86
g87
ssg75
g4085
sg68
(lp4092
S'registration_key'
p4093
asbag61
(g82
g63
NtRp4094
(dp4095
g66
(dp4096
g93
g94
ssg75
g4085
sg68
(lp4097
S':'
asbag61
(g82
g63
NtRp4098
(dp4099
g66
(dp4100
sg75
g4085
sg68
(lp4101
g61
(g62
g63
NtRp4102
(dp4103
g66
(dp4104
g74
I3
ssg75
g4098
sg68
(lp4105
S''
asbasbasbag61
(g77
g63
NtRp4106
(dp4107
g66
(dp4108
sg75
g3863
sg68
(lp4109
g61
(g82
g63
NtRp4110
(dp4111
g66
(dp4112
g86
g87
ssg75
g4106
sg68
(lp4113
S'reset_password_key'
p4114
asbag61
(g82
g63
NtRp4115
(dp4116
g66
(dp4117
g93
g94
ssg75
g4106
sg68
(lp4118
S':'
asbag61
(g82
g63
NtRp4119
(dp4120
g66
(dp4121
sg75
g4106
sg68
(lp4122
g61
(g62
g63
NtRp4123
(dp4124
g66
(dp4125
g74
I3
ssg75
g4119
sg68
(lp4126
S''
asbasbasbasbasbasbasbasbasbasbasbasbasbsS'etype'
p4127
S"<class 'pycurl.error'>"
p4128
sS'date'
p4129
S'Fri Nov 23 19:03:20 2012'
p4130
sS'response'
p4131
g61
(g62
g63
NtRp4132
(dp4133
g66
(dp4134
sg68
(lp4135
g61
(g70
g63
NtRp4136
(dp4137
g66
(dp4138
g74
I5
ssg75
Nsg68
(lp4139
g61
(g77
g63
NtRp4140
(dp4141
g66
(dp4142
sg75
g4136
sg68
(lp4143
g61
(g82
g63
NtRp4144
(dp4145
g66
(dp4146
g86
g87
ssg75
g4140
sg68
(lp4147
g159
asbag61
(g82
g63
NtRp4148
(dp4149
g66
(dp4150
g93
g94
ssg75
g4140
sg68
(lp4151
S':'
asbag61
(g82
g63
NtRp4152
(dp4153
g66
(dp4154
sg75
g4140
sg68
(lp4155
g61
(g62
g63
NtRp4156
(dp4157
g66
(dp4158
g74
I5
ssg75
g4152
sg68
(lp4159
S'<cStringIO.StringO object at 0x7fba2828af10>'
p4160
asbasbasbag61
(g77
g63
NtRp4161
(dp4162
g66
(dp4163
sg75
g4136
sg68
(lp4164
g61
(g82
g63
NtRp4165
(dp4166
g66
(dp4167
g86
g87
ssg75
g4161
sg68
(lp4168
g225
asbag61
(g82
g63
NtRp4169
(dp4170
g66
(dp4171
g93
g94
ssg75
g4161
sg68
(lp4172
S':'
asbag61
(g82
g63
NtRp4173
(dp4174
g66
(dp4175
sg75
g4161
sg68
(lp4176
g61
(g62
g63
NtRp4177
(dp4178
g66
(dp4179
g74
I5
ssg75
g4173
sg68
(lp4180
g61
(g70
g63
NtRp4181
(dp4182
g66
(dp4183
g74
I4
ssg75
Nsg68
(lp4184
g61
(g77
g63
NtRp4185
(dp4186
g66
(dp4187
sg75
g4181
sg68
(lp4188
g61
(g82
g63
NtRp4189
(dp4190
g66
(dp4191
g86
g87
ssg75
g4185
sg68
(lp4192
S'session_id_threads_beta'
p4193
asbag61
(g82
g63
NtRp4194
(dp4195
g66
(dp4196
g93
g94
ssg75
g4185
sg68
(lp4197
S':'
asbag61
(g82
g63
NtRp4198
(dp4199
g66
(dp4200
sg75
g4185
sg68
(lp4201
g61
(g62
g63
NtRp4202
(dp4203
g66
(dp4204
g74
I4
ssg75
g4198
sg68
(lp4205
g61
(g70
g63
NtRp4206
(dp4207
g66
(dp4208
g74
I3
ssg75
Nsg68
(lp4209
g61
(g77
g63
NtRp4210
(dp4211
g66
(dp4212
sg75
g4206
sg68
(lp4213
g61
(g82
g63
NtRp4214
(dp4215
g66
(dp4216
g86
g87
ssg75
g4210
sg68
(lp4217
g275
asbag61
(g82
g63
NtRp4218
(dp4219
g66
(dp4220
g93
g94
ssg75
g4210
sg68
(lp4221
S':'
asbag61
(g82
g63
NtRp4222
(dp4223
g66
(dp4224
sg75
g4210
sg68
(lp4225
g61
(g62
g63
NtRp4226
(dp4227
g66
(dp4228
g74
I3
ssg75
g4222
sg68
(lp4229
S''
asbasbasbag61
(g77
g63
NtRp4230
(dp4231
g66
(dp4232
sg75
g4206
sg68
(lp4233
g61
(g82
g63
NtRp4234
(dp4235
g66
(dp4236
g86
g87
ssg75
g4230
sg68
(lp4237
g296
asbag61
(g82
g63
NtRp4238
(dp4239
g66
(dp4240
g93
g94
ssg75
g4230
sg68
(lp4241
S':'
asbag61
(g82
g63
NtRp4242
(dp4243
g66
(dp4244
sg75
g4230
sg68
(lp4245
g61
(g62
g63
NtRp4246
(dp4247
g66
(dp4248
g74
I3
ssg75
g4242
sg68
(lp4249
S''
asbasbasbag61
(g77
g63
NtRp4250
(dp4251
g66
(dp4252
sg75
g4206
sg68
(lp4253
g61
(g82
g63
NtRp4254
(dp4255
g66
(dp4256
g86
g87
ssg75
g4250
sg68
(lp4257
g317
asbag61
(g82
g63
NtRp4258
(dp4259
g66
(dp4260
g93
g94
ssg75
g4250
sg68
(lp4261
S':'
asbag61
(g82
g63
NtRp4262
(dp4263
g66
(dp4264
sg75
g4250
sg68
(lp4265
g61
(g62
g63
NtRp4266
(dp4267
g66
(dp4268
g74
I3
ssg75
g4262
sg68
(lp4269
S''
asbasbasbag61
(g77
g63
NtRp4270
(dp4271
g66
(dp4272
sg75
g4206
sg68
(lp4273
g61
(g82
g63
NtRp4274
(dp4275
g66
(dp4276
g86
g87
ssg75
g4270
sg68
(lp4277
g338
asbag61
(g82
g63
NtRp4278
(dp4279
g66
(dp4280
g93
g94
ssg75
g4270
sg68
(lp4281
S':'
asbag61
(g82
g63
NtRp4282
(dp4283
g66
(dp4284
sg75
g4270
sg68
(lp4285
g61
(g62
g63
NtRp4286
(dp4287
g66
(dp4288
g74
I3
ssg75
g4282
sg68
(lp4289
S''
asbasbasbag61
(g77
g63
NtRp4290
(dp4291
g66
(dp4292
sg75
g4206
sg68
(lp4293
g61
(g82
g63
NtRp4294
(dp4295
g66
(dp4296
g86
g87
ssg75
g4290
sg68
(lp4297
g359
asbag61
(g82
g63
NtRp4298
(dp4299
g66
(dp4300
g93
g94
ssg75
g4290
sg68
(lp4301
S':'
asbag61
(g82
g63
NtRp4302
(dp4303
g66
(dp4304
sg75
g4290
sg68
(lp4305
g61
(g62
g63
NtRp4306
(dp4307
g66
(dp4308
g74
I3
ssg75
g4302
sg68
(lp4309
S''
asbasbasbag61
(g77
g63
NtRp4310
(dp4311
g66
(dp4312
sg75
g4206
sg68
(lp4313
g61
(g82
g63
NtRp4314
(dp4315
g66
(dp4316
g86
g87
ssg75
g4310
sg68
(lp4317
g380
asbag61
(g82
g63
NtRp4318
(dp4319
g66
(dp4320
g93
g94
ssg75
g4310
sg68
(lp4321
S':'
asbag61
(g82
g63
NtRp4322
(dp4323
g66
(dp4324
sg75
g4310
sg68
(lp4325
g61
(g62
g63
NtRp4326
(dp4327
g66
(dp4328
g74
I3
ssg75
g4322
sg68
(lp4329
S'/'
asbasbasbag61
(g77
g63
NtRp4330
(dp4331
g66
(dp4332
sg75
g4206
sg68
(lp4333
g61
(g82
g63
NtRp4334
(dp4335
g66
(dp4336
g86
g87
ssg75
g4330
sg68
(lp4337
g401
asbag61
(g82
g63
NtRp4338
(dp4339
g66
(dp4340
g93
g94
ssg75
g4330
sg68
(lp4341
S':'
asbag61
(g82
g63
NtRp4342
(dp4343
g66
(dp4344
sg75
g4330
sg68
(lp4345
g61
(g62
g63
NtRp4346
(dp4347
g66
(dp4348
g74
I3
ssg75
g4342
sg68
(lp4349
S''
asbasbasbag61
(g77
g63
NtRp4350
(dp4351
g66
(dp4352
sg75
g4206
sg68
(lp4353
g61
(g82
g63
NtRp4354
(dp4355
g66
(dp4356
g86
g87
ssg75
g4350
sg68
(lp4357
g422
asbag61
(g82
g63
NtRp4358
(dp4359
g66
(dp4360
g93
g94
ssg75
g4350
sg68
(lp4361
S':'
asbag61
(g82
g63
NtRp4362
(dp4363
g66
(dp4364
sg75
g4350
sg68
(lp4365
g61
(g62
g63
NtRp4366
(dp4367
g66
(dp4368
g74
I3
ssg75
g4362
sg68
(lp4369
S''
asbasbasbasbasbasbasbasbasbasbasbag61
(g77
g63
NtRp4370
(dp4371
g66
(dp4372
sg75
g4136
sg68
(lp4373
g61
(g82
g63
NtRp4374
(dp4375
g66
(dp4376
g86
g87
ssg75
g4370
sg68
(lp4377
S'files'
p4378
asbag61
(g82
g63
NtRp4379
(dp4380
g66
(dp4381
g93
g94
ssg75
g4370
sg68
(lp4382
S':'
asbag61
(g82
g63
NtRp4383
(dp4384
g66
(dp4385
sg75
g4370
sg68
(lp4386
g61
(g62
g63
NtRp4387
(dp4388
g66
(dp4389
g74
I5
ssg75
g4383
sg68
(lp4390
g61
(g70
g63
NtRp4391
(dp4392
g66
(dp4393
g74
I4
ssg75
Nsg68
(lp4394
sbasbasbasbag61
(g77
g63
NtRp4395
(dp4396
g66
(dp4397
sg75
g4136
sg68
(lp4398
g61
(g82
g63
NtRp4399
(dp4400
g66
(dp4401
g86
g87
ssg75
g4395
sg68
(lp4402
S'flash'
p4403
asbag61
(g82
g63
NtRp4404
(dp4405
g66
(dp4406
g93
g94
ssg75
g4395
sg68
(lp4407
S':'
asbag61
(g82
g63
NtRp4408
(dp4409
g66
(dp4410
sg75
g4395
sg68
(lp4411
g61
(g62
g63
NtRp4412
(dp4413
g66
(dp4414
g74
I5
ssg75
g4408
sg68
(lp4415
S''
asbasbasbag61
(g77
g63
NtRp4416
(dp4417
g66
(dp4418
sg75
g4136
sg68
(lp4419
g61
(g82
g63
NtRp4420
(dp4421
g66
(dp4422
g86
g87
ssg75
g4416
sg68
(lp4423
S'generic_patterns'
p4424
asbag61
(g82
g63
NtRp4425
(dp4426
g66
(dp4427
g93
g94
ssg75
g4416
sg68
(lp4428
S':'
asbag61
(g82
g63
NtRp4429
(dp4430
g66
(dp4431
sg75
g4416
sg68
(lp4432
g61
(g62
g63
NtRp4433
(dp4434
g66
(dp4435
g74
I5
ssg75
g4429
sg68
(lp4436
g61
(g70
g63
NtRp4437
(dp4438
g66
(dp4439
g74
I4
ssg75
Nsg68
(lp4440
sbasbasbasbag61
(g77
g63
NtRp4441
(dp4442
g66
(dp4443
sg75
g4136
sg68
(lp4444
g61
(g82
g63
NtRp4445
(dp4446
g66
(dp4447
g86
g87
ssg75
g4441
sg68
(lp4448
S'headers'
p4449
asbag61
(g82
g63
NtRp4450
(dp4451
g66
(dp4452
g93
g94
ssg75
g4441
sg68
(lp4453
S':'
asbag61
(g82
g63
NtRp4454
(dp4455
g66
(dp4456
sg75
g4441
sg68
(lp4457
g61
(g62
g63
NtRp4458
(dp4459
g66
(dp4460
g74
I5
ssg75
g4454
sg68
(lp4461
g61
(g70
g63
NtRp4462
(dp4463
g66
(dp4464
g74
I4
ssg75
Nsg68
(lp4465
g61
(g77
g63
NtRp4466
(dp4467
g66
(dp4468
sg75
g4462
sg68
(lp4469
g61
(g82
g63
NtRp4470
(dp4471
g66
(dp4472
g86
g87
ssg75
g4466
sg68
(lp4473
S'Cache-Control'
p4474
asbag61
(g82
g63
NtRp4475
(dp4476
g66
(dp4477
g93
g94
ssg75
g4466
sg68
(lp4478
S':'
asbag61
(g82
g63
NtRp4479
(dp4480
g66
(dp4481
sg75
g4466
sg68
(lp4482
g61
(g62
g63
NtRp4483
(dp4484
g66
(dp4485
g74
I4
ssg75
g4479
sg68
(lp4486
S'no-store, no-cache, must-revalidate, post-check=0, pre-check=0'
p4487
asbasbasbag61
(g77
g63
NtRp4488
(dp4489
g66
(dp4490
sg75
g4462
sg68
(lp4491
g61
(g82
g63
NtRp4492
(dp4493
g66
(dp4494
g86
g87
ssg75
g4488
sg68
(lp4495
S'Content-Type'
p4496
asbag61
(g82
g63
NtRp4497
(dp4498
g66
(dp4499
g93
g94
ssg75
g4488
sg68
(lp4500
S':'
asbag61
(g82
g63
NtRp4501
(dp4502
g66
(dp4503
sg75
g4488
sg68
(lp4504
g61
(g62
g63
NtRp4505
(dp4506
g66
(dp4507
g74
I4
ssg75
g4501
sg68
(lp4508
S'text/html; charset=utf-8'
p4509
asbasbasbag61
(g77
g63
NtRp4510
(dp4511
g66
(dp4512
sg75
g4462
sg68
(lp4513
g61
(g82
g63
NtRp4514
(dp4515
g66
(dp4516
g86
g87
ssg75
g4510
sg68
(lp4517
S'Expires'
p4518
asbag61
(g82
g63
NtRp4519
(dp4520
g66
(dp4521
g93
g94
ssg75
g4510
sg68
(lp4522
S':'
asbag61
(g82
g63
NtRp4523
(dp4524
g66
(dp4525
sg75
g4510
sg68
(lp4526
g61
(g62
g63
NtRp4527
(dp4528
g66
(dp4529
g74
I4
ssg75
g4523
sg68
(lp4530
S'Fri, 23 Nov 2012 13:33:20 GMT'
p4531
asbasbasbag61
(g77
g63
NtRp4532
(dp4533
g66
(dp4534
sg75
g4462
sg68
(lp4535
g61
(g82
g63
NtRp4536
(dp4537
g66
(dp4538
g86
g87
ssg75
g4532
sg68
(lp4539
S'Pragma'
p4540
asbag61
(g82
g63
NtRp4541
(dp4542
g66
(dp4543
g93
g94
ssg75
g4532
sg68
(lp4544
S':'
asbag61
(g82
g63
NtRp4545
(dp4546
g66
(dp4547
sg75
g4532
sg68
(lp4548
g61
(g62
g63
NtRp4549
(dp4550
g66
(dp4551
g74
I4
ssg75
g4545
sg68
(lp4552
S'no-cache'
p4553
asbasbasbag61
(g77
g63
NtRp4554
(dp4555
g66
(dp4556
sg75
g4462
sg68
(lp4557
g61
(g82
g63
NtRp4558
(dp4559
g66
(dp4560
g86
g87
ssg75
g4554
sg68
(lp4561
S'X-Powered-By'
p4562
asbag61
(g82
g63
NtRp4563
(dp4564
g66
(dp4565
g93
g94
ssg75
g4554
sg68
(lp4566
S':'
asbag61
(g82
g63
NtRp4567
(dp4568
g66
(dp4569
sg75
g4554
sg68
(lp4570
g61
(g62
g63
NtRp4571
(dp4572
g66
(dp4573
g74
I4
ssg75
g4567
sg68
(lp4574
S'web2py'
p4575
asbasbasbasbasbasbasbag61
(g77
g63
NtRp4576
(dp4577
g66
(dp4578
sg75
g4136
sg68
(lp4579
g61
(g82
g63
NtRp4580
(dp4581
g66
(dp4582
g86
g87
ssg75
g4576
sg68
(lp4583
S'menu'
p4584
asbag61
(g82
g63
NtRp4585
(dp4586
g66
(dp4587
g93
g94
ssg75
g4576
sg68
(lp4588
S':'
asbag61
(g82
g63
NtRp4589
(dp4590
g66
(dp4591
sg75
g4576
sg68
(lp4592
g61
(g62
g63
NtRp4593
(dp4594
g66
(dp4595
g74
I5
ssg75
g4589
sg68
(lp4596
g61
(g70
g63
NtRp4597
(dp4598
g66
(dp4599
g74
I4
ssg75
Nsg68
(lp4600
g61
(g77
g63
NtRp4601
(dp4602
g66
(dp4603
sg75
g4597
sg68
(lp4604
g61
(g82
g63
NtRp4605
(dp4606
g66
(dp4607
sg75
g4601
sg68
(lp4608
g61
(g62
g63
NtRp4609
(dp4610
g66
(dp4611
g74
I4
ssg75
g4605
sg68
(lp4612
g61
(g70
g63
NtRp4613
(dp4614
g66
(dp4615
g74
I3
ssg75
Nsg68
(lp4616
g61
(g77
g63
NtRp4617
(dp4618
g66
(dp4619
sg75
g4613
sg68
(lp4620
g61
(g82
g63
NtRp4621
(dp4622
g66
(dp4623
sg75
g4617
sg68
(lp4624
g61
(g62
g63
NtRp4625
(dp4626
g66
(dp4627
g74
I3
ssg75
g4621
sg68
(lp4628
cgluon.languages
lazyT_unpickle
p4629
(S's\x07\x00\x00\x00Threads'
tRp4630
asbasbasbag61
(g77
g63
NtRp4631
(dp4632
g66
(dp4633
sg75
g4613
sg68
(lp4634
g61
(g82
g63
NtRp4635
(dp4636
g66
(dp4637
sg75
g4631
sg68
(lp4638
g61
(g62
g63
NtRp4639
(dp4640
g66
(dp4641
g74
I3
ssg75
g4635
sg68
(lp4642
g104
asbasbasbag61
(g77
g63
NtRp4643
(dp4644
g66
(dp4645
sg75
g4613
sg68
(lp4646
g61
(g82
g63
NtRp4647
(dp4648
g66
(dp4649
sg75
g4643
sg68
(lp4650
g61
(g62
g63
NtRp4651
(dp4652
g66
(dp4653
g74
I3
ssg75
g4647
sg68
(lp4654
S'/web2py/Threads_Beta/default/index'
p4655
asbasbasbag61
(g77
g63
NtRp4656
(dp4657
g66
(dp4658
sg75
g4613
sg68
(lp4659
g61
(g82
g63
NtRp4660
(dp4661
g66
(dp4662
sg75
g4656
sg68
(lp4663
g61
(g62
g63
NtRp4664
(dp4665
g66
(dp4666
g74
I3
ssg75
g4660
sg68
(lp4667
g61
(g70
g63
NtRp4668
(dp4669
g66
(dp4670
g74
I2
ssg75
Nsg68
(lp4671
sbasbasbasbasbasbasbasbag61
(g77
g63
NtRp4672
(dp4673
g66
(dp4674
sg75
g4597
sg68
(lp4675
g61
(g82
g63
NtRp4676
(dp4677
g66
(dp4678
sg75
g4672
sg68
(lp4679
g61
(g62
g63
NtRp4680
(dp4681
g66
(dp4682
g74
I4
ssg75
g4676
sg68
(lp4683
g61
(g70
g63
NtRp4684
(dp4685
g66
(dp4686
g74
I3
ssg75
Nsg68
(lp4687
g61
(g77
g63
NtRp4688
(dp4689
g66
(dp4690
sg75
g4684
sg68
(lp4691
g61
(g82
g63
NtRp4692
(dp4693
g66
(dp4694
sg75
g4688
sg68
(lp4695
g61
(g62
g63
NtRp4696
(dp4697
g66
(dp4698
g74
I3
ssg75
g4692
sg68
(lp4699
g4629
(S's\x08\x00\x00\x00Felicity'
tRp4700
asbasbasbag61
(g77
g63
NtRp4701
(dp4702
g66
(dp4703
sg75
g4684
sg68
(lp4704
g61
(g82
g63
NtRp4705
(dp4706
g66
(dp4707
sg75
g4701
sg68
(lp4708
g61
(g62
g63
NtRp4709
(dp4710
g66
(dp4711
g74
I3
ssg75
g4705
sg68
(lp4712
g104
asbasbasbag61
(g77
g63
NtRp4713
(dp4714
g66
(dp4715
sg75
g4684
sg68
(lp4716
g61
(g82
g63
NtRp4717
(dp4718
g66
(dp4719
sg75
g4713
sg68
(lp4720
g61
(g62
g63
NtRp4721
(dp4722
g66
(dp4723
g74
I3
ssg75
g4717
sg68
(lp4724
S'http://felicity.iiit.ac.in'
p4725
asbasbasbag61
(g77
g63
NtRp4726
(dp4727
g66
(dp4728
sg75
g4684
sg68
(lp4729
g61
(g82
g63
NtRp4730
(dp4731
g66
(dp4732
sg75
g4726
sg68
(lp4733
g61
(g62
g63
NtRp4734
(dp4735
g66
(dp4736
g74
I3
ssg75
g4730
sg68
(lp4737
g61
(g70
g63
NtRp4738
(dp4739
g66
(dp4740
g74
I2
ssg75
Nsg68
(lp4741
sbasbasbasbasbasbasbasbasbasbasbasbag61
(g77
g63
NtRp4742
(dp4743
g66
(dp4744
sg75
g4136
sg68
(lp4745
g61
(g82
g63
NtRp4746
(dp4747
g66
(dp4748
g86
g87
ssg75
g4742
sg68
(lp4749
S'meta'
p4750
asbag61
(g82
g63
NtRp4751
(dp4752
g66
(dp4753
g93
g94
ssg75
g4742
sg68
(lp4754
S':'
asbag61
(g82
g63
NtRp4755
(dp4756
g66
(dp4757
sg75
g4742
sg68
(lp4758
g61
(g62
g63
NtRp4759
(dp4760
g66
(dp4761
g74
I5
ssg75
g4755
sg68
(lp4762
g61
(g70
g63
NtRp4763
(dp4764
g66
(dp4765
g74
I4
ssg75
Nsg68
(lp4766
g61
(g77
g63
NtRp4767
(dp4768
g66
(dp4769
sg75
g4763
sg68
(lp4770
g61
(g82
g63
NtRp4771
(dp4772
g66
(dp4773
g86
g87
ssg75
g4767
sg68
(lp4774
S'author'
p4775
asbag61
(g82
g63
NtRp4776
(dp4777
g66
(dp4778
g93
g94
ssg75
g4767
sg68
(lp4779
S':'
asbag61
(g82
g63
NtRp4780
(dp4781
g66
(dp4782
sg75
g4767
sg68
(lp4783
g61
(g62
g63
NtRp4784
(dp4785
g66
(dp4786
g74
I4
ssg75
g4780
sg68
(lp4787
S'Your Name <you@example.com>'
p4788
asbasbasbag61
(g77
g63
NtRp4789
(dp4790
g66
(dp4791
sg75
g4763
sg68
(lp4792
g61
(g82
g63
NtRp4793
(dp4794
g66
(dp4795
g86
g87
ssg75
g4789
sg68
(lp4796
S'copyright'
p4797
asbag61
(g82
g63
NtRp4798
(dp4799
g66
(dp4800
g93
g94
ssg75
g4789
sg68
(lp4801
S':'
asbag61
(g82
g63
NtRp4802
(dp4803
g66
(dp4804
sg75
g4789
sg68
(lp4805
g61
(g62
g63
NtRp4806
(dp4807
g66
(dp4808
g74
I4
ssg75
g4802
sg68
(lp4809
S'Copyright 2011'
p4810
asbasbasbag61
(g77
g63
NtRp4811
(dp4812
g66
(dp4813
sg75
g4763
sg68
(lp4814
g61
(g82
g63
NtRp4815
(dp4816
g66
(dp4817
g86
g87
ssg75
g4811
sg68
(lp4818
S'description'
p4819
asbag61
(g82
g63
NtRp4820
(dp4821
g66
(dp4822
g93
g94
ssg75
g4811
sg68
(lp4823
S':'
asbag61
(g82
g63
NtRp4824
(dp4825
g66
(dp4826
sg75
g4811
sg68
(lp4827
g61
(g62
g63
NtRp4828
(dp4829
g66
(dp4830
g74
I4
ssg75
g4824
sg68
(lp4831
S'a cool new app'
p4832
asbasbasbag61
(g77
g63
NtRp4833
(dp4834
g66
(dp4835
sg75
g4763
sg68
(lp4836
g61
(g82
g63
NtRp4837
(dp4838
g66
(dp4839
g86
g87
ssg75
g4833
sg68
(lp4840
S'generator'
p4841
asbag61
(g82
g63
NtRp4842
(dp4843
g66
(dp4844
g93
g94
ssg75
g4833
sg68
(lp4845
S':'
asbag61
(g82
g63
NtRp4846
(dp4847
g66
(dp4848
sg75
g4833
sg68
(lp4849
g61
(g62
g63
NtRp4850
(dp4851
g66
(dp4852
g74
I4
ssg75
g4846
sg68
(lp4853
S'Web2py Web Framework'
p4854
asbasbasbag61
(g77
g63
NtRp4855
(dp4856
g66
(dp4857
sg75
g4763
sg68
(lp4858
g61
(g82
g63
NtRp4859
(dp4860
g66
(dp4861
g86
g87
ssg75
g4855
sg68
(lp4862
S'keywords'
p4863
asbag61
(g82
g63
NtRp4864
(dp4865
g66
(dp4866
g93
g94
ssg75
g4855
sg68
(lp4867
S':'
asbag61
(g82
g63
NtRp4868
(dp4869
g66
(dp4870
sg75
g4855
sg68
(lp4871
g61
(g62
g63
NtRp4872
(dp4873
g66
(dp4874
g74
I4
ssg75
g4868
sg68
(lp4875
S'web2py, python, framework'
p4876
asbasbasbasbasbasbasbag61
(g77
g63
NtRp4877
(dp4878
g66
(dp4879
sg75
g4136
sg68
(lp4880
g61
(g82
g63
NtRp4881
(dp4882
g66
(dp4883
g86
g87
ssg75
g4877
sg68
(lp4884
S'postprocessing'
p4885
asbag61
(g82
g63
NtRp4886
(dp4887
g66
(dp4888
g93
g94
ssg75
g4877
sg68
(lp4889
S':'
asbag61
(g82
g63
NtRp4890
(dp4891
g66
(dp4892
sg75
g4877
sg68
(lp4893
g61
(g62
g63
NtRp4894
(dp4895
g66
(dp4896
g74
I5
ssg75
g4890
sg68
(lp4897
g61
(g70
g63
NtRp4898
(dp4899
g66
(dp4900
g74
I4
ssg75
Nsg68
(lp4901
sbasbasbasbag61
(g77
g63
NtRp4902
(dp4903
g66
(dp4904
sg75
g4136
sg68
(lp4905
g61
(g82
g63
NtRp4906
(dp4907
g66
(dp4908
g86
g87
ssg75
g4902
sg68
(lp4909
S'session_file'
p4910
asbag61
(g82
g63
NtRp4911
(dp4912
g66
(dp4913
g93
g94
ssg75
g4902
sg68
(lp4914
S':'
asbag61
(g82
g63
NtRp4915
(dp4916
g66
(dp4917
sg75
g4902
sg68
(lp4918
g61
(g62
g63
NtRp4919
(dp4920
g66
(dp4921
g74
I5
ssg75
g4915
sg68
(lp4922
S"<open file '/var/www/web2py/applications/Threads_Beta/sessions/10.1.34.61-3114cc7b-425a-4da5-9d92-36a7f5bc0cd8', mode 'rb+' at 0x7fba2034bf60>"
p4923
asbasbasbag61
(g77
g63
NtRp4924
(dp4925
g66
(dp4926
sg75
g4136
sg68
(lp4927
g61
(g82
g63
NtRp4928
(dp4929
g66
(dp4930
g86
g87
ssg75
g4924
sg68
(lp4931
S'session_filename'
p4932
asbag61
(g82
g63
NtRp4933
(dp4934
g66
(dp4935
g93
g94
ssg75
g4924
sg68
(lp4936
S':'
asbag61
(g82
g63
NtRp4937
(dp4938
g66
(dp4939
sg75
g4924
sg68
(lp4940
g61
(g62
g63
NtRp4941
(dp4942
g66
(dp4943
g74
I5
ssg75
g4937
sg68
(lp4944
S'/var/www/web2py/applications/Threads_Beta/sessions/10.1.34.61-3114cc7b-425a-4da5-9d92-36a7f5bc0cd8'
p4945
asbasbasbag61
(g77
g63
NtRp4946
(dp4947
g66
(dp4948
sg75
g4136
sg68
(lp4949
g61
(g82
g63
NtRp4950
(dp4951
g66
(dp4952
g86
g87
ssg75
g4946
sg68
(lp4953
S'session_id'
p4954
asbag61
(g82
g63
NtRp4955
(dp4956
g66
(dp4957
g93
g94
ssg75
g4946
sg68
(lp4958
S':'
asbag61
(g82
g63
NtRp4959
(dp4960
g66
(dp4961
sg75
g4946
sg68
(lp4962
g61
(g62
g63
NtRp4963
(dp4964
g66
(dp4965
g74
I5
ssg75
g4959
sg68
(lp4966
S'10.1.34.61-3114cc7b-425a-4da5-9d92-36a7f5bc0cd8'
p4967
asbasbasbag61
(g77
g63
NtRp4968
(dp4969
g66
(dp4970
sg75
g4136
sg68
(lp4971
g61
(g82
g63
NtRp4972
(dp4973
g66
(dp4974
g86
g87
ssg75
g4968
sg68
(lp4975
S'session_id_name'
p4976
asbag61
(g82
g63
NtRp4977
(dp4978
g66
(dp4979
g93
g94
ssg75
g4968
sg68
(lp4980
S':'
asbag61
(g82
g63
NtRp4981
(dp4982
g66
(dp4983
sg75
g4968
sg68
(lp4984
g61
(g62
g63
NtRp4985
(dp4986
g66
(dp4987
g74
I5
ssg75
g4981
sg68
(lp4988
g4193
asbasbasbag61
(g77
g63
NtRp4989
(dp4990
g66
(dp4991
sg75
g4136
sg68
(lp4992
g61
(g82
g63
NtRp4993
(dp4994
g66
(dp4995
g86
g87
ssg75
g4989
sg68
(lp4996
S'session_locked'
p4997
asbag61
(g82
g63
NtRp4998
(dp4999
g66
(dp5000
g93
g94
ssg75
g4989
sg68
(lp5001
S':'
asbag61
(g82
g63
NtRp5002
(dp5003
g66
(dp5004
sg75
g4989
sg68
(lp5005
g61
(g62
g63
NtRp5006
(dp5007
g66
(dp5008
g74
I5
ssg75
g5002
sg68
(lp5009
g1750
asbasbasbag61
(g77
g63
NtRp5010
(dp5011
g66
(dp5012
sg75
g4136
sg68
(lp5013
g61
(g82
g63
NtRp5014
(dp5015
g66
(dp5016
g86
g87
ssg75
g5010
sg68
(lp5017
S'session_new'
p5018
asbag61
(g82
g63
NtRp5019
(dp5020
g66
(dp5021
g93
g94
ssg75
g5010
sg68
(lp5022
S':'
asbag61
(g82
g63
NtRp5023
(dp5024
g66
(dp5025
sg75
g5010
sg68
(lp5026
g61
(g62
g63
NtRp5027
(dp5028
g66
(dp5029
g74
I5
ssg75
g5023
sg68
(lp5030
g104
asbasbasbag61
(g77
g63
NtRp5031
(dp5032
g66
(dp5033
sg75
g4136
sg68
(lp5034
g61
(g82
g63
NtRp5035
(dp5036
g66
(dp5037
g86
g87
ssg75
g5031
sg68
(lp5038
S'status'
p5039
asbag61
(g82
g63
NtRp5040
(dp5041
g66
(dp5042
g93
g94
ssg75
g5031
sg68
(lp5043
S':'
asbag61
(g82
g63
NtRp5044
(dp5045
g66
(dp5046
sg75
g5031
sg68
(lp5047
g61
(g62
g63
NtRp5048
(dp5049
g66
(dp5050
g74
I5
ssg75
g5044
sg68
(lp5051
S'200'
p5052
asbasbasbag61
(g77
g63
NtRp5053
(dp5054
g66
(dp5055
sg75
g4136
sg68
(lp5056
g61
(g82
g63
NtRp5057
(dp5058
g66
(dp5059
g86
g87
ssg75
g5053
sg68
(lp5060
S'subtitle'
p5061
asbag61
(g82
g63
NtRp5062
(dp5063
g66
(dp5064
g93
g94
ssg75
g5053
sg68
(lp5065
S':'
asbag61
(g82
g63
NtRp5066
(dp5067
g66
(dp5068
sg75
g5053
sg68
(lp5069
g61
(g62
g63
NtRp5070
(dp5071
g66
(dp5072
g74
I5
ssg75
g5066
sg68
(lp5073
g4629
(S's\r\x00\x00\x00customize me!'
tRp5074
asbasbasbag61
(g77
g63
NtRp5075
(dp5076
g66
(dp5077
sg75
g4136
sg68
(lp5078
g61
(g82
g63
NtRp5079
(dp5080
g66
(dp5081
g86
g87
ssg75
g5075
sg68
(lp5082
S'title'
p5083
asbag61
(g82
g63
NtRp5084
(dp5085
g66
(dp5086
g93
g94
ssg75
g5075
sg68
(lp5087
S':'
asbag61
(g82
g63
NtRp5088
(dp5089
g66
(dp5090
sg75
g5075
sg68
(lp5091
g61
(g62
g63
NtRp5092
(dp5093
g66
(dp5094
g74
I5
ssg75
g5088
sg68
(lp5095
S'Threads Beta'
p5096
asbasbasbag61
(g77
g63
NtRp5097
(dp5098
g66
(dp5099
sg75
g4136
sg68
(lp5100
g61
(g82
g63
NtRp5101
(dp5102
g66
(dp5103
g86
g87
ssg75
g5097
sg68
(lp5104
g2413
asbag61
(g82
g63
NtRp5105
(dp5106
g66
(dp5107
g93
g94
ssg75
g5097
sg68
(lp5108
S':'
asbag61
(g82
g63
NtRp5109
(dp5110
g66
(dp5111
sg75
g5097
sg68
(lp5112
g61
(g62
g63
NtRp5113
(dp5114
g66
(dp5115
g74
I5
ssg75
g5109
sg68
(lp5116
g2426
asbasbasbag61
(g77
g63
NtRp5117
(dp5118
g66
(dp5119
sg75
g4136
sg68
(lp5120
g61
(g82
g63
NtRp5121
(dp5122
g66
(dp5123
g86
g87
ssg75
g5117
sg68
(lp5124
S'view'
p5125
asbag61
(g82
g63
NtRp5126
(dp5127
g66
(dp5128
g93
g94
ssg75
g5117
sg68
(lp5129
S':'
asbag61
(g82
g63
NtRp5130
(dp5131
g66
(dp5132
sg75
g5117
sg68
(lp5133
g61
(g62
g63
NtRp5134
(dp5135
g66
(dp5136
g74
I5
ssg75
g5130
sg68
(lp5137
S'default/judge.html'
p5138
asbasbasbasbasbsS'locals'
p5139
(dp5140
S'file_descriptor'
p5141
S'<cStringIO.StringO object>'
p5142
sS'c'
S'<pycurl.Curl object>'
p5143
sS'user_id'
p5144
S'1'
sS'temp_dir'
p5145
S"'/tmp/Felicity/'"
p5146
sS'question_no'
p5147
S'3'
sS'event_id'
p5148
S'1'
sS'judge_ip'
p5149
S"'localhost'"
p5150
sS'curl_request'
p5151
S"'http://localhost:10001'"
p5152
sS'temp_storage_filename'
p5153
S"'/tmp/Felicity/submission_3_1_1JHN40.cpp'"
p5154
sS'filename'
p5155
S"'tmp.cpp'"
p5156
sS'temp_storage_file'
p5157
S"'submission_3_1_1JHN40.cpp'"
p5158
sS'data_post'
p5159
S"'event_id=1&question_no=3&file=submission_3_1_1JHN40.cpp'"
p5160
sg2322
S"{'event_id': '1', 'file': 'submission_3_1_1JHN40.cpp', 'question_no': '3'}"
p5161
sS'key'
p5162
S"'file'"
p5163
sS'file_size'
p5164
S'110'
p5165
sS'organizer'
p5166
S"'Madhavan'"
p5167
sS'buf'
p5168
S'<cStringIO.StringO object>'
p5169
sS'user_event'
p5170
S"<Row {'status': 'Bad Going!', 'user_id': '1', 'u..._record': <function <lambda> at 0x7fba31f088c0>}>"
p5171
sS'row'
p5172
S"<Row {'end': datetime.datetime(2012, 10, 30, 12,..._record': <function <lambda> at 0x7fba31f089b0>}>"
p5173
sssS'traceback'
p5174
S'Traceback (most recent call last):\n  File "/var/www/web2py/gluon/restricted.py", line 204, in restricted\n    exec ccode in environment\n  File "/var/www/web2py/applications/Threads_Beta/controllers/default.py", line 235, in <module>\n  File "/var/www/web2py/gluon/globals.py", line 172, in <lambda>\n    self._caller = lambda f: f()\n  File "/var/www/web2py/gluon/tools.py", line 2533, in f\n    return action(*a, **b)\n  File "/var/www/web2py/applications/Threads_Beta/controllers/default.py", line 153, in judge\n    c.perform()\nerror: (52, \'Empty reply from server\')\n'
p5175
s.